	.text
	.syntax unified
	.eabi_attribute	67, "2.09"	@ Tag_conformance
	.cpu	cortex-a8
	.eabi_attribute	6, 10	@ Tag_CPU_arch
	.eabi_attribute	7, 65	@ Tag_CPU_arch_profile
	.eabi_attribute	8, 1	@ Tag_ARM_ISA_use
	.eabi_attribute	9, 2	@ Tag_THUMB_ISA_use
	.fpu	neon
	.eabi_attribute	17, 1	@ Tag_ABI_PCS_GOT_use
	.eabi_attribute	20, 2	@ Tag_ABI_FP_denormal
	.eabi_attribute	23, 1	@ Tag_ABI_FP_number_model
	.eabi_attribute	34, 1	@ Tag_CPU_unaligned_access
	.eabi_attribute	24, 1	@ Tag_ABI_align_needed
	.eabi_attribute	25, 1	@ Tag_ABI_align_preserved
	.eabi_attribute	28, 1	@ Tag_ABI_VFP_args
	.eabi_attribute	38, 1	@ Tag_ABI_FP_16bit_format
	.eabi_attribute	18, 4	@ Tag_ABI_PCS_wchar_t
	.eabi_attribute	26, 2	@ Tag_ABI_enum_size
	.eabi_attribute	14, 0	@ Tag_ABI_PCS_R9_use
	.eabi_attribute	68, 1	@ Tag_Virtualization_use
	.file	"/root/Bela/projects/NIEMO/build/render.bc"
	.file	1 "/usr/bin/../lib/gcc/arm-linux-gnueabihf/6.3.0/../../../../include/arm-linux-gnueabihf/c++/6.3.0/bits" "c++config.h"
	.file	2 "/usr/bin/../lib/gcc/arm-linux-gnueabihf/6.3.0/../../../../include/arm-linux-gnueabihf/c++/6.3.0/bits" "atomic_word.h"
	.file	3 "/usr/bin/../lib/gcc/arm-linux-gnueabihf/6.3.0/../../../../include/c++/6.3.0/bits" "ios_base.h"
	.file	4 "/usr/bin/../lib/gcc/arm-linux-gnueabihf/6.3.0/../../../../include/c++/6.3.0" "iostream"
	.file	5 "/root/Bela/projects/NIEMO/dsp" "PitchShift.h"
	.file	6 "/usr/include/ne10" "NE10_types.h"
	.file	7 "./libraries/Fft" "Fft.h"
	.file	8 "/usr/bin/../lib/gcc/arm-linux-gnueabihf/6.3.0/../../../../include/c++/6.3.0/bits" "alloc_traits.h"
	.file	9 "/usr/bin/../lib/gcc/arm-linux-gnueabihf/6.3.0/../../../../include/c++/6.3.0/ext" "new_allocator.h"
	.file	10 "/usr/bin/../lib/gcc/arm-linux-gnueabihf/6.3.0/../../../../include/arm-linux-gnueabihf/c++/6.3.0/bits" "c++allocator.h"
	.file	11 "/usr/bin/../lib/gcc/arm-linux-gnueabihf/6.3.0/../../../../include/c++/6.3.0/bits" "allocator.h"
	.file	12 "/usr/bin/../lib/gcc/arm-linux-gnueabihf/6.3.0/../../../../include/c++/6.3.0/ext" "alloc_traits.h"
	.file	13 "/usr/bin/../lib/gcc/arm-linux-gnueabihf/6.3.0/../../../../include/c++/6.3.0/bits" "stl_vector.h"
	.file	14 "/usr/bin/../lib/gcc/arm-linux-gnueabihf/6.3.0/../../../../include/c++/6.3.0/bits" "stl_iterator.h"
	.file	15 "/usr/bin/../lib/gcc/arm-linux-gnueabihf/6.3.0/../../../../include/c++/6.3.0/bits" "stl_iterator_base_types.h"
	.file	16 "/usr/bin/../lib/gcc/arm-linux-gnueabihf/6.3.0/../../../../include/c++/6.3.0" "type_traits"
	.file	17 "/root/Bela/projects/NIEMO/dsp" "PitchMap.h"
	.file	18 "./include" "Bela.h"
	.file	19 "/root/Bela/projects/NIEMO/dsp" "Window.h"
	.file	20 "/root/Bela/projects/NIEMO" "render.cpp"
	.file	21 "/root/Bela/projects/NIEMO/dsp" "DynamicStiffString.h"
	.file	22 "/usr/bin/../lib/gcc/arm-linux-gnueabihf/6.3.0/../../../../include/c++/6.3.0/bits" "stl_bvector.h"
	.file	23 "/usr/bin/../lib/gcc/arm-linux-gnueabihf/6.3.0/../../../../include/c++/6.3.0" "initializer_list"
	.file	24 "/root/Bela/projects/NIEMO/dsp" "StringConnection.h"
	.file	25 "/root/Bela/projects/NIEMO/dsp" "Yin.h"
	.file	26 "./libraries/Scope" "Scope.h"
	.file	27 "/usr/bin/../lib/gcc/arm-linux-gnueabihf/6.3.0/../../../../include/c++/6.3.0/bits" "unique_ptr.h"
	.file	28 "/usr/bin/../lib/gcc/arm-linux-gnueabihf/6.3.0/../../../../include/c++/6.3.0" "tuple"
	.file	29 "/usr/bin/../lib/gcc/arm-linux-gnueabihf/6.3.0/../../../../include/c++/6.3.0/bits" "uses_allocator.h"
	.file	30 "/usr/bin/../lib/gcc/arm-linux-gnueabihf/6.3.0/../../../../include/c++/6.3.0/bits" "stl_tree.h"
	.file	31 "/usr/bin/../lib/gcc/arm-linux-gnueabihf/6.3.0/../../../../include/c++/6.3.0/bits" "stl_function.h"
	.file	32 "/usr/bin/../lib/gcc/arm-linux-gnueabihf/6.3.0/../../../../include/c++/6.3.0/bits" "stl_pair.h"
	.file	33 "/usr/bin/../lib/gcc/arm-linux-gnueabihf/6.3.0/../../../../include/c++/6.3.0/bits" "stl_map.h"
	.file	34 "/usr/bin/../lib/gcc/arm-linux-gnueabihf/6.3.0/../../../../include/c++/6.3.0/bits" "stringfwd.h"
	.file	35 "./libraries/Biquad" "Biquad.h"
	.file	36 "./libraries/Gui" "Gui.h"
	.file	37 "/usr/bin/../lib/gcc/arm-linux-gnueabihf/6.3.0/../../../../include/c++/6.3.0" "functional"
	.file	38 "/usr/lib/llvm-3.9/bin/../lib/clang/3.9.1/include" "stddef.h"
	.file	39 "/usr/bin/../lib/gcc/arm-linux-gnueabihf/6.3.0/../../../../include/c++/6.3.0/ext" "concurrence.h"
	.file	40 "/usr/bin/../lib/gcc/arm-linux-gnueabihf/6.3.0/../../../../include/c++/6.3.0/bits" "cpp_type_traits.h"
	.file	41 "/usr/bin/../lib/gcc/arm-linux-gnueabihf/6.3.0/../../../../include/c++/6.3.0/bits" "basic_string.h"
	.file	42 "/usr/bin/../lib/gcc/arm-linux-gnueabihf/6.3.0/../../../../include/c++/6.3.0/bits" "postypes.h"
	.file	43 "/usr/bin/../lib/gcc/arm-linux-gnueabihf/6.3.0/../../../../include/c++/6.3.0/bits" "char_traits.h"
	.file	44 "/usr/bin/../lib/gcc/arm-linux-gnueabihf/6.3.0/../../../../include/c++/6.3.0/debug" "debug.h"
	.file	45 "/usr/bin/../lib/gcc/arm-linux-gnueabihf/6.3.0/../../../../include/c++/6.3.0/bits" "exception_ptr.h"
	.file	46 "/usr/include" "wchar.h"
	.file	47 "/usr/include" "libio.h"
	.file	48 "/usr/include/arm-linux-gnueabihf/bits" "types.h"
	.file	49 "/usr/include" "stdio.h"
	.file	50 "/usr/lib/llvm-3.9/bin/../lib/clang/3.9.1/include" "stdarg.h"
	.file	51 "/usr/include" "stdint.h"
	.file	52 "/usr/include" "locale.h"
	.file	53 "/usr/include" "ctype.h"
	.file	54 "/usr/include" "stdlib.h"
	.file	55 "/usr/include/arm-linux-gnueabihf/bits" "stdlib-float.h"
	.file	56 "/usr/include/arm-linux-gnueabihf/bits" "stdlib-bsearch.h"
	.file	57 "/usr/bin/../lib/gcc/arm-linux-gnueabihf/6.3.0/../../../../include/c++/6.3.0" "cstdlib"
	.file	58 "/usr/include" "_G_config.h"
	.file	59 "/usr/include/arm-linux-gnueabihf/bits" "stdio.h"
	.file	60 "/usr/include" "wctype.h"
	.file	61 "/usr/include/arm-linux-gnueabihf/bits" "math-finite.h"
	.file	62 "/usr/include/arm-linux-gnueabihf/bits" "mathcalls.h"
	.file	63 "/usr/include/arm-linux-gnueabihf/bits" "mathdef.h"
	.file	64 "/usr/include" "string.h"
	.file	65 "/root/Bela/projects/NIEMO/build" "render.cpp"
	.section	.text._ZN3FftD2Ev,"axG",%progbits,_ZN3FftD2Ev,comdat
	.weak	_ZN3FftD2Ev
	.p2align	2
	.type	_ZN3FftD2Ev,%function
_ZN3FftD2Ev:                            @ @_ZN3FftD2Ev
.Lfunc_begin0:
	.loc	7 16 0                  @ ./libraries/Fft/Fft.h:16:0
	.fnstart
	.cfi_startproc
@ BB#0:
	.save	{r4, r10, r11, lr}
	push	{r4, r10, r11, lr}
.Ltmp3:
	.cfi_def_cfa_offset 16
.Ltmp4:
	.cfi_offset lr, -4
.Ltmp5:
	.cfi_offset r11, -8
.Ltmp6:
	.cfi_offset r10, -12
.Ltmp7:
	.cfi_offset r4, -16
	.setfp	r11, sp, #8
	add	r11, sp, #8
.Ltmp8:
	.cfi_def_cfa r11, 8
	@DEBUG_VALUE: ~Fft:this <- %R0
	mov	r4, r0
.Ltmp9:
	@DEBUG_VALUE: ~Fft:this <- %R4
	.loc	7 16 10 prologue_end    @ ./libraries/Fft/Fft.h:16:10
.Ltmp0:
	bl	_ZN3Fft7cleanupEv
.Ltmp1:
.Ltmp10:
@ BB#1:
	@DEBUG_VALUE: ~Fft:this <- %R4
	.loc	7 16 21 is_stmt 0 discriminator 1 @ ./libraries/Fft/Fft.h:16:21
	mov	r0, r4
	pop	{r4, r10, r11, pc}
.Ltmp11:
.LBB0_2:
	@DEBUG_VALUE: ~Fft:this <- %R4
.Ltmp2:
.Ltmp12:
	.loc	7 16 10 discriminator 2 @ ./libraries/Fft/Fft.h:16:10
	mov	lr, pc
	b	__clang_call_terminate
.Ltmp13:
.Lfunc_end0:
	.size	_ZN3FftD2Ev, .Lfunc_end0-_ZN3FftD2Ev
	.cfi_endproc
	.globl	__gxx_personality_v0
	.personality __gxx_personality_v0
	.handlerdata
	.p2align	2
GCC_except_table0:
.Lexception0:
	.byte	255                     @ @LPStart Encoding = omit
	.byte	0                       @ @TType Encoding = absptr
	.byte	21                      @ @TType base offset
	.byte	3                       @ Call site Encoding = udata4
	.byte	13                      @ Call site table length
	.long	.Ltmp0-.Lfunc_begin0    @ >> Call Site 1 <<
	.long	.Ltmp1-.Ltmp0           @   Call between .Ltmp0 and .Ltmp1
	.long	.Ltmp2-.Lfunc_begin0    @     jumps to .Ltmp2
	.byte	1                       @   On action: 1
	.byte	1                       @ >> Action Record 1 <<
                                        @   Catch TypeInfo 1
	.byte	0                       @   No further actions
                                        @ >> Catch TypeInfos <<
	.long	0                       @ TypeInfo 1
	.p2align	2
	.fnend

	.section	.text._ZNSt6vectorIfSaIfEED2Ev,"axG",%progbits,_ZNSt6vectorIfSaIfEED2Ev,comdat
	.weak	_ZNSt6vectorIfSaIfEED2Ev
	.p2align	2
	.type	_ZNSt6vectorIfSaIfEED2Ev,%function
_ZNSt6vectorIfSaIfEED2Ev:               @ @_ZNSt6vectorIfSaIfEED2Ev
.Lfunc_begin1:
	.loc	13 426 0 is_stmt 1      @ /usr/bin/../lib/gcc/arm-linux-gnueabihf/6.3.0/../../../../include/c++/6.3.0/bits/stl_vector.h:426:0
	.fnstart
	.cfi_startproc
@ BB#0:
	.save	{r4, r10, r11, lr}
	push	{r4, r10, r11, lr}
.Ltmp14:
	.cfi_def_cfa_offset 16
.Ltmp15:
	.cfi_offset lr, -4
.Ltmp16:
	.cfi_offset r11, -8
.Ltmp17:
	.cfi_offset r10, -12
.Ltmp18:
	.cfi_offset r4, -16
	.setfp	r11, sp, #8
	add	r11, sp, #8
.Ltmp19:
	.cfi_def_cfa r11, 8
	@DEBUG_VALUE: ~vector:this <- %R0
	mov	r4, r0
.Ltmp20:
	@DEBUG_VALUE: ~vector:this <- %R4
	.loc	13 160 37 prologue_end  @ /usr/bin/../lib/gcc/arm-linux-gnueabihf/6.3.0/../../../../include/c++/6.3.0/bits/stl_vector.h:160:37
	ldr	r0, [r4]
.Ltmp21:
	@DEBUG_VALUE: _M_deallocate:__p <- %R0
	@DEBUG_VALUE: deallocate:__p <- %R0
	@DEBUG_VALUE: deallocate:__p <- %R0
	.loc	13 177 6                @ /usr/bin/../lib/gcc/arm-linux-gnueabihf/6.3.0/../../../../include/c++/6.3.0/bits/stl_vector.h:177:6
	cmp	r0, #0
	beq	.LBB1_2
.Ltmp22:
@ BB#1:
	@DEBUG_VALUE: deallocate:__p <- %R0
	@DEBUG_VALUE: deallocate:__p <- %R0
	@DEBUG_VALUE: _M_deallocate:__p <- %R0
	@DEBUG_VALUE: ~vector:this <- %R4
	.loc	9 110 9                 @ /usr/bin/../lib/gcc/arm-linux-gnueabihf/6.3.0/../../../../include/c++/6.3.0/ext/new_allocator.h:110:9
	bl	_ZdlPv
.Ltmp23:
.LBB1_2:                                @ %_ZNSt12_Vector_baseIfSaIfEED2Ev.exit
	@DEBUG_VALUE: ~vector:this <- %R4
	.loc	13 427 33 discriminator 1 @ /usr/bin/../lib/gcc/arm-linux-gnueabihf/6.3.0/../../../../include/c++/6.3.0/bits/stl_vector.h:427:33
	mov	r0, r4
	pop	{r4, r10, r11, pc}
.Ltmp24:
.Lfunc_end1:
	.size	_ZNSt6vectorIfSaIfEED2Ev, .Lfunc_end1-_ZNSt6vectorIfSaIfEED2Ev
	.cfi_endproc
	.fnend

	.text
	.globl	_ZN10PitchShift9wrapPhaseEf
	.p2align	3
	.type	_ZN10PitchShift9wrapPhaseEf,%function
_ZN10PitchShift9wrapPhaseEf:            @ @_ZN10PitchShift9wrapPhaseEf
.Lfunc_begin2:
	.loc	5 39 0                  @ /root/Bela/projects/NIEMO/dsp/PitchShift.h:39:0
	.fnstart
	.cfi_startproc
@ BB#0:
	.save	{r11, lr}
	push	{r11, lr}
.Ltmp25:
	.cfi_def_cfa_offset 8
.Ltmp26:
	.cfi_offset lr, -4
.Ltmp27:
	.cfi_offset r11, -8
	.setfp	r11, sp
	mov	r11, sp
.Ltmp28:
	.cfi_def_cfa_register r11
	@DEBUG_VALUE: wrapPhase:phaseIn <- %S0
.Ltmp29:
	.loc	5 40 35 prologue_end discriminator 1 @ /root/Bela/projects/NIEMO/dsp/PitchShift.h:40:35
	vcvt.f64.f32	d16, s0
	.loc	5 40 12 is_stmt 0       @ /root/Bela/projects/NIEMO/dsp/PitchShift.h:40:12
	vcmpe.f32	s0, #0
	vmrs	APSR_nzcv, fpscr
	bge	.LBB2_2
.Ltmp30:
@ BB#1:
	@DEBUG_VALUE: wrapPhase:phaseIn <- %S0
	.loc	5 40 140 discriminator 2 @ /root/Bela/projects/NIEMO/dsp/PitchShift.h:40:140
	vldr	d17, .LCPI2_2
	.loc	5 40 126 discriminator 2 @ /root/Bela/projects/NIEMO/dsp/PitchShift.h:40:126
	vldr	s1, .LCPI2_3
	.loc	5 40 140 discriminator 2 @ /root/Bela/projects/NIEMO/dsp/PitchShift.h:40:140
	vadd.f64	d16, d16, d17
	.loc	5 40 132 discriminator 2 @ /root/Bela/projects/NIEMO/dsp/PitchShift.h:40:132
	vcvt.f32.f64	s0, d16
.Ltmp31:
	.loc	5 40 126 discriminator 2 @ /root/Bela/projects/NIEMO/dsp/PitchShift.h:40:126
	bl	__fmodf_finite
	vcvt.f64.f32	d16, s0
	.loc	5 40 197 discriminator 2 @ /root/Bela/projects/NIEMO/dsp/PitchShift.h:40:197
	vldr	d17, .LCPI2_0
	b	.LBB2_3
.LBB2_2:
.Ltmp32:
	@DEBUG_VALUE: wrapPhase:phaseIn <- %S0
	.loc	5 40 43 discriminator 1 @ /root/Bela/projects/NIEMO/dsp/PitchShift.h:40:43
	vldr	d17, .LCPI2_0
	.loc	5 40 29 discriminator 1 @ /root/Bela/projects/NIEMO/dsp/PitchShift.h:40:29
	vldr	s1, .LCPI2_1
	.loc	5 40 43 discriminator 1 @ /root/Bela/projects/NIEMO/dsp/PitchShift.h:40:43
	vadd.f64	d16, d16, d17
	.loc	5 40 35 discriminator 1 @ /root/Bela/projects/NIEMO/dsp/PitchShift.h:40:35
	vcvt.f32.f64	s0, d16
.Ltmp33:
	.loc	5 40 29 discriminator 1 @ /root/Bela/projects/NIEMO/dsp/PitchShift.h:40:29
	bl	__fmodf_finite
	vcvt.f64.f32	d16, s0
	.loc	5 40 99 discriminator 1 @ /root/Bela/projects/NIEMO/dsp/PitchShift.h:40:99
	vldr	d17, .LCPI2_2
.LBB2_3:
	.loc	5 40 197 discriminator 2 @ /root/Bela/projects/NIEMO/dsp/PitchShift.h:40:197
	vadd.f64	d16, d16, d17
	.loc	5 40 12 discriminator 3 @ /root/Bela/projects/NIEMO/dsp/PitchShift.h:40:12
	vcvt.f32.f64	s0, d16
	.loc	5 40 5 discriminator 3  @ /root/Bela/projects/NIEMO/dsp/PitchShift.h:40:5
	pop	{r11, pc}
.Ltmp34:
	.p2align	3
@ BB#4:
.LCPI2_0:
	.long	1413754136              @ double 3.1415926535897931
	.long	1074340347
.LCPI2_2:
	.long	1413754136              @ double -3.1415926535897931
	.long	3221823995
.LCPI2_1:
	.long	1086918619              @ float 6.28318548
.LCPI2_3:
	.long	3234402267              @ float -6.28318548
.Lfunc_end2:
	.size	_ZN10PitchShift9wrapPhaseEf, .Lfunc_end2-_ZN10PitchShift9wrapPhaseEf
	.cfi_endproc
	.fnend

	.globl	_ZN10PitchShift10processFftEjRSt6vectorIfSaIfEEj
	.p2align	3
	.type	_ZN10PitchShift10processFftEjRSt6vectorIfSaIfEEj,%function
_ZN10PitchShift10processFftEjRSt6vectorIfSaIfEEj: @ @_ZN10PitchShift10processFftEjRSt6vectorIfSaIfEEj
.Lfunc_begin3:
	.loc	5 43 0 is_stmt 1        @ /root/Bela/projects/NIEMO/dsp/PitchShift.h:43:0
	.fnstart
	.cfi_startproc
@ BB#0:
	.save	{r4, r5, r6, r7, r8, r9, r10, r11, lr}
	push	{r4, r5, r6, r7, r8, r9, r10, r11, lr}
.Ltmp70:
	.cfi_def_cfa_offset 36
.Ltmp71:
	.cfi_offset lr, -4
.Ltmp72:
	.cfi_offset r11, -8
.Ltmp73:
	.cfi_offset r10, -12
.Ltmp74:
	.cfi_offset r9, -16
.Ltmp75:
	.cfi_offset r8, -20
.Ltmp76:
	.cfi_offset r7, -24
.Ltmp77:
	.cfi_offset r6, -28
.Ltmp78:
	.cfi_offset r5, -32
.Ltmp79:
	.cfi_offset r4, -36
	.setfp	r11, sp, #28
	add	r11, sp, #28
.Ltmp80:
	.cfi_def_cfa r11, 8
	.pad	#4
	sub	sp, sp, #4
	.vsave	{d8, d9, d10, d11, d12, d13, d14, d15}
	vpush	{d8, d9, d10, d11, d12, d13, d14, d15}
.Ltmp81:
	.cfi_offset d15, -48
.Ltmp82:
	.cfi_offset d14, -56
.Ltmp83:
	.cfi_offset d13, -64
.Ltmp84:
	.cfi_offset d12, -72
.Ltmp85:
	.cfi_offset d11, -80
.Ltmp86:
	.cfi_offset d10, -88
.Ltmp87:
	.cfi_offset d9, -96
.Ltmp88:
	.cfi_offset d8, -104
	.pad	#40
	sub	sp, sp, #40
	@DEBUG_VALUE: processFft:inPointer <- %R0
	@DEBUG_VALUE: processFft:outBuffer <- %R1
	@DEBUG_VALUE: processFft:outPointer <- %R2
.Ltmp89:
	.loc	5 44 3 prologue_end     @ /root/Bela/projects/NIEMO/dsp/PitchShift.h:44:3
	movw	r9, :lower16:.L_MergedGlobals.11
	str	r2, [sp, #8]            @ 4-byte Spill
.Ltmp90:
	@DEBUG_VALUE: processFft:outPointer <- [%SP+8]
	movt	r9, :upper16:.L_MergedGlobals.11
	mov	r10, r0
.Ltmp91:
	@DEBUG_VALUE: processFft:inPointer <- %R10
	ldrb	r0, [r9]
	mov	r8, r1
.Ltmp92:
	@DEBUG_VALUE: processFft:outBuffer <- %R8
	dmb	ish
	tst	r0, #1
	bne	.LBB3_8
.Ltmp93:
@ BB#1:
	@DEBUG_VALUE: processFft:outBuffer <- %R8
	@DEBUG_VALUE: processFft:inPointer <- %R10
	@DEBUG_VALUE: processFft:outPointer <- [%SP+8]
	.loc	5 44 3 is_stmt 0 discriminator 1 @ /root/Bela/projects/NIEMO/dsp/PitchShift.h:44:3
	movw	r4, :lower16:.L_MergedGlobals.11
	movt	r4, :upper16:.L_MergedGlobals.11
	mov	r0, r4
	bl	__cxa_guard_acquire
.Ltmp94:
	cmp	r0, #0
	beq	.LBB3_8
.Ltmp95:
@ BB#2:
	@DEBUG_VALUE: processFft:outBuffer <- %R8
	@DEBUG_VALUE: processFft:inPointer <- %R10
	.loc	5 44 45 discriminator 2 @ /root/Bela/projects/NIEMO/dsp/PitchShift.h:44:45
	movw	r0, :lower16:.L_MergedGlobals
	mov	r5, #0
	movt	r0, :upper16:.L_MergedGlobals
.Ltmp96:
	.loc	13 91 25 is_stmt 1      @ /usr/bin/../lib/gcc/arm-linux-gnueabihf/6.3.0/../../../../include/c++/6.3.0/bits/stl_vector.h:91:25
	str	r5, [r4, #28]
.Ltmp97:
	.loc	5 44 45 discriminator 2 @ /root/Bela/projects/NIEMO/dsp/PitchShift.h:44:45
	ldr	r6, [r0]
.Ltmp98:
	@DEBUG_VALUE: _Vector_base:__n <- %R6
	@DEBUG_VALUE: vector:__n <- %R6
	@DEBUG_VALUE: _M_create_storage:__n <- %R6
	@DEBUG_VALUE: _M_allocate:__n <- %R6
	@DEBUG_VALUE: allocate:__n <- %R6
	@DEBUG_VALUE: allocate:__n <- %R6
	@DEBUG_VALUE: _M_default_initialize:__n <- %R6
	@DEBUG_VALUE: __uninitialized_default_n_a<float *, unsigned int, float>:__n <- %R6
	@DEBUG_VALUE: __uninitialized_default_n<float *, unsigned int>:__n <- %R6
	@DEBUG_VALUE: __uninit_default_n<float *, unsigned int>:__n <- %R6
	@DEBUG_VALUE: fill_n<float *, unsigned int, float>:__n <- %R6
	@DEBUG_VALUE: __fill_n_a<float *, unsigned int, float>:__n <- %R6
	@DEBUG_VALUE: __niter <- %R6
	.loc	13 91 37                @ /usr/bin/../lib/gcc/arm-linux-gnueabihf/6.3.0/../../../../include/c++/6.3.0/bits/stl_vector.h:91:37
	str	r5, [r4, #32]
	.loc	13 91 50 is_stmt 0      @ /usr/bin/../lib/gcc/arm-linux-gnueabihf/6.3.0/../../../../include/c++/6.3.0/bits/stl_vector.h:91:50
	str	r5, [r4, #36]
.Ltmp99:
	.loc	13 170 9 is_stmt 1      @ /usr/bin/../lib/gcc/arm-linux-gnueabihf/6.3.0/../../../../include/c++/6.3.0/bits/stl_vector.h:170:9
	cmp	r6, #0
	beq	.LBB3_6
.Ltmp100:
@ BB#3:
	@DEBUG_VALUE: __niter <- %R6
	@DEBUG_VALUE: __fill_n_a<float *, unsigned int, float>:__n <- %R6
	@DEBUG_VALUE: fill_n<float *, unsigned int, float>:__n <- %R6
	@DEBUG_VALUE: __uninit_default_n<float *, unsigned int>:__n <- %R6
	@DEBUG_VALUE: __uninitialized_default_n<float *, unsigned int>:__n <- %R6
	@DEBUG_VALUE: __uninitialized_default_n_a<float *, unsigned int, float>:__n <- %R6
	@DEBUG_VALUE: _M_default_initialize:__n <- %R6
	@DEBUG_VALUE: allocate:__n <- %R6
	@DEBUG_VALUE: allocate:__n <- %R6
	@DEBUG_VALUE: _M_allocate:__n <- %R6
	@DEBUG_VALUE: _M_create_storage:__n <- %R6
	@DEBUG_VALUE: vector:__n <- %R6
	@DEBUG_VALUE: _Vector_base:__n <- %R6
	@DEBUG_VALUE: processFft:outBuffer <- %R8
	@DEBUG_VALUE: processFft:inPointer <- %R10
	.loc	9 101 6                 @ /usr/bin/../lib/gcc/arm-linux-gnueabihf/6.3.0/../../../../include/c++/6.3.0/ext/new_allocator.h:101:6
	cmp	r6, #1073741824
	bhs	.LBB3_96
.Ltmp101:
@ BB#4:                                 @ %.lr.ph.i.i.preheader.i.i.i.i.i
	@DEBUG_VALUE: __niter <- %R6
	@DEBUG_VALUE: __fill_n_a<float *, unsigned int, float>:__n <- %R6
	@DEBUG_VALUE: fill_n<float *, unsigned int, float>:__n <- %R6
	@DEBUG_VALUE: __uninit_default_n<float *, unsigned int>:__n <- %R6
	@DEBUG_VALUE: __uninitialized_default_n<float *, unsigned int>:__n <- %R6
	@DEBUG_VALUE: __uninitialized_default_n_a<float *, unsigned int, float>:__n <- %R6
	@DEBUG_VALUE: _M_default_initialize:__n <- %R6
	@DEBUG_VALUE: allocate:__n <- %R6
	@DEBUG_VALUE: allocate:__n <- %R6
	@DEBUG_VALUE: _M_allocate:__n <- %R6
	@DEBUG_VALUE: _M_create_storage:__n <- %R6
	@DEBUG_VALUE: vector:__n <- %R6
	@DEBUG_VALUE: _Vector_base:__n <- %R6
	@DEBUG_VALUE: processFft:outBuffer <- %R8
	@DEBUG_VALUE: processFft:inPointer <- %R10
	.loc	9 104 46                @ /usr/bin/../lib/gcc/arm-linux-gnueabihf/6.3.0/../../../../include/c++/6.3.0/ext/new_allocator.h:104:46
	lsl	r7, r6, #2
	.loc	9 104 27 is_stmt 0      @ /usr/bin/../lib/gcc/arm-linux-gnueabihf/6.3.0/../../../../include/c++/6.3.0/ext/new_allocator.h:104:27
.Ltmp35:
	mov	r0, r7
	bl	_Znwj
.Ltmp36:
.Ltmp102:
@ BB#5:                                 @ %.noexc119
	@DEBUG_VALUE: __niter <- %R6
	@DEBUG_VALUE: __fill_n_a<float *, unsigned int, float>:__n <- %R6
	@DEBUG_VALUE: fill_n<float *, unsigned int, float>:__n <- %R6
	@DEBUG_VALUE: __uninit_default_n<float *, unsigned int>:__n <- %R6
	@DEBUG_VALUE: __uninitialized_default_n<float *, unsigned int>:__n <- %R6
	@DEBUG_VALUE: __uninitialized_default_n_a<float *, unsigned int, float>:__n <- %R6
	@DEBUG_VALUE: _M_default_initialize:__n <- %R6
	@DEBUG_VALUE: allocate:__n <- %R6
	@DEBUG_VALUE: allocate:__n <- %R6
	@DEBUG_VALUE: _M_allocate:__n <- %R6
	@DEBUG_VALUE: _M_create_storage:__n <- %R6
	@DEBUG_VALUE: vector:__n <- %R6
	@DEBUG_VALUE: _Vector_base:__n <- %R6
	@DEBUG_VALUE: processFft:outBuffer <- %R8
	@DEBUG_VALUE: processFft:inPointer <- %R10
	@DEBUG_VALUE: __fill_n_a<float *, unsigned int, float>:__first <- %R0
	@DEBUG_VALUE: fill_n<float *, unsigned int, float>:__first <- %R0
	@DEBUG_VALUE: __uninit_default_n<float *, unsigned int>:__first <- %R0
	@DEBUG_VALUE: __uninitialized_default_n<float *, unsigned int>:__first <- %R0
	@DEBUG_VALUE: __uninitialized_default_n_a<float *, unsigned int, float>:__first <- %R0
	.file	66 "/usr/bin/../lib/gcc/arm-linux-gnueabihf/6.3.0/../../../../include/c++/6.3.0/bits" "stl_algobase.h"
	.loc	66 754 11 is_stmt 1     @ /usr/bin/../lib/gcc/arm-linux-gnueabihf/6.3.0/../../../../include/c++/6.3.0/bits/stl_algobase.h:754:11
	mov	r1, #0
	mov	r2, r7
.Ltmp103:
	.loc	13 185 25               @ /usr/bin/../lib/gcc/arm-linux-gnueabihf/6.3.0/../../../../include/c++/6.3.0/bits/stl_vector.h:185:25
	str	r0, [r4, #28]
	.loc	13 187 59               @ /usr/bin/../lib/gcc/arm-linux-gnueabihf/6.3.0/../../../../include/c++/6.3.0/bits/stl_vector.h:187:59
	add	r5, r0, r6, lsl #2
	.loc	13 186 26               @ /usr/bin/../lib/gcc/arm-linux-gnueabihf/6.3.0/../../../../include/c++/6.3.0/bits/stl_vector.h:186:26
	str	r0, [r4, #32]
	.loc	13 187 34               @ /usr/bin/../lib/gcc/arm-linux-gnueabihf/6.3.0/../../../../include/c++/6.3.0/bits/stl_vector.h:187:34
	str	r5, [r4, #36]
.Ltmp104:
	.loc	66 754 11               @ /usr/bin/../lib/gcc/arm-linux-gnueabihf/6.3.0/../../../../include/c++/6.3.0/bits/stl_algobase.h:754:11
	bl	memset
.Ltmp105:
	@DEBUG_VALUE: __uninitialized_default_n<float *, unsigned int>:__assignable <- 1
	b	.LBB3_7
.Ltmp106:
.LBB3_6:                                @ %_ZNSt12_Vector_baseIfSaIfEEC2EjRKS0_.exit.thread.i
	@DEBUG_VALUE: __niter <- %R6
	@DEBUG_VALUE: __fill_n_a<float *, unsigned int, float>:__n <- %R6
	@DEBUG_VALUE: fill_n<float *, unsigned int, float>:__n <- %R6
	@DEBUG_VALUE: __uninit_default_n<float *, unsigned int>:__n <- %R6
	@DEBUG_VALUE: __uninitialized_default_n<float *, unsigned int>:__n <- %R6
	@DEBUG_VALUE: __uninitialized_default_n_a<float *, unsigned int, float>:__n <- %R6
	@DEBUG_VALUE: _M_default_initialize:__n <- %R6
	@DEBUG_VALUE: allocate:__n <- %R6
	@DEBUG_VALUE: allocate:__n <- %R6
	@DEBUG_VALUE: _M_allocate:__n <- %R6
	@DEBUG_VALUE: _M_create_storage:__n <- %R6
	@DEBUG_VALUE: vector:__n <- %R6
	@DEBUG_VALUE: _Vector_base:__n <- %R6
	@DEBUG_VALUE: processFft:outBuffer <- %R8
	@DEBUG_VALUE: processFft:inPointer <- %R10
	@DEBUG_VALUE: __uninitialized_default_n<float *, unsigned int>:__assignable <- 1
	.loc	13 185 25               @ /usr/bin/../lib/gcc/arm-linux-gnueabihf/6.3.0/../../../../include/c++/6.3.0/bits/stl_vector.h:185:25
	str	r5, [r4, #28]
	.loc	13 186 26               @ /usr/bin/../lib/gcc/arm-linux-gnueabihf/6.3.0/../../../../include/c++/6.3.0/bits/stl_vector.h:186:26
	str	r5, [r4, #32]
	.loc	13 187 34               @ /usr/bin/../lib/gcc/arm-linux-gnueabihf/6.3.0/../../../../include/c++/6.3.0/bits/stl_vector.h:187:34
	str	r5, [r4, #36]
.Ltmp107:
.LBB3_7:
	@DEBUG_VALUE: __niter <- %R6
	@DEBUG_VALUE: __fill_n_a<float *, unsigned int, float>:__n <- %R6
	@DEBUG_VALUE: fill_n<float *, unsigned int, float>:__n <- %R6
	@DEBUG_VALUE: __uninit_default_n<float *, unsigned int>:__n <- %R6
	@DEBUG_VALUE: __uninitialized_default_n<float *, unsigned int>:__n <- %R6
	@DEBUG_VALUE: __uninitialized_default_n_a<float *, unsigned int, float>:__n <- %R6
	@DEBUG_VALUE: _M_default_initialize:__n <- %R6
	@DEBUG_VALUE: allocate:__n <- %R6
	@DEBUG_VALUE: allocate:__n <- %R6
	@DEBUG_VALUE: _M_allocate:__n <- %R6
	@DEBUG_VALUE: _M_create_storage:__n <- %R6
	@DEBUG_VALUE: vector:__n <- %R6
	@DEBUG_VALUE: _Vector_base:__n <- %R6
	@DEBUG_VALUE: processFft:outBuffer <- %R8
	@DEBUG_VALUE: processFft:inPointer <- %R10
	.loc	5 44 3 discriminator 8  @ /root/Bela/projects/NIEMO/dsp/PitchShift.h:44:3
	movw	r0, :lower16:_ZNSt6vectorIfSaIfEED2Ev
	movw	r2, :lower16:__dso_handle
.Ltmp108:
	.loc	13 1308 26              @ /usr/bin/../lib/gcc/arm-linux-gnueabihf/6.3.0/../../../../include/c++/6.3.0/bits/stl_vector.h:1308:26
	add	r1, r4, #28
.Ltmp109:
	@DEBUG_VALUE: _M_default_initialize:this <- %R1
	.loc	5 44 3 discriminator 8  @ /root/Bela/projects/NIEMO/dsp/PitchShift.h:44:3
	movt	r0, :upper16:_ZNSt6vectorIfSaIfEED2Ev
	movt	r2, :upper16:__dso_handle
.Ltmp110:
	.loc	13 1308 26              @ /usr/bin/../lib/gcc/arm-linux-gnueabihf/6.3.0/../../../../include/c++/6.3.0/bits/stl_vector.h:1308:26
	str	r5, [r4, #32]
.Ltmp111:
	.loc	5 44 3 discriminator 8  @ /root/Bela/projects/NIEMO/dsp/PitchShift.h:44:3
	bl	__cxa_atexit
.Ltmp112:
	.loc	5 44 3 is_stmt 0 discriminator 9 @ /root/Bela/projects/NIEMO/dsp/PitchShift.h:44:3
	mov	r0, r4
	bl	__cxa_guard_release
.Ltmp113:
.LBB3_8:
	@DEBUG_VALUE: processFft:outBuffer <- %R8
	@DEBUG_VALUE: processFft:inPointer <- %R10
	.loc	5 45 2 is_stmt 1        @ /root/Bela/projects/NIEMO/dsp/PitchShift.h:45:2
	ldrb	r0, [r9, #4]
	dmb	ish
	tst	r0, #1
	bne	.LBB3_16
.Ltmp114:
@ BB#9:
	@DEBUG_VALUE: processFft:outBuffer <- %R8
	@DEBUG_VALUE: processFft:inPointer <- %R10
	.loc	5 45 2 is_stmt 0 discriminator 1 @ /root/Bela/projects/NIEMO/dsp/PitchShift.h:45:2
	add	r4, r9, #4
	mov	r0, r4
	bl	__cxa_guard_acquire
	cmp	r0, #0
	beq	.LBB3_16
.Ltmp115:
@ BB#10:
	@DEBUG_VALUE: processFft:outBuffer <- %R8
	@DEBUG_VALUE: processFft:inPointer <- %R10
	.loc	5 45 44 discriminator 2 @ /root/Bela/projects/NIEMO/dsp/PitchShift.h:45:44
	movw	r0, :lower16:.L_MergedGlobals
	mov	r5, #0
	movt	r0, :upper16:.L_MergedGlobals
.Ltmp116:
	.loc	13 91 25 is_stmt 1      @ /usr/bin/../lib/gcc/arm-linux-gnueabihf/6.3.0/../../../../include/c++/6.3.0/bits/stl_vector.h:91:25
	str	r5, [r9, #40]
.Ltmp117:
	.loc	5 45 44 discriminator 2 @ /root/Bela/projects/NIEMO/dsp/PitchShift.h:45:44
	ldr	r6, [r0]
.Ltmp118:
	@DEBUG_VALUE: _Vector_base:__n <- %R6
	@DEBUG_VALUE: vector:__n <- %R6
	@DEBUG_VALUE: _M_create_storage:__n <- %R6
	@DEBUG_VALUE: _M_allocate:__n <- %R6
	@DEBUG_VALUE: allocate:__n <- %R6
	@DEBUG_VALUE: allocate:__n <- %R6
	@DEBUG_VALUE: _M_default_initialize:__n <- %R6
	@DEBUG_VALUE: __uninitialized_default_n_a<float *, unsigned int, float>:__n <- %R6
	@DEBUG_VALUE: __uninitialized_default_n<float *, unsigned int>:__n <- %R6
	@DEBUG_VALUE: __uninit_default_n<float *, unsigned int>:__n <- %R6
	@DEBUG_VALUE: fill_n<float *, unsigned int, float>:__n <- %R6
	@DEBUG_VALUE: __fill_n_a<float *, unsigned int, float>:__n <- %R6
	@DEBUG_VALUE: __niter <- %R6
	.loc	13 91 37                @ /usr/bin/../lib/gcc/arm-linux-gnueabihf/6.3.0/../../../../include/c++/6.3.0/bits/stl_vector.h:91:37
	str	r5, [r9, #44]
	.loc	13 91 50 is_stmt 0      @ /usr/bin/../lib/gcc/arm-linux-gnueabihf/6.3.0/../../../../include/c++/6.3.0/bits/stl_vector.h:91:50
	str	r5, [r9, #48]
.Ltmp119:
	.loc	13 170 9 is_stmt 1      @ /usr/bin/../lib/gcc/arm-linux-gnueabihf/6.3.0/../../../../include/c++/6.3.0/bits/stl_vector.h:170:9
	cmp	r6, #0
	beq	.LBB3_14
.Ltmp120:
@ BB#11:
	@DEBUG_VALUE: __niter <- %R6
	@DEBUG_VALUE: __fill_n_a<float *, unsigned int, float>:__n <- %R6
	@DEBUG_VALUE: fill_n<float *, unsigned int, float>:__n <- %R6
	@DEBUG_VALUE: __uninit_default_n<float *, unsigned int>:__n <- %R6
	@DEBUG_VALUE: __uninitialized_default_n<float *, unsigned int>:__n <- %R6
	@DEBUG_VALUE: __uninitialized_default_n_a<float *, unsigned int, float>:__n <- %R6
	@DEBUG_VALUE: _M_default_initialize:__n <- %R6
	@DEBUG_VALUE: allocate:__n <- %R6
	@DEBUG_VALUE: allocate:__n <- %R6
	@DEBUG_VALUE: _M_allocate:__n <- %R6
	@DEBUG_VALUE: _M_create_storage:__n <- %R6
	@DEBUG_VALUE: vector:__n <- %R6
	@DEBUG_VALUE: _Vector_base:__n <- %R6
	@DEBUG_VALUE: processFft:outBuffer <- %R8
	@DEBUG_VALUE: processFft:inPointer <- %R10
	.loc	9 101 6                 @ /usr/bin/../lib/gcc/arm-linux-gnueabihf/6.3.0/../../../../include/c++/6.3.0/ext/new_allocator.h:101:6
	cmp	r6, #1073741824
	bhs	.LBB3_98
.Ltmp121:
@ BB#12:                                @ %.lr.ph.i.i.preheader.i.i.i.i.i122
	@DEBUG_VALUE: __niter <- %R6
	@DEBUG_VALUE: __fill_n_a<float *, unsigned int, float>:__n <- %R6
	@DEBUG_VALUE: fill_n<float *, unsigned int, float>:__n <- %R6
	@DEBUG_VALUE: __uninit_default_n<float *, unsigned int>:__n <- %R6
	@DEBUG_VALUE: __uninitialized_default_n<float *, unsigned int>:__n <- %R6
	@DEBUG_VALUE: __uninitialized_default_n_a<float *, unsigned int, float>:__n <- %R6
	@DEBUG_VALUE: _M_default_initialize:__n <- %R6
	@DEBUG_VALUE: allocate:__n <- %R6
	@DEBUG_VALUE: allocate:__n <- %R6
	@DEBUG_VALUE: _M_allocate:__n <- %R6
	@DEBUG_VALUE: _M_create_storage:__n <- %R6
	@DEBUG_VALUE: vector:__n <- %R6
	@DEBUG_VALUE: _Vector_base:__n <- %R6
	@DEBUG_VALUE: processFft:outBuffer <- %R8
	@DEBUG_VALUE: processFft:inPointer <- %R10
	.loc	9 104 46                @ /usr/bin/../lib/gcc/arm-linux-gnueabihf/6.3.0/../../../../include/c++/6.3.0/ext/new_allocator.h:104:46
	lsl	r7, r6, #2
	.loc	9 104 27 is_stmt 0      @ /usr/bin/../lib/gcc/arm-linux-gnueabihf/6.3.0/../../../../include/c++/6.3.0/ext/new_allocator.h:104:27
.Ltmp40:
	mov	r0, r7
	bl	_Znwj
.Ltmp41:
.Ltmp122:
@ BB#13:                                @ %.noexc125
	@DEBUG_VALUE: __niter <- %R6
	@DEBUG_VALUE: __fill_n_a<float *, unsigned int, float>:__n <- %R6
	@DEBUG_VALUE: fill_n<float *, unsigned int, float>:__n <- %R6
	@DEBUG_VALUE: __uninit_default_n<float *, unsigned int>:__n <- %R6
	@DEBUG_VALUE: __uninitialized_default_n<float *, unsigned int>:__n <- %R6
	@DEBUG_VALUE: __uninitialized_default_n_a<float *, unsigned int, float>:__n <- %R6
	@DEBUG_VALUE: _M_default_initialize:__n <- %R6
	@DEBUG_VALUE: allocate:__n <- %R6
	@DEBUG_VALUE: allocate:__n <- %R6
	@DEBUG_VALUE: _M_allocate:__n <- %R6
	@DEBUG_VALUE: _M_create_storage:__n <- %R6
	@DEBUG_VALUE: vector:__n <- %R6
	@DEBUG_VALUE: _Vector_base:__n <- %R6
	@DEBUG_VALUE: processFft:outBuffer <- %R8
	@DEBUG_VALUE: processFft:inPointer <- %R10
	@DEBUG_VALUE: __fill_n_a<float *, unsigned int, float>:__first <- %R0
	@DEBUG_VALUE: fill_n<float *, unsigned int, float>:__first <- %R0
	@DEBUG_VALUE: __uninit_default_n<float *, unsigned int>:__first <- %R0
	@DEBUG_VALUE: __uninitialized_default_n<float *, unsigned int>:__first <- %R0
	@DEBUG_VALUE: __uninitialized_default_n_a<float *, unsigned int, float>:__first <- %R0
	.loc	66 754 11 is_stmt 1     @ /usr/bin/../lib/gcc/arm-linux-gnueabihf/6.3.0/../../../../include/c++/6.3.0/bits/stl_algobase.h:754:11
	mov	r1, #0
	mov	r2, r7
.Ltmp123:
	.loc	13 185 25               @ /usr/bin/../lib/gcc/arm-linux-gnueabihf/6.3.0/../../../../include/c++/6.3.0/bits/stl_vector.h:185:25
	str	r0, [r9, #40]
	.loc	13 187 59               @ /usr/bin/../lib/gcc/arm-linux-gnueabihf/6.3.0/../../../../include/c++/6.3.0/bits/stl_vector.h:187:59
	add	r5, r0, r6, lsl #2
	.loc	13 186 26               @ /usr/bin/../lib/gcc/arm-linux-gnueabihf/6.3.0/../../../../include/c++/6.3.0/bits/stl_vector.h:186:26
	str	r0, [r9, #44]
	.loc	13 187 34               @ /usr/bin/../lib/gcc/arm-linux-gnueabihf/6.3.0/../../../../include/c++/6.3.0/bits/stl_vector.h:187:34
	str	r5, [r9, #48]
.Ltmp124:
	.loc	66 754 11               @ /usr/bin/../lib/gcc/arm-linux-gnueabihf/6.3.0/../../../../include/c++/6.3.0/bits/stl_algobase.h:754:11
	bl	memset
.Ltmp125:
	@DEBUG_VALUE: __uninitialized_default_n<float *, unsigned int>:__assignable <- 1
	b	.LBB3_15
.Ltmp126:
.LBB3_14:                               @ %_ZNSt12_Vector_baseIfSaIfEEC2EjRKS0_.exit.thread.i120
	@DEBUG_VALUE: __niter <- %R6
	@DEBUG_VALUE: __fill_n_a<float *, unsigned int, float>:__n <- %R6
	@DEBUG_VALUE: fill_n<float *, unsigned int, float>:__n <- %R6
	@DEBUG_VALUE: __uninit_default_n<float *, unsigned int>:__n <- %R6
	@DEBUG_VALUE: __uninitialized_default_n<float *, unsigned int>:__n <- %R6
	@DEBUG_VALUE: __uninitialized_default_n_a<float *, unsigned int, float>:__n <- %R6
	@DEBUG_VALUE: _M_default_initialize:__n <- %R6
	@DEBUG_VALUE: allocate:__n <- %R6
	@DEBUG_VALUE: allocate:__n <- %R6
	@DEBUG_VALUE: _M_allocate:__n <- %R6
	@DEBUG_VALUE: _M_create_storage:__n <- %R6
	@DEBUG_VALUE: vector:__n <- %R6
	@DEBUG_VALUE: _Vector_base:__n <- %R6
	@DEBUG_VALUE: processFft:outBuffer <- %R8
	@DEBUG_VALUE: processFft:inPointer <- %R10
	@DEBUG_VALUE: __uninitialized_default_n<float *, unsigned int>:__assignable <- 1
	.loc	13 185 25               @ /usr/bin/../lib/gcc/arm-linux-gnueabihf/6.3.0/../../../../include/c++/6.3.0/bits/stl_vector.h:185:25
	str	r5, [r9, #40]
	.loc	13 186 26               @ /usr/bin/../lib/gcc/arm-linux-gnueabihf/6.3.0/../../../../include/c++/6.3.0/bits/stl_vector.h:186:26
	str	r5, [r9, #44]
	.loc	13 187 34               @ /usr/bin/../lib/gcc/arm-linux-gnueabihf/6.3.0/../../../../include/c++/6.3.0/bits/stl_vector.h:187:34
	str	r5, [r9, #48]
.Ltmp127:
.LBB3_15:
	@DEBUG_VALUE: __niter <- %R6
	@DEBUG_VALUE: __fill_n_a<float *, unsigned int, float>:__n <- %R6
	@DEBUG_VALUE: fill_n<float *, unsigned int, float>:__n <- %R6
	@DEBUG_VALUE: __uninit_default_n<float *, unsigned int>:__n <- %R6
	@DEBUG_VALUE: __uninitialized_default_n<float *, unsigned int>:__n <- %R6
	@DEBUG_VALUE: __uninitialized_default_n_a<float *, unsigned int, float>:__n <- %R6
	@DEBUG_VALUE: _M_default_initialize:__n <- %R6
	@DEBUG_VALUE: allocate:__n <- %R6
	@DEBUG_VALUE: allocate:__n <- %R6
	@DEBUG_VALUE: _M_allocate:__n <- %R6
	@DEBUG_VALUE: _M_create_storage:__n <- %R6
	@DEBUG_VALUE: vector:__n <- %R6
	@DEBUG_VALUE: _Vector_base:__n <- %R6
	@DEBUG_VALUE: processFft:outBuffer <- %R8
	@DEBUG_VALUE: processFft:inPointer <- %R10
	.loc	5 45 2 discriminator 7  @ /root/Bela/projects/NIEMO/dsp/PitchShift.h:45:2
	movw	r0, :lower16:_ZNSt6vectorIfSaIfEED2Ev
	movw	r2, :lower16:__dso_handle
.Ltmp128:
	.loc	13 1308 26              @ /usr/bin/../lib/gcc/arm-linux-gnueabihf/6.3.0/../../../../include/c++/6.3.0/bits/stl_vector.h:1308:26
	add	r1, r9, #40
.Ltmp129:
	@DEBUG_VALUE: _M_default_initialize:this <- %R1
	.loc	5 45 2 discriminator 7  @ /root/Bela/projects/NIEMO/dsp/PitchShift.h:45:2
	movt	r0, :upper16:_ZNSt6vectorIfSaIfEED2Ev
	movt	r2, :upper16:__dso_handle
.Ltmp130:
	.loc	13 1308 26              @ /usr/bin/../lib/gcc/arm-linux-gnueabihf/6.3.0/../../../../include/c++/6.3.0/bits/stl_vector.h:1308:26
	str	r5, [r9, #44]
.Ltmp131:
	.loc	5 45 2 discriminator 7  @ /root/Bela/projects/NIEMO/dsp/PitchShift.h:45:2
	bl	__cxa_atexit
.Ltmp132:
	.loc	5 45 2 is_stmt 0 discriminator 8 @ /root/Bela/projects/NIEMO/dsp/PitchShift.h:45:2
	mov	r0, r4
	bl	__cxa_guard_release
.Ltmp133:
.LBB3_16:
	@DEBUG_VALUE: processFft:outBuffer <- %R8
	@DEBUG_VALUE: processFft:inPointer <- %R10
	.loc	5 46 2 is_stmt 1        @ /root/Bela/projects/NIEMO/dsp/PitchShift.h:46:2
	ldrb	r0, [r9, #8]
	dmb	ish
	tst	r0, #1
	bne	.LBB3_24
.Ltmp134:
@ BB#17:
	@DEBUG_VALUE: processFft:outBuffer <- %R8
	@DEBUG_VALUE: processFft:inPointer <- %R10
	.loc	5 46 2 is_stmt 0 discriminator 1 @ /root/Bela/projects/NIEMO/dsp/PitchShift.h:46:2
	add	r4, r9, #8
	mov	r0, r4
	bl	__cxa_guard_acquire
	cmp	r0, #0
	beq	.LBB3_24
.Ltmp135:
@ BB#18:
	@DEBUG_VALUE: processFft:outBuffer <- %R8
	@DEBUG_VALUE: processFft:inPointer <- %R10
	.loc	5 46 45 discriminator 2 @ /root/Bela/projects/NIEMO/dsp/PitchShift.h:46:45
	movw	r0, :lower16:.L_MergedGlobals
	mov	r5, #0
	movt	r0, :upper16:.L_MergedGlobals
.Ltmp136:
	.loc	13 91 25 is_stmt 1      @ /usr/bin/../lib/gcc/arm-linux-gnueabihf/6.3.0/../../../../include/c++/6.3.0/bits/stl_vector.h:91:25
	str	r5, [r9, #52]
.Ltmp137:
	.loc	5 46 45 discriminator 2 @ /root/Bela/projects/NIEMO/dsp/PitchShift.h:46:45
	ldr	r6, [r0]
.Ltmp138:
	@DEBUG_VALUE: _Vector_base:__n <- %R6
	@DEBUG_VALUE: vector:__n <- %R6
	@DEBUG_VALUE: _M_create_storage:__n <- %R6
	@DEBUG_VALUE: _M_allocate:__n <- %R6
	@DEBUG_VALUE: allocate:__n <- %R6
	@DEBUG_VALUE: allocate:__n <- %R6
	@DEBUG_VALUE: _M_default_initialize:__n <- %R6
	@DEBUG_VALUE: __uninitialized_default_n_a<float *, unsigned int, float>:__n <- %R6
	@DEBUG_VALUE: __uninitialized_default_n<float *, unsigned int>:__n <- %R6
	@DEBUG_VALUE: __uninit_default_n<float *, unsigned int>:__n <- %R6
	@DEBUG_VALUE: fill_n<float *, unsigned int, float>:__n <- %R6
	@DEBUG_VALUE: __fill_n_a<float *, unsigned int, float>:__n <- %R6
	@DEBUG_VALUE: __niter <- %R6
	.loc	13 91 37                @ /usr/bin/../lib/gcc/arm-linux-gnueabihf/6.3.0/../../../../include/c++/6.3.0/bits/stl_vector.h:91:37
	str	r5, [r9, #56]
	.loc	13 91 50 is_stmt 0      @ /usr/bin/../lib/gcc/arm-linux-gnueabihf/6.3.0/../../../../include/c++/6.3.0/bits/stl_vector.h:91:50
	str	r5, [r9, #60]
.Ltmp139:
	.loc	13 170 9 is_stmt 1      @ /usr/bin/../lib/gcc/arm-linux-gnueabihf/6.3.0/../../../../include/c++/6.3.0/bits/stl_vector.h:170:9
	cmp	r6, #0
	beq	.LBB3_22
.Ltmp140:
@ BB#19:
	@DEBUG_VALUE: __niter <- %R6
	@DEBUG_VALUE: __fill_n_a<float *, unsigned int, float>:__n <- %R6
	@DEBUG_VALUE: fill_n<float *, unsigned int, float>:__n <- %R6
	@DEBUG_VALUE: __uninit_default_n<float *, unsigned int>:__n <- %R6
	@DEBUG_VALUE: __uninitialized_default_n<float *, unsigned int>:__n <- %R6
	@DEBUG_VALUE: __uninitialized_default_n_a<float *, unsigned int, float>:__n <- %R6
	@DEBUG_VALUE: _M_default_initialize:__n <- %R6
	@DEBUG_VALUE: allocate:__n <- %R6
	@DEBUG_VALUE: allocate:__n <- %R6
	@DEBUG_VALUE: _M_allocate:__n <- %R6
	@DEBUG_VALUE: _M_create_storage:__n <- %R6
	@DEBUG_VALUE: vector:__n <- %R6
	@DEBUG_VALUE: _Vector_base:__n <- %R6
	@DEBUG_VALUE: processFft:outBuffer <- %R8
	@DEBUG_VALUE: processFft:inPointer <- %R10
	.loc	9 101 6                 @ /usr/bin/../lib/gcc/arm-linux-gnueabihf/6.3.0/../../../../include/c++/6.3.0/ext/new_allocator.h:101:6
	cmp	r6, #1073741824
	bhs	.LBB3_101
.Ltmp141:
@ BB#20:                                @ %.lr.ph.i.i.preheader.i.i.i.i.i130
	@DEBUG_VALUE: __niter <- %R6
	@DEBUG_VALUE: __fill_n_a<float *, unsigned int, float>:__n <- %R6
	@DEBUG_VALUE: fill_n<float *, unsigned int, float>:__n <- %R6
	@DEBUG_VALUE: __uninit_default_n<float *, unsigned int>:__n <- %R6
	@DEBUG_VALUE: __uninitialized_default_n<float *, unsigned int>:__n <- %R6
	@DEBUG_VALUE: __uninitialized_default_n_a<float *, unsigned int, float>:__n <- %R6
	@DEBUG_VALUE: _M_default_initialize:__n <- %R6
	@DEBUG_VALUE: allocate:__n <- %R6
	@DEBUG_VALUE: allocate:__n <- %R6
	@DEBUG_VALUE: _M_allocate:__n <- %R6
	@DEBUG_VALUE: _M_create_storage:__n <- %R6
	@DEBUG_VALUE: vector:__n <- %R6
	@DEBUG_VALUE: _Vector_base:__n <- %R6
	@DEBUG_VALUE: processFft:outBuffer <- %R8
	@DEBUG_VALUE: processFft:inPointer <- %R10
	.loc	9 104 46                @ /usr/bin/../lib/gcc/arm-linux-gnueabihf/6.3.0/../../../../include/c++/6.3.0/ext/new_allocator.h:104:46
	lsl	r7, r6, #2
	.loc	9 104 27 is_stmt 0      @ /usr/bin/../lib/gcc/arm-linux-gnueabihf/6.3.0/../../../../include/c++/6.3.0/ext/new_allocator.h:104:27
.Ltmp45:
	mov	r0, r7
	bl	_Znwj
.Ltmp46:
.Ltmp142:
@ BB#21:                                @ %.noexc133
	@DEBUG_VALUE: __niter <- %R6
	@DEBUG_VALUE: __fill_n_a<float *, unsigned int, float>:__n <- %R6
	@DEBUG_VALUE: fill_n<float *, unsigned int, float>:__n <- %R6
	@DEBUG_VALUE: __uninit_default_n<float *, unsigned int>:__n <- %R6
	@DEBUG_VALUE: __uninitialized_default_n<float *, unsigned int>:__n <- %R6
	@DEBUG_VALUE: __uninitialized_default_n_a<float *, unsigned int, float>:__n <- %R6
	@DEBUG_VALUE: _M_default_initialize:__n <- %R6
	@DEBUG_VALUE: allocate:__n <- %R6
	@DEBUG_VALUE: allocate:__n <- %R6
	@DEBUG_VALUE: _M_allocate:__n <- %R6
	@DEBUG_VALUE: _M_create_storage:__n <- %R6
	@DEBUG_VALUE: vector:__n <- %R6
	@DEBUG_VALUE: _Vector_base:__n <- %R6
	@DEBUG_VALUE: processFft:outBuffer <- %R8
	@DEBUG_VALUE: processFft:inPointer <- %R10
	@DEBUG_VALUE: __fill_n_a<float *, unsigned int, float>:__first <- %R0
	@DEBUG_VALUE: fill_n<float *, unsigned int, float>:__first <- %R0
	@DEBUG_VALUE: __uninit_default_n<float *, unsigned int>:__first <- %R0
	@DEBUG_VALUE: __uninitialized_default_n<float *, unsigned int>:__first <- %R0
	@DEBUG_VALUE: __uninitialized_default_n_a<float *, unsigned int, float>:__first <- %R0
	.loc	66 754 11 is_stmt 1     @ /usr/bin/../lib/gcc/arm-linux-gnueabihf/6.3.0/../../../../include/c++/6.3.0/bits/stl_algobase.h:754:11
	mov	r1, #0
	mov	r2, r7
.Ltmp143:
	.loc	13 185 25               @ /usr/bin/../lib/gcc/arm-linux-gnueabihf/6.3.0/../../../../include/c++/6.3.0/bits/stl_vector.h:185:25
	str	r0, [r9, #52]
	.loc	13 187 59               @ /usr/bin/../lib/gcc/arm-linux-gnueabihf/6.3.0/../../../../include/c++/6.3.0/bits/stl_vector.h:187:59
	add	r5, r0, r6, lsl #2
	.loc	13 186 26               @ /usr/bin/../lib/gcc/arm-linux-gnueabihf/6.3.0/../../../../include/c++/6.3.0/bits/stl_vector.h:186:26
	str	r0, [r9, #56]
	.loc	13 187 34               @ /usr/bin/../lib/gcc/arm-linux-gnueabihf/6.3.0/../../../../include/c++/6.3.0/bits/stl_vector.h:187:34
	str	r5, [r9, #60]
.Ltmp144:
	.loc	66 754 11               @ /usr/bin/../lib/gcc/arm-linux-gnueabihf/6.3.0/../../../../include/c++/6.3.0/bits/stl_algobase.h:754:11
	bl	memset
.Ltmp145:
	@DEBUG_VALUE: __uninitialized_default_n<float *, unsigned int>:__assignable <- 1
	b	.LBB3_23
.Ltmp146:
.LBB3_22:                               @ %_ZNSt12_Vector_baseIfSaIfEEC2EjRKS0_.exit.thread.i128
	@DEBUG_VALUE: __niter <- %R6
	@DEBUG_VALUE: __fill_n_a<float *, unsigned int, float>:__n <- %R6
	@DEBUG_VALUE: fill_n<float *, unsigned int, float>:__n <- %R6
	@DEBUG_VALUE: __uninit_default_n<float *, unsigned int>:__n <- %R6
	@DEBUG_VALUE: __uninitialized_default_n<float *, unsigned int>:__n <- %R6
	@DEBUG_VALUE: __uninitialized_default_n_a<float *, unsigned int, float>:__n <- %R6
	@DEBUG_VALUE: _M_default_initialize:__n <- %R6
	@DEBUG_VALUE: allocate:__n <- %R6
	@DEBUG_VALUE: allocate:__n <- %R6
	@DEBUG_VALUE: _M_allocate:__n <- %R6
	@DEBUG_VALUE: _M_create_storage:__n <- %R6
	@DEBUG_VALUE: vector:__n <- %R6
	@DEBUG_VALUE: _Vector_base:__n <- %R6
	@DEBUG_VALUE: processFft:outBuffer <- %R8
	@DEBUG_VALUE: processFft:inPointer <- %R10
	@DEBUG_VALUE: __uninitialized_default_n<float *, unsigned int>:__assignable <- 1
	.loc	13 185 25               @ /usr/bin/../lib/gcc/arm-linux-gnueabihf/6.3.0/../../../../include/c++/6.3.0/bits/stl_vector.h:185:25
	str	r5, [r9, #52]
	.loc	13 186 26               @ /usr/bin/../lib/gcc/arm-linux-gnueabihf/6.3.0/../../../../include/c++/6.3.0/bits/stl_vector.h:186:26
	str	r5, [r9, #56]
	.loc	13 187 34               @ /usr/bin/../lib/gcc/arm-linux-gnueabihf/6.3.0/../../../../include/c++/6.3.0/bits/stl_vector.h:187:34
	str	r5, [r9, #60]
.Ltmp147:
.LBB3_23:
	@DEBUG_VALUE: __niter <- %R6
	@DEBUG_VALUE: __fill_n_a<float *, unsigned int, float>:__n <- %R6
	@DEBUG_VALUE: fill_n<float *, unsigned int, float>:__n <- %R6
	@DEBUG_VALUE: __uninit_default_n<float *, unsigned int>:__n <- %R6
	@DEBUG_VALUE: __uninitialized_default_n<float *, unsigned int>:__n <- %R6
	@DEBUG_VALUE: __uninitialized_default_n_a<float *, unsigned int, float>:__n <- %R6
	@DEBUG_VALUE: _M_default_initialize:__n <- %R6
	@DEBUG_VALUE: allocate:__n <- %R6
	@DEBUG_VALUE: allocate:__n <- %R6
	@DEBUG_VALUE: _M_allocate:__n <- %R6
	@DEBUG_VALUE: _M_create_storage:__n <- %R6
	@DEBUG_VALUE: vector:__n <- %R6
	@DEBUG_VALUE: _Vector_base:__n <- %R6
	@DEBUG_VALUE: processFft:outBuffer <- %R8
	@DEBUG_VALUE: processFft:inPointer <- %R10
	.loc	5 46 2 discriminator 7  @ /root/Bela/projects/NIEMO/dsp/PitchShift.h:46:2
	movw	r0, :lower16:_ZNSt6vectorIfSaIfEED2Ev
	movw	r2, :lower16:__dso_handle
.Ltmp148:
	.loc	13 1308 26              @ /usr/bin/../lib/gcc/arm-linux-gnueabihf/6.3.0/../../../../include/c++/6.3.0/bits/stl_vector.h:1308:26
	add	r1, r9, #52
.Ltmp149:
	@DEBUG_VALUE: _M_default_initialize:this <- %R1
	.loc	5 46 2 discriminator 7  @ /root/Bela/projects/NIEMO/dsp/PitchShift.h:46:2
	movt	r0, :upper16:_ZNSt6vectorIfSaIfEED2Ev
	movt	r2, :upper16:__dso_handle
.Ltmp150:
	.loc	13 1308 26              @ /usr/bin/../lib/gcc/arm-linux-gnueabihf/6.3.0/../../../../include/c++/6.3.0/bits/stl_vector.h:1308:26
	str	r5, [r9, #56]
.Ltmp151:
	.loc	5 46 2 discriminator 7  @ /root/Bela/projects/NIEMO/dsp/PitchShift.h:46:2
	bl	__cxa_atexit
.Ltmp152:
	.loc	5 46 2 is_stmt 0 discriminator 8 @ /root/Bela/projects/NIEMO/dsp/PitchShift.h:46:2
	mov	r0, r4
	bl	__cxa_guard_release
.Ltmp153:
.LBB3_24:
	@DEBUG_VALUE: processFft:outBuffer <- %R8
	@DEBUG_VALUE: processFft:inPointer <- %R10
	.loc	5 49 2 is_stmt 1        @ /root/Bela/projects/NIEMO/dsp/PitchShift.h:49:2
	ldrb	r0, [r9, #12]
	dmb	ish
	tst	r0, #1
	bne	.LBB3_32
.Ltmp154:
@ BB#25:
	@DEBUG_VALUE: processFft:outBuffer <- %R8
	@DEBUG_VALUE: processFft:inPointer <- %R10
	.loc	5 49 2 is_stmt 0 discriminator 1 @ /root/Bela/projects/NIEMO/dsp/PitchShift.h:49:2
	add	r4, r9, #12
	mov	r0, r4
	bl	__cxa_guard_acquire
	cmp	r0, #0
	beq	.LBB3_32
.Ltmp155:
@ BB#26:
	@DEBUG_VALUE: processFft:outBuffer <- %R8
	@DEBUG_VALUE: processFft:inPointer <- %R10
	@DEBUG_VALUE: vector:__n <- %R6
	@DEBUG_VALUE: _Vector_base:__n <- %R6
	.loc	5 49 47 discriminator 2 @ /root/Bela/projects/NIEMO/dsp/PitchShift.h:49:47
	movw	r0, :lower16:.L_MergedGlobals
	mov	r1, #1
	movt	r0, :upper16:.L_MergedGlobals
	mov	r5, #0
	ldr	r0, [r0]
.Ltmp156:
	.loc	13 91 25 is_stmt 1      @ /usr/bin/../lib/gcc/arm-linux-gnueabihf/6.3.0/../../../../include/c++/6.3.0/bits/stl_vector.h:91:25
	str	r5, [r9, #64]
	.loc	13 91 37 is_stmt 0      @ /usr/bin/../lib/gcc/arm-linux-gnueabihf/6.3.0/../../../../include/c++/6.3.0/bits/stl_vector.h:91:37
	str	r5, [r9, #68]
.Ltmp157:
	.loc	5 49 56 is_stmt 1 discriminator 2 @ /root/Bela/projects/NIEMO/dsp/PitchShift.h:49:56
	add	r0, r0, r0, lsr #31
.Ltmp158:
	.loc	13 91 50                @ /usr/bin/../lib/gcc/arm-linux-gnueabihf/6.3.0/../../../../include/c++/6.3.0/bits/stl_vector.h:91:50
	str	r5, [r9, #72]
.Ltmp159:
	.loc	5 49 60 discriminator 2 @ /root/Bela/projects/NIEMO/dsp/PitchShift.h:49:60
	add	r6, r1, r0, asr #1
.Ltmp160:
	@DEBUG_VALUE: _M_create_storage:__n <- %R6
	@DEBUG_VALUE: _M_allocate:__n <- %R6
	@DEBUG_VALUE: allocate:__n <- %R6
	@DEBUG_VALUE: allocate:__n <- %R6
	@DEBUG_VALUE: _M_default_initialize:__n <- %R6
	@DEBUG_VALUE: __uninitialized_default_n_a<float *, unsigned int, float>:__n <- %R6
	@DEBUG_VALUE: __uninitialized_default_n<float *, unsigned int>:__n <- %R6
	@DEBUG_VALUE: __uninit_default_n<float *, unsigned int>:__n <- %R6
	@DEBUG_VALUE: fill_n<float *, unsigned int, float>:__n <- %R6
	@DEBUG_VALUE: __fill_n_a<float *, unsigned int, float>:__n <- %R6
	@DEBUG_VALUE: __niter <- %R6
	.loc	13 170 9                @ /usr/bin/../lib/gcc/arm-linux-gnueabihf/6.3.0/../../../../include/c++/6.3.0/bits/stl_vector.h:170:9
	cmp	r6, #0
	beq	.LBB3_30
.Ltmp161:
@ BB#27:
	@DEBUG_VALUE: __niter <- %R6
	@DEBUG_VALUE: __fill_n_a<float *, unsigned int, float>:__n <- %R6
	@DEBUG_VALUE: fill_n<float *, unsigned int, float>:__n <- %R6
	@DEBUG_VALUE: __uninit_default_n<float *, unsigned int>:__n <- %R6
	@DEBUG_VALUE: __uninitialized_default_n<float *, unsigned int>:__n <- %R6
	@DEBUG_VALUE: __uninitialized_default_n_a<float *, unsigned int, float>:__n <- %R6
	@DEBUG_VALUE: _M_default_initialize:__n <- %R6
	@DEBUG_VALUE: allocate:__n <- %R6
	@DEBUG_VALUE: allocate:__n <- %R6
	@DEBUG_VALUE: _M_allocate:__n <- %R6
	@DEBUG_VALUE: _M_create_storage:__n <- %R6
	@DEBUG_VALUE: processFft:outBuffer <- %R8
	@DEBUG_VALUE: processFft:inPointer <- %R10
	.loc	9 101 6                 @ /usr/bin/../lib/gcc/arm-linux-gnueabihf/6.3.0/../../../../include/c++/6.3.0/ext/new_allocator.h:101:6
	cmp	r6, #1073741824
	bhs	.LBB3_103
.Ltmp162:
@ BB#28:                                @ %.lr.ph.i.i.preheader.i.i.i.i.i137
	@DEBUG_VALUE: __niter <- %R6
	@DEBUG_VALUE: __fill_n_a<float *, unsigned int, float>:__n <- %R6
	@DEBUG_VALUE: fill_n<float *, unsigned int, float>:__n <- %R6
	@DEBUG_VALUE: __uninit_default_n<float *, unsigned int>:__n <- %R6
	@DEBUG_VALUE: __uninitialized_default_n<float *, unsigned int>:__n <- %R6
	@DEBUG_VALUE: __uninitialized_default_n_a<float *, unsigned int, float>:__n <- %R6
	@DEBUG_VALUE: _M_default_initialize:__n <- %R6
	@DEBUG_VALUE: allocate:__n <- %R6
	@DEBUG_VALUE: allocate:__n <- %R6
	@DEBUG_VALUE: _M_allocate:__n <- %R6
	@DEBUG_VALUE: _M_create_storage:__n <- %R6
	@DEBUG_VALUE: processFft:outBuffer <- %R8
	@DEBUG_VALUE: processFft:inPointer <- %R10
	.loc	9 104 46                @ /usr/bin/../lib/gcc/arm-linux-gnueabihf/6.3.0/../../../../include/c++/6.3.0/ext/new_allocator.h:104:46
	lsl	r7, r6, #2
	.loc	9 104 27 is_stmt 0      @ /usr/bin/../lib/gcc/arm-linux-gnueabihf/6.3.0/../../../../include/c++/6.3.0/ext/new_allocator.h:104:27
.Ltmp50:
	mov	r0, r7
	bl	_Znwj
.Ltmp51:
.Ltmp163:
@ BB#29:                                @ %.noexc140
	@DEBUG_VALUE: __niter <- %R6
	@DEBUG_VALUE: __fill_n_a<float *, unsigned int, float>:__n <- %R6
	@DEBUG_VALUE: fill_n<float *, unsigned int, float>:__n <- %R6
	@DEBUG_VALUE: __uninit_default_n<float *, unsigned int>:__n <- %R6
	@DEBUG_VALUE: __uninitialized_default_n<float *, unsigned int>:__n <- %R6
	@DEBUG_VALUE: __uninitialized_default_n_a<float *, unsigned int, float>:__n <- %R6
	@DEBUG_VALUE: _M_default_initialize:__n <- %R6
	@DEBUG_VALUE: allocate:__n <- %R6
	@DEBUG_VALUE: allocate:__n <- %R6
	@DEBUG_VALUE: _M_allocate:__n <- %R6
	@DEBUG_VALUE: _M_create_storage:__n <- %R6
	@DEBUG_VALUE: processFft:outBuffer <- %R8
	@DEBUG_VALUE: processFft:inPointer <- %R10
	@DEBUG_VALUE: __fill_n_a<float *, unsigned int, float>:__first <- %R0
	@DEBUG_VALUE: fill_n<float *, unsigned int, float>:__first <- %R0
	@DEBUG_VALUE: __uninit_default_n<float *, unsigned int>:__first <- %R0
	@DEBUG_VALUE: __uninitialized_default_n<float *, unsigned int>:__first <- %R0
	@DEBUG_VALUE: __uninitialized_default_n_a<float *, unsigned int, float>:__first <- %R0
	.loc	66 754 11 is_stmt 1     @ /usr/bin/../lib/gcc/arm-linux-gnueabihf/6.3.0/../../../../include/c++/6.3.0/bits/stl_algobase.h:754:11
	mov	r1, #0
	mov	r2, r7
.Ltmp164:
	.loc	13 185 25               @ /usr/bin/../lib/gcc/arm-linux-gnueabihf/6.3.0/../../../../include/c++/6.3.0/bits/stl_vector.h:185:25
	str	r0, [r9, #64]
	.loc	13 187 59               @ /usr/bin/../lib/gcc/arm-linux-gnueabihf/6.3.0/../../../../include/c++/6.3.0/bits/stl_vector.h:187:59
	add	r5, r0, r6, lsl #2
	.loc	13 186 26               @ /usr/bin/../lib/gcc/arm-linux-gnueabihf/6.3.0/../../../../include/c++/6.3.0/bits/stl_vector.h:186:26
	str	r0, [r9, #68]
	.loc	13 187 34               @ /usr/bin/../lib/gcc/arm-linux-gnueabihf/6.3.0/../../../../include/c++/6.3.0/bits/stl_vector.h:187:34
	str	r5, [r9, #72]
.Ltmp165:
	.loc	66 754 11               @ /usr/bin/../lib/gcc/arm-linux-gnueabihf/6.3.0/../../../../include/c++/6.3.0/bits/stl_algobase.h:754:11
	bl	memset
.Ltmp166:
	@DEBUG_VALUE: __uninitialized_default_n<float *, unsigned int>:__assignable <- 1
	b	.LBB3_31
.Ltmp167:
.LBB3_30:                               @ %_ZNSt12_Vector_baseIfSaIfEEC2EjRKS0_.exit.thread.i135
	@DEBUG_VALUE: __niter <- %R6
	@DEBUG_VALUE: __fill_n_a<float *, unsigned int, float>:__n <- %R6
	@DEBUG_VALUE: fill_n<float *, unsigned int, float>:__n <- %R6
	@DEBUG_VALUE: __uninit_default_n<float *, unsigned int>:__n <- %R6
	@DEBUG_VALUE: __uninitialized_default_n<float *, unsigned int>:__n <- %R6
	@DEBUG_VALUE: __uninitialized_default_n_a<float *, unsigned int, float>:__n <- %R6
	@DEBUG_VALUE: _M_default_initialize:__n <- %R6
	@DEBUG_VALUE: allocate:__n <- %R6
	@DEBUG_VALUE: allocate:__n <- %R6
	@DEBUG_VALUE: _M_allocate:__n <- %R6
	@DEBUG_VALUE: _M_create_storage:__n <- %R6
	@DEBUG_VALUE: processFft:outBuffer <- %R8
	@DEBUG_VALUE: processFft:inPointer <- %R10
	@DEBUG_VALUE: __uninitialized_default_n<float *, unsigned int>:__assignable <- 1
	.loc	13 185 25               @ /usr/bin/../lib/gcc/arm-linux-gnueabihf/6.3.0/../../../../include/c++/6.3.0/bits/stl_vector.h:185:25
	str	r5, [r9, #64]
	.loc	13 186 26               @ /usr/bin/../lib/gcc/arm-linux-gnueabihf/6.3.0/../../../../include/c++/6.3.0/bits/stl_vector.h:186:26
	str	r5, [r9, #68]
	.loc	13 187 34               @ /usr/bin/../lib/gcc/arm-linux-gnueabihf/6.3.0/../../../../include/c++/6.3.0/bits/stl_vector.h:187:34
	str	r5, [r9, #72]
.Ltmp168:
.LBB3_31:
	@DEBUG_VALUE: __niter <- %R6
	@DEBUG_VALUE: __fill_n_a<float *, unsigned int, float>:__n <- %R6
	@DEBUG_VALUE: fill_n<float *, unsigned int, float>:__n <- %R6
	@DEBUG_VALUE: __uninit_default_n<float *, unsigned int>:__n <- %R6
	@DEBUG_VALUE: __uninitialized_default_n<float *, unsigned int>:__n <- %R6
	@DEBUG_VALUE: __uninitialized_default_n_a<float *, unsigned int, float>:__n <- %R6
	@DEBUG_VALUE: _M_default_initialize:__n <- %R6
	@DEBUG_VALUE: allocate:__n <- %R6
	@DEBUG_VALUE: allocate:__n <- %R6
	@DEBUG_VALUE: _M_allocate:__n <- %R6
	@DEBUG_VALUE: _M_create_storage:__n <- %R6
	@DEBUG_VALUE: processFft:outBuffer <- %R8
	@DEBUG_VALUE: processFft:inPointer <- %R10
	.loc	5 49 2 discriminator 7  @ /root/Bela/projects/NIEMO/dsp/PitchShift.h:49:2
	movw	r0, :lower16:_ZNSt6vectorIfSaIfEED2Ev
	movw	r2, :lower16:__dso_handle
.Ltmp169:
	.loc	13 1308 26              @ /usr/bin/../lib/gcc/arm-linux-gnueabihf/6.3.0/../../../../include/c++/6.3.0/bits/stl_vector.h:1308:26
	add	r1, r9, #64
.Ltmp170:
	@DEBUG_VALUE: _M_default_initialize:this <- %R1
	.loc	5 49 2 discriminator 7  @ /root/Bela/projects/NIEMO/dsp/PitchShift.h:49:2
	movt	r0, :upper16:_ZNSt6vectorIfSaIfEED2Ev
	movt	r2, :upper16:__dso_handle
.Ltmp171:
	.loc	13 1308 26              @ /usr/bin/../lib/gcc/arm-linux-gnueabihf/6.3.0/../../../../include/c++/6.3.0/bits/stl_vector.h:1308:26
	str	r5, [r9, #68]
.Ltmp172:
	.loc	5 49 2 discriminator 7  @ /root/Bela/projects/NIEMO/dsp/PitchShift.h:49:2
	bl	__cxa_atexit
.Ltmp173:
	.loc	5 49 2 is_stmt 0 discriminator 8 @ /root/Bela/projects/NIEMO/dsp/PitchShift.h:49:2
	mov	r0, r4
	bl	__cxa_guard_release
.Ltmp174:
.LBB3_32:
	@DEBUG_VALUE: processFft:outBuffer <- %R8
	@DEBUG_VALUE: processFft:inPointer <- %R10
	.loc	5 50 2 is_stmt 1        @ /root/Bela/projects/NIEMO/dsp/PitchShift.h:50:2
	ldrb	r0, [r9, #16]
	dmb	ish
	tst	r0, #1
	bne	.LBB3_40
.Ltmp175:
@ BB#33:
	@DEBUG_VALUE: processFft:outBuffer <- %R8
	@DEBUG_VALUE: processFft:inPointer <- %R10
	.loc	5 50 2 is_stmt 0 discriminator 1 @ /root/Bela/projects/NIEMO/dsp/PitchShift.h:50:2
	add	r4, r9, #16
	mov	r0, r4
	bl	__cxa_guard_acquire
	cmp	r0, #0
	beq	.LBB3_40
.Ltmp176:
@ BB#34:
	@DEBUG_VALUE: processFft:outBuffer <- %R8
	@DEBUG_VALUE: processFft:inPointer <- %R10
	@DEBUG_VALUE: vector:__n <- %R6
	@DEBUG_VALUE: _Vector_base:__n <- %R6
	.loc	5 50 48 discriminator 2 @ /root/Bela/projects/NIEMO/dsp/PitchShift.h:50:48
	movw	r0, :lower16:.L_MergedGlobals
	mov	r1, #1
	movt	r0, :upper16:.L_MergedGlobals
	mov	r5, #0
	ldr	r0, [r0]
.Ltmp177:
	.loc	13 91 25 is_stmt 1      @ /usr/bin/../lib/gcc/arm-linux-gnueabihf/6.3.0/../../../../include/c++/6.3.0/bits/stl_vector.h:91:25
	str	r5, [r9, #76]
	.loc	13 91 37 is_stmt 0      @ /usr/bin/../lib/gcc/arm-linux-gnueabihf/6.3.0/../../../../include/c++/6.3.0/bits/stl_vector.h:91:37
	str	r5, [r9, #80]
.Ltmp178:
	.loc	5 50 57 is_stmt 1 discriminator 2 @ /root/Bela/projects/NIEMO/dsp/PitchShift.h:50:57
	add	r0, r0, r0, lsr #31
.Ltmp179:
	.loc	13 91 50                @ /usr/bin/../lib/gcc/arm-linux-gnueabihf/6.3.0/../../../../include/c++/6.3.0/bits/stl_vector.h:91:50
	str	r5, [r9, #84]
.Ltmp180:
	.loc	5 50 61 discriminator 2 @ /root/Bela/projects/NIEMO/dsp/PitchShift.h:50:61
	add	r6, r1, r0, asr #1
.Ltmp181:
	@DEBUG_VALUE: _M_create_storage:__n <- %R6
	@DEBUG_VALUE: _M_allocate:__n <- %R6
	@DEBUG_VALUE: allocate:__n <- %R6
	@DEBUG_VALUE: allocate:__n <- %R6
	@DEBUG_VALUE: _M_default_initialize:__n <- %R6
	@DEBUG_VALUE: __uninitialized_default_n_a<float *, unsigned int, float>:__n <- %R6
	@DEBUG_VALUE: __uninitialized_default_n<float *, unsigned int>:__n <- %R6
	@DEBUG_VALUE: __uninit_default_n<float *, unsigned int>:__n <- %R6
	@DEBUG_VALUE: fill_n<float *, unsigned int, float>:__n <- %R6
	@DEBUG_VALUE: __fill_n_a<float *, unsigned int, float>:__n <- %R6
	@DEBUG_VALUE: __niter <- %R6
	.loc	13 170 9                @ /usr/bin/../lib/gcc/arm-linux-gnueabihf/6.3.0/../../../../include/c++/6.3.0/bits/stl_vector.h:170:9
	cmp	r6, #0
	beq	.LBB3_38
.Ltmp182:
@ BB#35:
	@DEBUG_VALUE: __niter <- %R6
	@DEBUG_VALUE: __fill_n_a<float *, unsigned int, float>:__n <- %R6
	@DEBUG_VALUE: fill_n<float *, unsigned int, float>:__n <- %R6
	@DEBUG_VALUE: __uninit_default_n<float *, unsigned int>:__n <- %R6
	@DEBUG_VALUE: __uninitialized_default_n<float *, unsigned int>:__n <- %R6
	@DEBUG_VALUE: __uninitialized_default_n_a<float *, unsigned int, float>:__n <- %R6
	@DEBUG_VALUE: _M_default_initialize:__n <- %R6
	@DEBUG_VALUE: allocate:__n <- %R6
	@DEBUG_VALUE: allocate:__n <- %R6
	@DEBUG_VALUE: _M_allocate:__n <- %R6
	@DEBUG_VALUE: _M_create_storage:__n <- %R6
	@DEBUG_VALUE: processFft:outBuffer <- %R8
	@DEBUG_VALUE: processFft:inPointer <- %R10
	.loc	9 101 6                 @ /usr/bin/../lib/gcc/arm-linux-gnueabihf/6.3.0/../../../../include/c++/6.3.0/ext/new_allocator.h:101:6
	cmp	r6, #1073741824
	bhs	.LBB3_105
.Ltmp183:
@ BB#36:                                @ %.lr.ph.i.i.preheader.i.i.i.i.i144
	@DEBUG_VALUE: __niter <- %R6
	@DEBUG_VALUE: __fill_n_a<float *, unsigned int, float>:__n <- %R6
	@DEBUG_VALUE: fill_n<float *, unsigned int, float>:__n <- %R6
	@DEBUG_VALUE: __uninit_default_n<float *, unsigned int>:__n <- %R6
	@DEBUG_VALUE: __uninitialized_default_n<float *, unsigned int>:__n <- %R6
	@DEBUG_VALUE: __uninitialized_default_n_a<float *, unsigned int, float>:__n <- %R6
	@DEBUG_VALUE: _M_default_initialize:__n <- %R6
	@DEBUG_VALUE: allocate:__n <- %R6
	@DEBUG_VALUE: allocate:__n <- %R6
	@DEBUG_VALUE: _M_allocate:__n <- %R6
	@DEBUG_VALUE: _M_create_storage:__n <- %R6
	@DEBUG_VALUE: processFft:outBuffer <- %R8
	@DEBUG_VALUE: processFft:inPointer <- %R10
	.loc	9 104 46                @ /usr/bin/../lib/gcc/arm-linux-gnueabihf/6.3.0/../../../../include/c++/6.3.0/ext/new_allocator.h:104:46
	lsl	r7, r6, #2
	.loc	9 104 27 is_stmt 0      @ /usr/bin/../lib/gcc/arm-linux-gnueabihf/6.3.0/../../../../include/c++/6.3.0/ext/new_allocator.h:104:27
.Ltmp55:
	mov	r0, r7
	bl	_Znwj
.Ltmp56:
.Ltmp184:
@ BB#37:                                @ %.noexc147
	@DEBUG_VALUE: __niter <- %R6
	@DEBUG_VALUE: __fill_n_a<float *, unsigned int, float>:__n <- %R6
	@DEBUG_VALUE: fill_n<float *, unsigned int, float>:__n <- %R6
	@DEBUG_VALUE: __uninit_default_n<float *, unsigned int>:__n <- %R6
	@DEBUG_VALUE: __uninitialized_default_n<float *, unsigned int>:__n <- %R6
	@DEBUG_VALUE: __uninitialized_default_n_a<float *, unsigned int, float>:__n <- %R6
	@DEBUG_VALUE: _M_default_initialize:__n <- %R6
	@DEBUG_VALUE: allocate:__n <- %R6
	@DEBUG_VALUE: allocate:__n <- %R6
	@DEBUG_VALUE: _M_allocate:__n <- %R6
	@DEBUG_VALUE: _M_create_storage:__n <- %R6
	@DEBUG_VALUE: processFft:outBuffer <- %R8
	@DEBUG_VALUE: processFft:inPointer <- %R10
	@DEBUG_VALUE: __fill_n_a<float *, unsigned int, float>:__first <- %R0
	@DEBUG_VALUE: fill_n<float *, unsigned int, float>:__first <- %R0
	@DEBUG_VALUE: __uninit_default_n<float *, unsigned int>:__first <- %R0
	@DEBUG_VALUE: __uninitialized_default_n<float *, unsigned int>:__first <- %R0
	@DEBUG_VALUE: __uninitialized_default_n_a<float *, unsigned int, float>:__first <- %R0
	.loc	66 754 11 is_stmt 1     @ /usr/bin/../lib/gcc/arm-linux-gnueabihf/6.3.0/../../../../include/c++/6.3.0/bits/stl_algobase.h:754:11
	mov	r1, #0
	mov	r2, r7
.Ltmp185:
	.loc	13 185 25               @ /usr/bin/../lib/gcc/arm-linux-gnueabihf/6.3.0/../../../../include/c++/6.3.0/bits/stl_vector.h:185:25
	str	r0, [r9, #76]
	.loc	13 187 59               @ /usr/bin/../lib/gcc/arm-linux-gnueabihf/6.3.0/../../../../include/c++/6.3.0/bits/stl_vector.h:187:59
	add	r5, r0, r6, lsl #2
	.loc	13 186 26               @ /usr/bin/../lib/gcc/arm-linux-gnueabihf/6.3.0/../../../../include/c++/6.3.0/bits/stl_vector.h:186:26
	str	r0, [r9, #80]
	.loc	13 187 34               @ /usr/bin/../lib/gcc/arm-linux-gnueabihf/6.3.0/../../../../include/c++/6.3.0/bits/stl_vector.h:187:34
	str	r5, [r9, #84]
.Ltmp186:
	.loc	66 754 11               @ /usr/bin/../lib/gcc/arm-linux-gnueabihf/6.3.0/../../../../include/c++/6.3.0/bits/stl_algobase.h:754:11
	bl	memset
.Ltmp187:
	@DEBUG_VALUE: __uninitialized_default_n<float *, unsigned int>:__assignable <- 1
	b	.LBB3_39
.Ltmp188:
.LBB3_38:                               @ %_ZNSt12_Vector_baseIfSaIfEEC2EjRKS0_.exit.thread.i142
	@DEBUG_VALUE: __niter <- %R6
	@DEBUG_VALUE: __fill_n_a<float *, unsigned int, float>:__n <- %R6
	@DEBUG_VALUE: fill_n<float *, unsigned int, float>:__n <- %R6
	@DEBUG_VALUE: __uninit_default_n<float *, unsigned int>:__n <- %R6
	@DEBUG_VALUE: __uninitialized_default_n<float *, unsigned int>:__n <- %R6
	@DEBUG_VALUE: __uninitialized_default_n_a<float *, unsigned int, float>:__n <- %R6
	@DEBUG_VALUE: _M_default_initialize:__n <- %R6
	@DEBUG_VALUE: allocate:__n <- %R6
	@DEBUG_VALUE: allocate:__n <- %R6
	@DEBUG_VALUE: _M_allocate:__n <- %R6
	@DEBUG_VALUE: _M_create_storage:__n <- %R6
	@DEBUG_VALUE: processFft:outBuffer <- %R8
	@DEBUG_VALUE: processFft:inPointer <- %R10
	@DEBUG_VALUE: __uninitialized_default_n<float *, unsigned int>:__assignable <- 1
	.loc	13 185 25               @ /usr/bin/../lib/gcc/arm-linux-gnueabihf/6.3.0/../../../../include/c++/6.3.0/bits/stl_vector.h:185:25
	str	r5, [r9, #76]
	.loc	13 186 26               @ /usr/bin/../lib/gcc/arm-linux-gnueabihf/6.3.0/../../../../include/c++/6.3.0/bits/stl_vector.h:186:26
	str	r5, [r9, #80]
	.loc	13 187 34               @ /usr/bin/../lib/gcc/arm-linux-gnueabihf/6.3.0/../../../../include/c++/6.3.0/bits/stl_vector.h:187:34
	str	r5, [r9, #84]
.Ltmp189:
.LBB3_39:
	@DEBUG_VALUE: __niter <- %R6
	@DEBUG_VALUE: __fill_n_a<float *, unsigned int, float>:__n <- %R6
	@DEBUG_VALUE: fill_n<float *, unsigned int, float>:__n <- %R6
	@DEBUG_VALUE: __uninit_default_n<float *, unsigned int>:__n <- %R6
	@DEBUG_VALUE: __uninitialized_default_n<float *, unsigned int>:__n <- %R6
	@DEBUG_VALUE: __uninitialized_default_n_a<float *, unsigned int, float>:__n <- %R6
	@DEBUG_VALUE: _M_default_initialize:__n <- %R6
	@DEBUG_VALUE: allocate:__n <- %R6
	@DEBUG_VALUE: allocate:__n <- %R6
	@DEBUG_VALUE: _M_allocate:__n <- %R6
	@DEBUG_VALUE: _M_create_storage:__n <- %R6
	@DEBUG_VALUE: processFft:outBuffer <- %R8
	@DEBUG_VALUE: processFft:inPointer <- %R10
	.loc	5 50 2 discriminator 7  @ /root/Bela/projects/NIEMO/dsp/PitchShift.h:50:2
	movw	r0, :lower16:_ZNSt6vectorIfSaIfEED2Ev
	movw	r2, :lower16:__dso_handle
.Ltmp190:
	.loc	13 1308 26              @ /usr/bin/../lib/gcc/arm-linux-gnueabihf/6.3.0/../../../../include/c++/6.3.0/bits/stl_vector.h:1308:26
	add	r1, r9, #76
.Ltmp191:
	@DEBUG_VALUE: _M_default_initialize:this <- %R1
	.loc	5 50 2 discriminator 7  @ /root/Bela/projects/NIEMO/dsp/PitchShift.h:50:2
	movt	r0, :upper16:_ZNSt6vectorIfSaIfEED2Ev
	movt	r2, :upper16:__dso_handle
.Ltmp192:
	.loc	13 1308 26              @ /usr/bin/../lib/gcc/arm-linux-gnueabihf/6.3.0/../../../../include/c++/6.3.0/bits/stl_vector.h:1308:26
	str	r5, [r9, #80]
.Ltmp193:
	.loc	5 50 2 discriminator 7  @ /root/Bela/projects/NIEMO/dsp/PitchShift.h:50:2
	bl	__cxa_atexit
.Ltmp194:
	.loc	5 50 2 is_stmt 0 discriminator 8 @ /root/Bela/projects/NIEMO/dsp/PitchShift.h:50:2
	mov	r0, r4
	bl	__cxa_guard_release
.Ltmp195:
.LBB3_40:
	@DEBUG_VALUE: processFft:outBuffer <- %R8
	@DEBUG_VALUE: processFft:inPointer <- %R10
	.loc	5 51 2 is_stmt 1        @ /root/Bela/projects/NIEMO/dsp/PitchShift.h:51:2
	ldrb	r0, [r9, #20]
	dmb	ish
	tst	r0, #1
	bne	.LBB3_48
.Ltmp196:
@ BB#41:
	@DEBUG_VALUE: processFft:outBuffer <- %R8
	@DEBUG_VALUE: processFft:inPointer <- %R10
	.loc	5 51 2 is_stmt 0 discriminator 1 @ /root/Bela/projects/NIEMO/dsp/PitchShift.h:51:2
	add	r4, r9, #20
	mov	r0, r4
	bl	__cxa_guard_acquire
	cmp	r0, #0
	beq	.LBB3_48
.Ltmp197:
@ BB#42:
	@DEBUG_VALUE: processFft:outBuffer <- %R8
	@DEBUG_VALUE: processFft:inPointer <- %R10
	@DEBUG_VALUE: vector:__n <- %R6
	@DEBUG_VALUE: _Vector_base:__n <- %R6
	.loc	5 51 48 discriminator 2 @ /root/Bela/projects/NIEMO/dsp/PitchShift.h:51:48
	movw	r0, :lower16:.L_MergedGlobals
	mov	r1, #1
	movt	r0, :upper16:.L_MergedGlobals
	mov	r5, #0
	ldr	r0, [r0]
.Ltmp198:
	.loc	13 91 25 is_stmt 1      @ /usr/bin/../lib/gcc/arm-linux-gnueabihf/6.3.0/../../../../include/c++/6.3.0/bits/stl_vector.h:91:25
	str	r5, [r9, #88]
	.loc	13 91 37 is_stmt 0      @ /usr/bin/../lib/gcc/arm-linux-gnueabihf/6.3.0/../../../../include/c++/6.3.0/bits/stl_vector.h:91:37
	str	r5, [r9, #92]
.Ltmp199:
	.loc	5 51 57 is_stmt 1 discriminator 2 @ /root/Bela/projects/NIEMO/dsp/PitchShift.h:51:57
	add	r0, r0, r0, lsr #31
.Ltmp200:
	.loc	13 91 50                @ /usr/bin/../lib/gcc/arm-linux-gnueabihf/6.3.0/../../../../include/c++/6.3.0/bits/stl_vector.h:91:50
	str	r5, [r9, #96]
.Ltmp201:
	.loc	5 51 61 discriminator 2 @ /root/Bela/projects/NIEMO/dsp/PitchShift.h:51:61
	add	r6, r1, r0, asr #1
.Ltmp202:
	@DEBUG_VALUE: _M_create_storage:__n <- %R6
	@DEBUG_VALUE: _M_allocate:__n <- %R6
	@DEBUG_VALUE: allocate:__n <- %R6
	@DEBUG_VALUE: allocate:__n <- %R6
	@DEBUG_VALUE: _M_default_initialize:__n <- %R6
	@DEBUG_VALUE: __uninitialized_default_n_a<float *, unsigned int, float>:__n <- %R6
	@DEBUG_VALUE: __uninitialized_default_n<float *, unsigned int>:__n <- %R6
	@DEBUG_VALUE: __uninit_default_n<float *, unsigned int>:__n <- %R6
	@DEBUG_VALUE: fill_n<float *, unsigned int, float>:__n <- %R6
	@DEBUG_VALUE: __fill_n_a<float *, unsigned int, float>:__n <- %R6
	@DEBUG_VALUE: __niter <- %R6
	.loc	13 170 9                @ /usr/bin/../lib/gcc/arm-linux-gnueabihf/6.3.0/../../../../include/c++/6.3.0/bits/stl_vector.h:170:9
	cmp	r6, #0
	beq	.LBB3_46
.Ltmp203:
@ BB#43:
	@DEBUG_VALUE: __niter <- %R6
	@DEBUG_VALUE: __fill_n_a<float *, unsigned int, float>:__n <- %R6
	@DEBUG_VALUE: fill_n<float *, unsigned int, float>:__n <- %R6
	@DEBUG_VALUE: __uninit_default_n<float *, unsigned int>:__n <- %R6
	@DEBUG_VALUE: __uninitialized_default_n<float *, unsigned int>:__n <- %R6
	@DEBUG_VALUE: __uninitialized_default_n_a<float *, unsigned int, float>:__n <- %R6
	@DEBUG_VALUE: _M_default_initialize:__n <- %R6
	@DEBUG_VALUE: allocate:__n <- %R6
	@DEBUG_VALUE: allocate:__n <- %R6
	@DEBUG_VALUE: _M_allocate:__n <- %R6
	@DEBUG_VALUE: _M_create_storage:__n <- %R6
	@DEBUG_VALUE: processFft:outBuffer <- %R8
	@DEBUG_VALUE: processFft:inPointer <- %R10
	.loc	9 101 6                 @ /usr/bin/../lib/gcc/arm-linux-gnueabihf/6.3.0/../../../../include/c++/6.3.0/ext/new_allocator.h:101:6
	cmp	r6, #1073741824
	bhs	.LBB3_107
.Ltmp204:
@ BB#44:                                @ %.lr.ph.i.i.preheader.i.i.i.i.i158
	@DEBUG_VALUE: __niter <- %R6
	@DEBUG_VALUE: __fill_n_a<float *, unsigned int, float>:__n <- %R6
	@DEBUG_VALUE: fill_n<float *, unsigned int, float>:__n <- %R6
	@DEBUG_VALUE: __uninit_default_n<float *, unsigned int>:__n <- %R6
	@DEBUG_VALUE: __uninitialized_default_n<float *, unsigned int>:__n <- %R6
	@DEBUG_VALUE: __uninitialized_default_n_a<float *, unsigned int, float>:__n <- %R6
	@DEBUG_VALUE: _M_default_initialize:__n <- %R6
	@DEBUG_VALUE: allocate:__n <- %R6
	@DEBUG_VALUE: allocate:__n <- %R6
	@DEBUG_VALUE: _M_allocate:__n <- %R6
	@DEBUG_VALUE: _M_create_storage:__n <- %R6
	@DEBUG_VALUE: processFft:outBuffer <- %R8
	@DEBUG_VALUE: processFft:inPointer <- %R10
	.loc	9 104 46                @ /usr/bin/../lib/gcc/arm-linux-gnueabihf/6.3.0/../../../../include/c++/6.3.0/ext/new_allocator.h:104:46
	lsl	r7, r6, #2
	.loc	9 104 27 is_stmt 0      @ /usr/bin/../lib/gcc/arm-linux-gnueabihf/6.3.0/../../../../include/c++/6.3.0/ext/new_allocator.h:104:27
.Ltmp60:
	mov	r0, r7
	bl	_Znwj
.Ltmp61:
.Ltmp205:
@ BB#45:                                @ %.noexc161
	@DEBUG_VALUE: __niter <- %R6
	@DEBUG_VALUE: __fill_n_a<float *, unsigned int, float>:__n <- %R6
	@DEBUG_VALUE: fill_n<float *, unsigned int, float>:__n <- %R6
	@DEBUG_VALUE: __uninit_default_n<float *, unsigned int>:__n <- %R6
	@DEBUG_VALUE: __uninitialized_default_n<float *, unsigned int>:__n <- %R6
	@DEBUG_VALUE: __uninitialized_default_n_a<float *, unsigned int, float>:__n <- %R6
	@DEBUG_VALUE: _M_default_initialize:__n <- %R6
	@DEBUG_VALUE: allocate:__n <- %R6
	@DEBUG_VALUE: allocate:__n <- %R6
	@DEBUG_VALUE: _M_allocate:__n <- %R6
	@DEBUG_VALUE: _M_create_storage:__n <- %R6
	@DEBUG_VALUE: processFft:outBuffer <- %R8
	@DEBUG_VALUE: processFft:inPointer <- %R10
	@DEBUG_VALUE: __fill_n_a<float *, unsigned int, float>:__first <- %R0
	@DEBUG_VALUE: fill_n<float *, unsigned int, float>:__first <- %R0
	@DEBUG_VALUE: __uninit_default_n<float *, unsigned int>:__first <- %R0
	@DEBUG_VALUE: __uninitialized_default_n<float *, unsigned int>:__first <- %R0
	@DEBUG_VALUE: __uninitialized_default_n_a<float *, unsigned int, float>:__first <- %R0
	.loc	66 754 11 is_stmt 1     @ /usr/bin/../lib/gcc/arm-linux-gnueabihf/6.3.0/../../../../include/c++/6.3.0/bits/stl_algobase.h:754:11
	mov	r1, #0
	mov	r2, r7
.Ltmp206:
	.loc	13 185 25               @ /usr/bin/../lib/gcc/arm-linux-gnueabihf/6.3.0/../../../../include/c++/6.3.0/bits/stl_vector.h:185:25
	str	r0, [r9, #88]
	.loc	13 187 59               @ /usr/bin/../lib/gcc/arm-linux-gnueabihf/6.3.0/../../../../include/c++/6.3.0/bits/stl_vector.h:187:59
	add	r5, r0, r6, lsl #2
	.loc	13 186 26               @ /usr/bin/../lib/gcc/arm-linux-gnueabihf/6.3.0/../../../../include/c++/6.3.0/bits/stl_vector.h:186:26
	str	r0, [r9, #92]
	.loc	13 187 34               @ /usr/bin/../lib/gcc/arm-linux-gnueabihf/6.3.0/../../../../include/c++/6.3.0/bits/stl_vector.h:187:34
	str	r5, [r9, #96]
.Ltmp207:
	.loc	66 754 11               @ /usr/bin/../lib/gcc/arm-linux-gnueabihf/6.3.0/../../../../include/c++/6.3.0/bits/stl_algobase.h:754:11
	bl	memset
.Ltmp208:
	@DEBUG_VALUE: __uninitialized_default_n<float *, unsigned int>:__assignable <- 1
	b	.LBB3_47
.Ltmp209:
.LBB3_46:                               @ %_ZNSt12_Vector_baseIfSaIfEEC2EjRKS0_.exit.thread.i156
	@DEBUG_VALUE: __niter <- %R6
	@DEBUG_VALUE: __fill_n_a<float *, unsigned int, float>:__n <- %R6
	@DEBUG_VALUE: fill_n<float *, unsigned int, float>:__n <- %R6
	@DEBUG_VALUE: __uninit_default_n<float *, unsigned int>:__n <- %R6
	@DEBUG_VALUE: __uninitialized_default_n<float *, unsigned int>:__n <- %R6
	@DEBUG_VALUE: __uninitialized_default_n_a<float *, unsigned int, float>:__n <- %R6
	@DEBUG_VALUE: _M_default_initialize:__n <- %R6
	@DEBUG_VALUE: allocate:__n <- %R6
	@DEBUG_VALUE: allocate:__n <- %R6
	@DEBUG_VALUE: _M_allocate:__n <- %R6
	@DEBUG_VALUE: _M_create_storage:__n <- %R6
	@DEBUG_VALUE: processFft:outBuffer <- %R8
	@DEBUG_VALUE: processFft:inPointer <- %R10
	@DEBUG_VALUE: __uninitialized_default_n<float *, unsigned int>:__assignable <- 1
	.loc	13 185 25               @ /usr/bin/../lib/gcc/arm-linux-gnueabihf/6.3.0/../../../../include/c++/6.3.0/bits/stl_vector.h:185:25
	str	r5, [r9, #88]
	.loc	13 186 26               @ /usr/bin/../lib/gcc/arm-linux-gnueabihf/6.3.0/../../../../include/c++/6.3.0/bits/stl_vector.h:186:26
	str	r5, [r9, #92]
	.loc	13 187 34               @ /usr/bin/../lib/gcc/arm-linux-gnueabihf/6.3.0/../../../../include/c++/6.3.0/bits/stl_vector.h:187:34
	str	r5, [r9, #96]
.Ltmp210:
.LBB3_47:
	@DEBUG_VALUE: __niter <- %R6
	@DEBUG_VALUE: __fill_n_a<float *, unsigned int, float>:__n <- %R6
	@DEBUG_VALUE: fill_n<float *, unsigned int, float>:__n <- %R6
	@DEBUG_VALUE: __uninit_default_n<float *, unsigned int>:__n <- %R6
	@DEBUG_VALUE: __uninitialized_default_n<float *, unsigned int>:__n <- %R6
	@DEBUG_VALUE: __uninitialized_default_n_a<float *, unsigned int, float>:__n <- %R6
	@DEBUG_VALUE: _M_default_initialize:__n <- %R6
	@DEBUG_VALUE: allocate:__n <- %R6
	@DEBUG_VALUE: allocate:__n <- %R6
	@DEBUG_VALUE: _M_allocate:__n <- %R6
	@DEBUG_VALUE: _M_create_storage:__n <- %R6
	@DEBUG_VALUE: processFft:outBuffer <- %R8
	@DEBUG_VALUE: processFft:inPointer <- %R10
	.loc	5 51 2 discriminator 7  @ /root/Bela/projects/NIEMO/dsp/PitchShift.h:51:2
	movw	r0, :lower16:_ZNSt6vectorIfSaIfEED2Ev
	movw	r2, :lower16:__dso_handle
.Ltmp211:
	.loc	13 1308 26              @ /usr/bin/../lib/gcc/arm-linux-gnueabihf/6.3.0/../../../../include/c++/6.3.0/bits/stl_vector.h:1308:26
	add	r1, r9, #88
.Ltmp212:
	@DEBUG_VALUE: _M_default_initialize:this <- %R1
	.loc	5 51 2 discriminator 7  @ /root/Bela/projects/NIEMO/dsp/PitchShift.h:51:2
	movt	r0, :upper16:_ZNSt6vectorIfSaIfEED2Ev
	movt	r2, :upper16:__dso_handle
.Ltmp213:
	.loc	13 1308 26              @ /usr/bin/../lib/gcc/arm-linux-gnueabihf/6.3.0/../../../../include/c++/6.3.0/bits/stl_vector.h:1308:26
	str	r5, [r9, #92]
.Ltmp214:
	.loc	5 51 2 discriminator 7  @ /root/Bela/projects/NIEMO/dsp/PitchShift.h:51:2
	bl	__cxa_atexit
.Ltmp215:
	.loc	5 51 2 is_stmt 0 discriminator 8 @ /root/Bela/projects/NIEMO/dsp/PitchShift.h:51:2
	mov	r0, r4
	bl	__cxa_guard_release
.Ltmp216:
.LBB3_48:
	@DEBUG_VALUE: processFft:outBuffer <- %R8
	@DEBUG_VALUE: processFft:inPointer <- %R10
	.loc	5 52 2 is_stmt 1        @ /root/Bela/projects/NIEMO/dsp/PitchShift.h:52:2
	ldrb	r0, [r9, #24]
	dmb	ish
	tst	r0, #1
	bne	.LBB3_56
.Ltmp217:
@ BB#49:
	@DEBUG_VALUE: processFft:outBuffer <- %R8
	@DEBUG_VALUE: processFft:inPointer <- %R10
	.loc	5 52 2 is_stmt 0 discriminator 1 @ /root/Bela/projects/NIEMO/dsp/PitchShift.h:52:2
	add	r4, r9, #24
	mov	r0, r4
	bl	__cxa_guard_acquire
	cmp	r0, #0
	beq	.LBB3_56
.Ltmp218:
@ BB#50:
	@DEBUG_VALUE: processFft:outBuffer <- %R8
	@DEBUG_VALUE: processFft:inPointer <- %R10
	@DEBUG_VALUE: vector:__n <- %R6
	@DEBUG_VALUE: _Vector_base:__n <- %R6
	.loc	5 52 49 discriminator 2 @ /root/Bela/projects/NIEMO/dsp/PitchShift.h:52:49
	movw	r0, :lower16:.L_MergedGlobals
	mov	r1, #1
	movt	r0, :upper16:.L_MergedGlobals
	mov	r5, #0
	ldr	r0, [r0]
.Ltmp219:
	.loc	13 91 25 is_stmt 1      @ /usr/bin/../lib/gcc/arm-linux-gnueabihf/6.3.0/../../../../include/c++/6.3.0/bits/stl_vector.h:91:25
	str	r5, [r9, #100]
	.loc	13 91 37 is_stmt 0      @ /usr/bin/../lib/gcc/arm-linux-gnueabihf/6.3.0/../../../../include/c++/6.3.0/bits/stl_vector.h:91:37
	str	r5, [r9, #104]
.Ltmp220:
	.loc	5 52 58 is_stmt 1 discriminator 2 @ /root/Bela/projects/NIEMO/dsp/PitchShift.h:52:58
	add	r0, r0, r0, lsr #31
.Ltmp221:
	.loc	13 91 50                @ /usr/bin/../lib/gcc/arm-linux-gnueabihf/6.3.0/../../../../include/c++/6.3.0/bits/stl_vector.h:91:50
	str	r5, [r9, #108]
.Ltmp222:
	.loc	5 52 62 discriminator 2 @ /root/Bela/projects/NIEMO/dsp/PitchShift.h:52:62
	add	r6, r1, r0, asr #1
.Ltmp223:
	@DEBUG_VALUE: _M_create_storage:__n <- %R6
	@DEBUG_VALUE: _M_allocate:__n <- %R6
	@DEBUG_VALUE: allocate:__n <- %R6
	@DEBUG_VALUE: allocate:__n <- %R6
	@DEBUG_VALUE: _M_default_initialize:__n <- %R6
	@DEBUG_VALUE: __uninitialized_default_n_a<float *, unsigned int, float>:__n <- %R6
	@DEBUG_VALUE: __uninitialized_default_n<float *, unsigned int>:__n <- %R6
	@DEBUG_VALUE: __uninit_default_n<float *, unsigned int>:__n <- %R6
	@DEBUG_VALUE: fill_n<float *, unsigned int, float>:__n <- %R6
	@DEBUG_VALUE: __fill_n_a<float *, unsigned int, float>:__n <- %R6
	@DEBUG_VALUE: __niter <- %R6
	.loc	13 170 9                @ /usr/bin/../lib/gcc/arm-linux-gnueabihf/6.3.0/../../../../include/c++/6.3.0/bits/stl_vector.h:170:9
	cmp	r6, #0
	beq	.LBB3_54
.Ltmp224:
@ BB#51:
	@DEBUG_VALUE: __niter <- %R6
	@DEBUG_VALUE: __fill_n_a<float *, unsigned int, float>:__n <- %R6
	@DEBUG_VALUE: fill_n<float *, unsigned int, float>:__n <- %R6
	@DEBUG_VALUE: __uninit_default_n<float *, unsigned int>:__n <- %R6
	@DEBUG_VALUE: __uninitialized_default_n<float *, unsigned int>:__n <- %R6
	@DEBUG_VALUE: __uninitialized_default_n_a<float *, unsigned int, float>:__n <- %R6
	@DEBUG_VALUE: _M_default_initialize:__n <- %R6
	@DEBUG_VALUE: allocate:__n <- %R6
	@DEBUG_VALUE: allocate:__n <- %R6
	@DEBUG_VALUE: _M_allocate:__n <- %R6
	@DEBUG_VALUE: _M_create_storage:__n <- %R6
	@DEBUG_VALUE: processFft:outBuffer <- %R8
	@DEBUG_VALUE: processFft:inPointer <- %R10
	.loc	9 101 6                 @ /usr/bin/../lib/gcc/arm-linux-gnueabihf/6.3.0/../../../../include/c++/6.3.0/ext/new_allocator.h:101:6
	cmp	r6, #1073741824
	bhs	.LBB3_109
.Ltmp225:
@ BB#52:                                @ %.lr.ph.i.i.preheader.i.i.i.i.i151
	@DEBUG_VALUE: __niter <- %R6
	@DEBUG_VALUE: __fill_n_a<float *, unsigned int, float>:__n <- %R6
	@DEBUG_VALUE: fill_n<float *, unsigned int, float>:__n <- %R6
	@DEBUG_VALUE: __uninit_default_n<float *, unsigned int>:__n <- %R6
	@DEBUG_VALUE: __uninitialized_default_n<float *, unsigned int>:__n <- %R6
	@DEBUG_VALUE: __uninitialized_default_n_a<float *, unsigned int, float>:__n <- %R6
	@DEBUG_VALUE: _M_default_initialize:__n <- %R6
	@DEBUG_VALUE: allocate:__n <- %R6
	@DEBUG_VALUE: allocate:__n <- %R6
	@DEBUG_VALUE: _M_allocate:__n <- %R6
	@DEBUG_VALUE: _M_create_storage:__n <- %R6
	@DEBUG_VALUE: processFft:outBuffer <- %R8
	@DEBUG_VALUE: processFft:inPointer <- %R10
	.loc	9 104 46                @ /usr/bin/../lib/gcc/arm-linux-gnueabihf/6.3.0/../../../../include/c++/6.3.0/ext/new_allocator.h:104:46
	lsl	r7, r6, #2
	.loc	9 104 27 is_stmt 0      @ /usr/bin/../lib/gcc/arm-linux-gnueabihf/6.3.0/../../../../include/c++/6.3.0/ext/new_allocator.h:104:27
.Ltmp65:
	mov	r0, r7
	bl	_Znwj
.Ltmp66:
.Ltmp226:
@ BB#53:                                @ %.noexc154
	@DEBUG_VALUE: __niter <- %R6
	@DEBUG_VALUE: __fill_n_a<float *, unsigned int, float>:__n <- %R6
	@DEBUG_VALUE: fill_n<float *, unsigned int, float>:__n <- %R6
	@DEBUG_VALUE: __uninit_default_n<float *, unsigned int>:__n <- %R6
	@DEBUG_VALUE: __uninitialized_default_n<float *, unsigned int>:__n <- %R6
	@DEBUG_VALUE: __uninitialized_default_n_a<float *, unsigned int, float>:__n <- %R6
	@DEBUG_VALUE: _M_default_initialize:__n <- %R6
	@DEBUG_VALUE: allocate:__n <- %R6
	@DEBUG_VALUE: allocate:__n <- %R6
	@DEBUG_VALUE: _M_allocate:__n <- %R6
	@DEBUG_VALUE: _M_create_storage:__n <- %R6
	@DEBUG_VALUE: processFft:outBuffer <- %R8
	@DEBUG_VALUE: processFft:inPointer <- %R10
	@DEBUG_VALUE: __fill_n_a<float *, unsigned int, float>:__first <- %R0
	@DEBUG_VALUE: fill_n<float *, unsigned int, float>:__first <- %R0
	@DEBUG_VALUE: __uninit_default_n<float *, unsigned int>:__first <- %R0
	@DEBUG_VALUE: __uninitialized_default_n<float *, unsigned int>:__first <- %R0
	@DEBUG_VALUE: __uninitialized_default_n_a<float *, unsigned int, float>:__first <- %R0
	.loc	66 754 11 is_stmt 1     @ /usr/bin/../lib/gcc/arm-linux-gnueabihf/6.3.0/../../../../include/c++/6.3.0/bits/stl_algobase.h:754:11
	mov	r1, #0
	mov	r2, r7
.Ltmp227:
	.loc	13 185 25               @ /usr/bin/../lib/gcc/arm-linux-gnueabihf/6.3.0/../../../../include/c++/6.3.0/bits/stl_vector.h:185:25
	str	r0, [r9, #100]
	.loc	13 187 59               @ /usr/bin/../lib/gcc/arm-linux-gnueabihf/6.3.0/../../../../include/c++/6.3.0/bits/stl_vector.h:187:59
	add	r5, r0, r6, lsl #2
	.loc	13 186 26               @ /usr/bin/../lib/gcc/arm-linux-gnueabihf/6.3.0/../../../../include/c++/6.3.0/bits/stl_vector.h:186:26
	str	r0, [r9, #104]
	.loc	13 187 34               @ /usr/bin/../lib/gcc/arm-linux-gnueabihf/6.3.0/../../../../include/c++/6.3.0/bits/stl_vector.h:187:34
	str	r5, [r9, #108]
.Ltmp228:
	.loc	66 754 11               @ /usr/bin/../lib/gcc/arm-linux-gnueabihf/6.3.0/../../../../include/c++/6.3.0/bits/stl_algobase.h:754:11
	bl	memset
.Ltmp229:
	@DEBUG_VALUE: __uninitialized_default_n<float *, unsigned int>:__assignable <- 1
	b	.LBB3_55
.Ltmp230:
.LBB3_54:                               @ %_ZNSt12_Vector_baseIfSaIfEEC2EjRKS0_.exit.thread.i149
	@DEBUG_VALUE: __niter <- %R6
	@DEBUG_VALUE: __fill_n_a<float *, unsigned int, float>:__n <- %R6
	@DEBUG_VALUE: fill_n<float *, unsigned int, float>:__n <- %R6
	@DEBUG_VALUE: __uninit_default_n<float *, unsigned int>:__n <- %R6
	@DEBUG_VALUE: __uninitialized_default_n<float *, unsigned int>:__n <- %R6
	@DEBUG_VALUE: __uninitialized_default_n_a<float *, unsigned int, float>:__n <- %R6
	@DEBUG_VALUE: _M_default_initialize:__n <- %R6
	@DEBUG_VALUE: allocate:__n <- %R6
	@DEBUG_VALUE: allocate:__n <- %R6
	@DEBUG_VALUE: _M_allocate:__n <- %R6
	@DEBUG_VALUE: _M_create_storage:__n <- %R6
	@DEBUG_VALUE: processFft:outBuffer <- %R8
	@DEBUG_VALUE: processFft:inPointer <- %R10
	@DEBUG_VALUE: __uninitialized_default_n<float *, unsigned int>:__assignable <- 1
	.loc	13 185 25               @ /usr/bin/../lib/gcc/arm-linux-gnueabihf/6.3.0/../../../../include/c++/6.3.0/bits/stl_vector.h:185:25
	str	r5, [r9, #100]
	.loc	13 186 26               @ /usr/bin/../lib/gcc/arm-linux-gnueabihf/6.3.0/../../../../include/c++/6.3.0/bits/stl_vector.h:186:26
	str	r5, [r9, #104]
	.loc	13 187 34               @ /usr/bin/../lib/gcc/arm-linux-gnueabihf/6.3.0/../../../../include/c++/6.3.0/bits/stl_vector.h:187:34
	str	r5, [r9, #108]
.Ltmp231:
.LBB3_55:
	@DEBUG_VALUE: __niter <- %R6
	@DEBUG_VALUE: __fill_n_a<float *, unsigned int, float>:__n <- %R6
	@DEBUG_VALUE: fill_n<float *, unsigned int, float>:__n <- %R6
	@DEBUG_VALUE: __uninit_default_n<float *, unsigned int>:__n <- %R6
	@DEBUG_VALUE: __uninitialized_default_n<float *, unsigned int>:__n <- %R6
	@DEBUG_VALUE: __uninitialized_default_n_a<float *, unsigned int, float>:__n <- %R6
	@DEBUG_VALUE: _M_default_initialize:__n <- %R6
	@DEBUG_VALUE: allocate:__n <- %R6
	@DEBUG_VALUE: allocate:__n <- %R6
	@DEBUG_VALUE: _M_allocate:__n <- %R6
	@DEBUG_VALUE: _M_create_storage:__n <- %R6
	@DEBUG_VALUE: processFft:outBuffer <- %R8
	@DEBUG_VALUE: processFft:inPointer <- %R10
	.loc	5 52 2 discriminator 7  @ /root/Bela/projects/NIEMO/dsp/PitchShift.h:52:2
	movw	r0, :lower16:_ZNSt6vectorIfSaIfEED2Ev
	movw	r2, :lower16:__dso_handle
.Ltmp232:
	.loc	13 1308 26              @ /usr/bin/../lib/gcc/arm-linux-gnueabihf/6.3.0/../../../../include/c++/6.3.0/bits/stl_vector.h:1308:26
	add	r1, r9, #100
.Ltmp233:
	@DEBUG_VALUE: _M_default_initialize:this <- %R1
	.loc	5 52 2 discriminator 7  @ /root/Bela/projects/NIEMO/dsp/PitchShift.h:52:2
	movt	r0, :upper16:_ZNSt6vectorIfSaIfEED2Ev
	movt	r2, :upper16:__dso_handle
.Ltmp234:
	.loc	13 1308 26              @ /usr/bin/../lib/gcc/arm-linux-gnueabihf/6.3.0/../../../../include/c++/6.3.0/bits/stl_vector.h:1308:26
	str	r5, [r9, #104]
.Ltmp235:
	.loc	5 52 2 discriminator 7  @ /root/Bela/projects/NIEMO/dsp/PitchShift.h:52:2
	bl	__cxa_atexit
.Ltmp236:
	.loc	5 52 2 is_stmt 0 discriminator 8 @ /root/Bela/projects/NIEMO/dsp/PitchShift.h:52:2
	mov	r0, r4
	bl	__cxa_guard_release
.Ltmp237:
.LBB3_56:
	@DEBUG_VALUE: processFft:outBuffer <- %R8
	@DEBUG_VALUE: processFft:inPointer <- %R10
	.loc	5 53 27 is_stmt 1       @ /root/Bela/projects/NIEMO/dsp/PitchShift.h:53:27
	movw	r1, :lower16:.L_MergedGlobals
	str	r8, [sp, #4]            @ 4-byte Spill
	movt	r1, :upper16:.L_MergedGlobals
.Ltmp238:
	@DEBUG_VALUE: n <- 0
	.loc	5 55 21 discriminator 1 @ /root/Bela/projects/NIEMO/dsp/PitchShift.h:55:21
	ldr	r0, [r1]
.Ltmp239:
	.loc	5 53 27                 @ /root/Bela/projects/NIEMO/dsp/PitchShift.h:53:27
	vldr	s16, [r1, #8]
.Ltmp240:
	@DEBUG_VALUE: processFft:cachedPitchShift <- %S16
	.loc	5 55 2 discriminator 1  @ /root/Bela/projects/NIEMO/dsp/PitchShift.h:55:2
	cmp	r0, #1
	blt	.LBB3_59
.Ltmp241:
@ BB#57:                                @ %.lr.ph186
	@DEBUG_VALUE: processFft:cachedPitchShift <- %S16
	@DEBUG_VALUE: processFft:outBuffer <- %R8
	@DEBUG_VALUE: processFft:inPointer <- %R10
	.loc	13 781 32               @ /usr/bin/../lib/gcc/arm-linux-gnueabihf/6.3.0/../../../../include/c++/6.3.0/bits/stl_vector.h:781:32
	movw	r3, :lower16:.L_MergedGlobals.5
.Ltmp242:
	.loc	13 781 32 is_stmt 0     @ /usr/bin/../lib/gcc/arm-linux-gnueabihf/6.3.0/../../../../include/c++/6.3.0/bits/stl_vector.h:781:32
	ldr	r7, [r9, #28]
.Ltmp243:
	.loc	13 781 32               @ /usr/bin/../lib/gcc/arm-linux-gnueabihf/6.3.0/../../../../include/c++/6.3.0/bits/stl_vector.h:781:32
	movt	r3, :upper16:.L_MergedGlobals.5
.Ltmp244:
	.loc	5 55 2 is_stmt 1 discriminator 1 @ /root/Bela/projects/NIEMO/dsp/PitchShift.h:55:2
	sub	r1, r10, r0
.Ltmp245:
	.loc	13 781 32               @ /usr/bin/../lib/gcc/arm-linux-gnueabihf/6.3.0/../../../../include/c++/6.3.0/bits/stl_vector.h:781:32
	ldr	r2, [r3, #44]
	mov	r6, #0
.Ltmp246:
	.loc	13 781 32 is_stmt 0     @ /usr/bin/../lib/gcc/arm-linux-gnueabihf/6.3.0/../../../../include/c++/6.3.0/bits/stl_vector.h:781:32
	ldr	r3, [r3, #80]
.Ltmp247:
.LBB3_58:                               @ =>This Inner Loop Header: Depth=1
	@DEBUG_VALUE: operator[]:__n <- %R6
	@DEBUG_VALUE: operator[]:__n <- %R5
	.loc	5 56 70 is_stmt 1       @ /root/Bela/projects/NIEMO/dsp/PitchShift.h:56:70
	add	r5, r1, r6
.Ltmp248:
	.loc	5 57 60                 @ /root/Bela/projects/NIEMO/dsp/PitchShift.h:57:60
	vldr	s0, [r3]
.Ltmp249:
	.loc	5 55 32 discriminator 3 @ /root/Bela/projects/NIEMO/dsp/PitchShift.h:55:32
	add	r6, r6, #1
.Ltmp250:
	@DEBUG_VALUE: n <- %R6
	.loc	5 55 19 is_stmt 0 discriminator 1 @ /root/Bela/projects/NIEMO/dsp/PitchShift.h:55:19
	add	r3, r3, #4
.Ltmp251:
	.loc	5 56 70 is_stmt 1       @ /root/Bela/projects/NIEMO/dsp/PitchShift.h:56:70
	bfc	r5, #12, #20
.Ltmp252:
	@DEBUG_VALUE: circularBufferIndex <- %R5
	.loc	5 55 2 discriminator 1  @ /root/Bela/projects/NIEMO/dsp/PitchShift.h:55:2
	cmp	r6, r0
.Ltmp253:
	.loc	13 781 41               @ /usr/bin/../lib/gcc/arm-linux-gnueabihf/6.3.0/../../../../include/c++/6.3.0/bits/stl_vector.h:781:41
	add	r5, r2, r5, lsl #2
.Ltmp254:
	.loc	5 57 24                 @ /root/Bela/projects/NIEMO/dsp/PitchShift.h:57:24
	vldr	s2, [r5]
	.loc	5 57 58 is_stmt 0       @ /root/Bela/projects/NIEMO/dsp/PitchShift.h:57:58
	vmul.f32	d0, d0, d1
	.loc	5 57 22                 @ /root/Bela/projects/NIEMO/dsp/PitchShift.h:57:22
	vstr	s0, [r7]
.Ltmp255:
	.loc	5 55 19 is_stmt 1 discriminator 1 @ /root/Bela/projects/NIEMO/dsp/PitchShift.h:55:19
	add	r7, r7, #4
	blt	.LBB3_58
.Ltmp256:
.LBB3_59:                               @ %._crit_edge187
	.loc	5 61 7                  @ /root/Bela/projects/NIEMO/dsp/PitchShift.h:61:7
	movw	r0, :lower16:.L_MergedGlobals.5
	add	r1, r9, #28
.Ltmp257:
	@DEBUG_VALUE: operator[]:this <- %R1
	movt	r0, :upper16:.L_MergedGlobals.5
	add	r0, r0, #104
	str	r0, [sp, #12]           @ 4-byte Spill
	bl	_ZN3Fft3fftERKSt6vectorIfSaIfEE
.Ltmp258:
	.loc	5 53 27                 @ /root/Bela/projects/NIEMO/dsp/PitchShift.h:53:27
	movw	r0, :lower16:.L_MergedGlobals
	movt	r0, :upper16:.L_MergedGlobals
.Ltmp259:
	.loc	5 66 22 discriminator 1 @ /root/Bela/projects/NIEMO/dsp/PitchShift.h:66:22
	ldr	r0, [r0]
	.loc	5 66 2 is_stmt 0 discriminator 1 @ /root/Bela/projects/NIEMO/dsp/PitchShift.h:66:2
	cmn	r0, #1
.Ltmp260:
	@DEBUG_VALUE: n <- 0
	blt	.LBB3_91
.Ltmp261:
@ BB#60:                                @ %.lr.ph183.preheader
	.loc	5 61 7 is_stmt 1        @ /root/Bela/projects/NIEMO/dsp/PitchShift.h:61:7
	movw	r0, :lower16:.L_MergedGlobals.5
.Ltmp262:
	.loc	5 78 59                 @ /root/Bela/projects/NIEMO/dsp/PitchShift.h:78:59
	vldr	d15, .LCPI3_7
.Ltmp263:
	.loc	5 61 7                  @ /root/Bela/projects/NIEMO/dsp/PitchShift.h:61:7
	movt	r0, :upper16:.L_MergedGlobals.5
.Ltmp264:
	.loc	5 40 126 discriminator 2 @ /root/Bela/projects/NIEMO/dsp/PitchShift.h:40:126
	vldr	s19, .LCPI3_8
.Ltmp265:
	.loc	7 39 38                 @ ./libraries/Fft/Fft.h:39:38
	ldr	r10, [r0, #108]
	mvn	r6, #0
.Ltmp266:
	.loc	5 82 70                 @ /root/Bela/projects/NIEMO/dsp/PitchShift.h:82:70
	vldr	d14, .LCPI3_9
	mov	r7, #0
.Ltmp267:
	.loc	5 40 29 discriminator 1 @ /root/Bela/projects/NIEMO/dsp/PitchShift.h:40:29
	vldr	s18, .LCPI3_10
	mov	r5, #4
	vstr	d8, [sp, #16]           @ 8-byte Spill
.Ltmp268:
.LBB3_61:                               @ %.lr.ph183
                                        @ =>This Inner Loop Header: Depth=1
	.loc	7 48 52                 @ ./libraries/Fft/Fft.h:48:52
	add	r0, r10, r5
	vldr	s0, [r0, #-4]
	.loc	7 48 70 is_stmt 0       @ ./libraries/Fft/Fft.h:48:70
	vldr	s2, [r0]
	.loc	7 48 59                 @ ./libraries/Fft/Fft.h:48:59
	vmul.f32	d16, d0, d0
	.loc	7 48 77                 @ ./libraries/Fft/Fft.h:48:77
	vmul.f32	d17, d1, d1
	.loc	7 48 68                 @ ./libraries/Fft/Fft.h:48:68
	vadd.f32	d0, d17, d16
	.loc	7 48 37 discriminator 4 @ ./libraries/Fft/Fft.h:48:37
                                        @ kill: %S0<def> %S0<kill> %D0<kill>
	bl	sqrtf_neon_hfp
.Ltmp269:
	.loc	5 61 7 is_stmt 1        @ /root/Bela/projects/NIEMO/dsp/PitchShift.h:61:7
	movw	r0, :lower16:.L_MergedGlobals.5
.Ltmp270:
	.loc	7 48 37 discriminator 4 @ ./libraries/Fft/Fft.h:48:37
	vmov.f32	s20, s0
.Ltmp271:
	@DEBUG_VALUE: amplitude <- %S20
	.loc	5 61 7                  @ /root/Bela/projects/NIEMO/dsp/PitchShift.h:61:7
	movt	r0, :upper16:.L_MergedGlobals.5
.Ltmp272:
	.loc	7 43 38                 @ ./libraries/Fft/Fft.h:43:38
	ldr	r10, [r0, #108]
.Ltmp273:
	.loc	5 69 29                 @ /root/Bela/projects/NIEMO/dsp/PitchShift.h:69:29
	add	r0, r10, r5
	.loc	5 69 42 is_stmt 0       @ /root/Bela/projects/NIEMO/dsp/PitchShift.h:69:42
	vldr	s1, [r0, #-4]
	.loc	5 69 29                 @ /root/Bela/projects/NIEMO/dsp/PitchShift.h:69:29
	vldr	s0, [r0]
	.loc	5 69 17 discriminator 3 @ /root/Bela/projects/NIEMO/dsp/PitchShift.h:69:17
	bl	__atan2f_finite
.Ltmp274:
	.loc	7 39 57 is_stmt 1       @ ./libraries/Fft/Fft.h:39:57
	add	r6, r6, #1
.Ltmp275:
	.loc	5 69 17 discriminator 3 @ /root/Bela/projects/NIEMO/dsp/PitchShift.h:69:17
	vorr	d11, d0, d0
.Ltmp276:
	@DEBUG_VALUE: phase <- %S22
	.loc	5 53 27                 @ /root/Bela/projects/NIEMO/dsp/PitchShift.h:53:27
	movw	r0, :lower16:.L_MergedGlobals
.Ltmp277:
	.loc	5 78 68                 @ /root/Bela/projects/NIEMO/dsp/PitchShift.h:78:68
	vmov	s0, r6
.Ltmp278:
	.loc	5 53 27                 @ /root/Bela/projects/NIEMO/dsp/PitchShift.h:53:27
	movt	r0, :upper16:.L_MergedGlobals
.Ltmp279:
	.loc	5 78 68                 @ /root/Bela/projects/NIEMO/dsp/PitchShift.h:78:68
	vcvt.f32.s32	d12, d0
.Ltmp280:
	.loc	5 66 22 discriminator 1 @ /root/Bela/projects/NIEMO/dsp/PitchShift.h:66:22
	ldr	r8, [r0]
	ldr	r1, [r0, #4]
.Ltmp281:
	.loc	13 781 32               @ /usr/bin/../lib/gcc/arm-linux-gnueabihf/6.3.0/../../../../include/c++/6.3.0/bits/stl_vector.h:781:32
	ldr	r0, [r9, #40]
.Ltmp282:
	.loc	5 78 79                 @ /root/Bela/projects/NIEMO/dsp/PitchShift.h:78:79
	vmov	s0, r8
	vcvt.f32.s32	d13, d0
	.loc	5 73 29                 @ /root/Bela/projects/NIEMO/dsp/PitchShift.h:73:29
	add	r4, r0, r7
	.loc	5 78 61                 @ /root/Bela/projects/NIEMO/dsp/PitchShift.h:78:61
	vcvt.f64.f32	d16, s24
	.loc	5 78 59 is_stmt 0       @ /root/Bela/projects/NIEMO/dsp/PitchShift.h:78:59
	vmul.f64	d16, d16, d15
	.loc	5 78 72                 @ /root/Bela/projects/NIEMO/dsp/PitchShift.h:78:72
	vcvt.f64.f32	d17, s26
	.loc	5 78 70                 @ /root/Bela/projects/NIEMO/dsp/PitchShift.h:78:70
	vdiv.f64	d16, d16, d17
	.loc	5 78 30                 @ /root/Bela/projects/NIEMO/dsp/PitchShift.h:78:30
	vcvt.f32.f64	s0, d16
	.loc	5 79 58 is_stmt 1       @ /root/Bela/projects/NIEMO/dsp/PitchShift.h:79:58
	vmov	s2, r1
	.loc	5 73 29                 @ /root/Bela/projects/NIEMO/dsp/PitchShift.h:73:29
	vldr	s4, [r4]
	.loc	5 79 58                 @ /root/Bela/projects/NIEMO/dsp/PitchShift.h:79:58
	vcvt.f32.s32	d8, d1
	.loc	5 73 27                 @ /root/Bela/projects/NIEMO/dsp/PitchShift.h:73:27
	vsub.f32	d16, d11, d2
	.loc	5 79 56                 @ /root/Bela/projects/NIEMO/dsp/PitchShift.h:79:56
	vmul.f32	d17, d0, d8
.Ltmp283:
	@DEBUG_VALUE: phaseDiff <- undef
	.loc	5 79 35 is_stmt 0       @ /root/Bela/projects/NIEMO/dsp/PitchShift.h:79:35
	vadd.f32	d0, d16, d17
.Ltmp284:
	@DEBUG_VALUE: wrapPhase:phaseIn <- %S0
	.loc	5 40 35 is_stmt 1 discriminator 1 @ /root/Bela/projects/NIEMO/dsp/PitchShift.h:40:35
	vcvt.f64.f32	d16, s0
	.loc	5 40 12 is_stmt 0       @ /root/Bela/projects/NIEMO/dsp/PitchShift.h:40:12
	vcmpe.f32	s0, #0
	vmrs	APSR_nzcv, fpscr
	bge	.LBB3_63
.Ltmp285:
@ BB#62:                                @   in Loop: Header=BB3_61 Depth=1
	@DEBUG_VALUE: wrapPhase:phaseIn <- %S0
	@DEBUG_VALUE: phase <- %S22
	@DEBUG_VALUE: amplitude <- %S20
	.loc	5 40 140 discriminator 2 @ /root/Bela/projects/NIEMO/dsp/PitchShift.h:40:140
	vldr	d17, .LCPI3_11
	.loc	5 40 126 discriminator 2 @ /root/Bela/projects/NIEMO/dsp/PitchShift.h:40:126
	vmov.f32	s1, s19
	.loc	5 40 140 discriminator 2 @ /root/Bela/projects/NIEMO/dsp/PitchShift.h:40:140
	vadd.f64	d16, d16, d17
	.loc	5 40 132 discriminator 2 @ /root/Bela/projects/NIEMO/dsp/PitchShift.h:40:132
	vcvt.f32.f64	s0, d16
.Ltmp286:
	.loc	5 40 126 discriminator 2 @ /root/Bela/projects/NIEMO/dsp/PitchShift.h:40:126
	bl	__fmodf_finite
	vcvt.f64.f32	d16, s0
	.loc	5 40 197 discriminator 2 @ /root/Bela/projects/NIEMO/dsp/PitchShift.h:40:197
	vldr	d17, .LCPI3_12
	b	.LBB3_64
.Ltmp287:
.LBB3_63:                               @   in Loop: Header=BB3_61 Depth=1
	@DEBUG_VALUE: wrapPhase:phaseIn <- %S0
	@DEBUG_VALUE: phase <- %S22
	@DEBUG_VALUE: amplitude <- %S20
	vldr	d17, .LCPI3_12
	.loc	5 40 29 discriminator 1 @ /root/Bela/projects/NIEMO/dsp/PitchShift.h:40:29
	vmov.f32	s1, s18
	.loc	5 40 43 discriminator 1 @ /root/Bela/projects/NIEMO/dsp/PitchShift.h:40:43
	vadd.f64	d16, d16, d17
	.loc	5 40 35 discriminator 1 @ /root/Bela/projects/NIEMO/dsp/PitchShift.h:40:35
	vcvt.f32.f64	s0, d16
.Ltmp288:
	.loc	5 40 29 discriminator 1 @ /root/Bela/projects/NIEMO/dsp/PitchShift.h:40:29
	bl	__fmodf_finite
	vcvt.f64.f32	d16, s0
	.loc	5 40 140 discriminator 2 @ /root/Bela/projects/NIEMO/dsp/PitchShift.h:40:140
	vldr	d17, .LCPI3_11
.Ltmp289:
.LBB3_64:                               @ %_ZN10PitchShift9wrapPhaseEf.exit127
                                        @   in Loop: Header=BB3_61 Depth=1
	@DEBUG_VALUE: phase <- %S22
	@DEBUG_VALUE: amplitude <- %S20
	.loc	5 40 197 discriminator 2 @ /root/Bela/projects/NIEMO/dsp/PitchShift.h:40:197
	vadd.f64	d16, d16, d17
.Ltmp290:
	.loc	13 781 32 is_stmt 1     @ /usr/bin/../lib/gcc/arm-linux-gnueabihf/6.3.0/../../../../include/c++/6.3.0/bits/stl_vector.h:781:32
	ldr	r0, [r9, #76]
.Ltmp291:
	.loc	5 66 19 discriminator 1 @ /root/Bela/projects/NIEMO/dsp/PitchShift.h:66:19
	add	r5, r5, #8
.Ltmp292:
	.loc	5 85 26                 @ /root/Bela/projects/NIEMO/dsp/PitchShift.h:85:26
	add	r0, r0, r7
.Ltmp293:
	.loc	5 40 12 discriminator 3 @ /root/Bela/projects/NIEMO/dsp/PitchShift.h:40:12
	vcvt.f32.f64	s0, d16
.Ltmp294:
	@DEBUG_VALUE: phaseDiff <- %S0
	.loc	5 82 34                 @ /root/Bela/projects/NIEMO/dsp/PitchShift.h:82:34
	vmul.f32	d0, d13, d0
.Ltmp295:
	.loc	5 82 52 is_stmt 0       @ /root/Bela/projects/NIEMO/dsp/PitchShift.h:82:52
	vdiv.f32	s0, s0, s16
	.loc	5 82 24                 @ /root/Bela/projects/NIEMO/dsp/PitchShift.h:82:24
	vcvt.f64.f32	d16, s0
	.loc	5 82 70                 @ /root/Bela/projects/NIEMO/dsp/PitchShift.h:82:70
	vmul.f64	d16, d16, d14
	.loc	5 82 24                 @ /root/Bela/projects/NIEMO/dsp/PitchShift.h:82:24
	vcvt.f32.f64	s0, d16
.Ltmp296:
	@DEBUG_VALUE: binDeviation <- %S0
	.loc	5 85 37 is_stmt 1       @ /root/Bela/projects/NIEMO/dsp/PitchShift.h:85:37
	vadd.f32	d0, d0, d12
.Ltmp297:
	.loc	5 85 26 is_stmt 0       @ /root/Bela/projects/NIEMO/dsp/PitchShift.h:85:26
	vstr	s0, [r0]
.Ltmp298:
	.loc	13 781 32 is_stmt 1     @ /usr/bin/../lib/gcc/arm-linux-gnueabihf/6.3.0/../../../../include/c++/6.3.0/bits/stl_vector.h:781:32
	ldr	r0, [r9, #64]
.Ltmp299:
	.loc	5 88 25                 @ /root/Bela/projects/NIEMO/dsp/PitchShift.h:88:25
	add	r0, r0, r7
.Ltmp300:
	.loc	5 66 19 discriminator 1 @ /root/Bela/projects/NIEMO/dsp/PitchShift.h:66:19
	add	r7, r7, #4
.Ltmp301:
	.loc	5 88 25                 @ /root/Bela/projects/NIEMO/dsp/PitchShift.h:88:25
	vstr	s20, [r0]
.Ltmp302:
	.loc	5 66 30 discriminator 1 @ /root/Bela/projects/NIEMO/dsp/PitchShift.h:66:30
	add	r0, r8, r8, lsr #31
.Ltmp303:
	.loc	5 91 22                 @ /root/Bela/projects/NIEMO/dsp/PitchShift.h:91:22
	vstr	s22, [r4]
.Ltmp304:
	.loc	5 66 2 discriminator 1  @ /root/Bela/projects/NIEMO/dsp/PitchShift.h:66:2
	cmp	r6, r0, asr #1
	blt	.LBB3_61
.Ltmp305:
@ BB#65:                                @ %.preheader172
	@DEBUG_VALUE: phase <- %S22
	@DEBUG_VALUE: amplitude <- %S20
	vldr	d9, [sp, #16]           @ 8-byte Reload
.Ltmp306:
	.loc	5 95 2 discriminator 1  @ /root/Bela/projects/NIEMO/dsp/PitchShift.h:95:2
	cmn	r8, #1
	blt	.LBB3_91
.Ltmp307:
@ BB#66:                                @ %.lr.ph180
	@DEBUG_VALUE: phase <- %S22
	@DEBUG_VALUE: amplitude <- %S20
	.loc	5 95 30 is_stmt 0 discriminator 1 @ /root/Bela/projects/NIEMO/dsp/PitchShift.h:95:30
	asr	r6, r0, #1
	mov	r3, #1
	.loc	5 95 2 discriminator 1  @ /root/Bela/projects/NIEMO/dsp/PitchShift.h:95:2
	cmp	r6, #0
.Ltmp308:
	.loc	13 781 32 is_stmt 1     @ /usr/bin/../lib/gcc/arm-linux-gnueabihf/6.3.0/../../../../include/c++/6.3.0/bits/stl_vector.h:781:32
	ldr	r12, [r9, #88]
.Ltmp309:
	.loc	13 781 32 is_stmt 0     @ /usr/bin/../lib/gcc/arm-linux-gnueabihf/6.3.0/../../../../include/c++/6.3.0/bits/stl_vector.h:781:32
	ldr	lr, [r9, #100]
.Ltmp310:
	.loc	5 95 2 is_stmt 1 discriminator 1 @ /root/Bela/projects/NIEMO/dsp/PitchShift.h:95:2
	addgt	r3, r3, r0, asr #1
	mov	r0, #0
	mov	r7, #0
	cmp	r3, #3
	bls	.LBB3_72
.Ltmp311:
@ BB#67:                                @ %min.iters.checked
	@DEBUG_VALUE: phase <- %S22
	@DEBUG_VALUE: amplitude <- %S20
	mov	r4, r3
	mov	r7, #0
	bfc	r4, #0, #2
	cmp	r4, #0
	beq	.LBB3_72
.Ltmp312:
@ BB#68:                                @ %vector.memcheck
	@DEBUG_VALUE: phase <- %S22
	@DEBUG_VALUE: amplitude <- %S20
	cmp	r6, #0
	mov	r1, #0
	movgt	r1, r6
	mov	r2, #4
	add	r1, r2, r1, lsl #2
	mov	r7, #0
	add	r2, r12, r1
	cmp	lr, r2
	addlo	r1, lr, r1
	cmplo	r12, r1
	blo	.LBB3_72
.Ltmp313:
@ BB#69:                                @ %vector.body.preheader
	@DEBUG_VALUE: phase <- %S22
	@DEBUG_VALUE: amplitude <- %S20
	.loc	5 96 52                 @ /root/Bela/projects/NIEMO/dsp/PitchShift.h:96:52
	vmov.i32	q8, #0x0
.Ltmp314:
	.loc	5 95 35 discriminator 3 @ /root/Bela/projects/NIEMO/dsp/PitchShift.h:95:35
	mov	r1, r12
	mov	r2, lr
	mov	r5, r4
.Ltmp315:
.LBB3_70:                               @ %vector.body
                                        @ =>This Inner Loop Header: Depth=1
	.loc	5 96 52                 @ /root/Bela/projects/NIEMO/dsp/PitchShift.h:96:52
	vst1.32	{d16, d17}, [r2]!
.Ltmp316:
	.loc	5 95 2 discriminator 1  @ /root/Bela/projects/NIEMO/dsp/PitchShift.h:95:2
	subs	r5, r5, #4
.Ltmp317:
	.loc	5 96 26                 @ /root/Bela/projects/NIEMO/dsp/PitchShift.h:96:26
	vst1.32	{d16, d17}, [r1]!
.Ltmp318:
	.loc	5 95 2 discriminator 1  @ /root/Bela/projects/NIEMO/dsp/PitchShift.h:95:2
	bne	.LBB3_70
@ BB#71:                                @ %middle.block
	mov	r7, r4
	cmp	r3, r4
	beq	.LBB3_74
.LBB3_72:                               @ %scalar.ph.preheader
.Ltmp319:
	.loc	13 0 0                  @ /usr/bin/../lib/gcc/arm-linux-gnueabihf/6.3.0/../../../../include/c++/6.3.0/bits/stl_vector.h:0:0
	add	r2, lr, r7, lsl #2
	add	r1, r12, r7, lsl #2
	sub	r3, r7, #1
.Ltmp320:
.LBB3_73:                               @ %scalar.ph
                                        @ =>This Inner Loop Header: Depth=1
	.loc	5 96 52                 @ /root/Bela/projects/NIEMO/dsp/PitchShift.h:96:52
	str	r0, [r2], #4
.Ltmp321:
	.loc	5 95 19 discriminator 1 @ /root/Bela/projects/NIEMO/dsp/PitchShift.h:95:19
	add	r3, r3, #1
.Ltmp322:
	.loc	5 96 26                 @ /root/Bela/projects/NIEMO/dsp/PitchShift.h:96:26
	str	r0, [r1], #4
.Ltmp323:
	.loc	5 95 2 discriminator 1  @ /root/Bela/projects/NIEMO/dsp/PitchShift.h:95:2
	cmp	r3, r6
	blt	.LBB3_73
.Ltmp324:
.LBB3_74:                               @ %.preheader171
	.loc	5 100 2 discriminator 1 @ /root/Bela/projects/NIEMO/dsp/PitchShift.h:100:2
	cmn	r8, #1
	blt	.LBB3_91
@ BB#75:                                @ %.lr.ph178
.Ltmp325:
	.loc	13 781 32               @ /usr/bin/../lib/gcc/arm-linux-gnueabihf/6.3.0/../../../../include/c++/6.3.0/bits/stl_vector.h:781:32
	ldr	r4, [r9, #64]
.Ltmp326:
	.loc	5 102 23                @ /root/Bela/projects/NIEMO/dsp/PitchShift.h:102:23
	vmov.f32	d8, #5.000000e-01
.Ltmp327:
	.loc	13 781 32               @ /usr/bin/../lib/gcc/arm-linux-gnueabihf/6.3.0/../../../../include/c++/6.3.0/bits/stl_vector.h:781:32
	ldr	r5, [r9, #76]
	mvn	r10, #0
.Ltmp328:
	.loc	13 781 32 is_stmt 0     @ /usr/bin/../lib/gcc/arm-linux-gnueabihf/6.3.0/../../../../include/c++/6.3.0/bits/stl_vector.h:781:32
	ldr	r7, [r9, #100]
.Ltmp329:
	.loc	13 781 32               @ /usr/bin/../lib/gcc/arm-linux-gnueabihf/6.3.0/../../../../include/c++/6.3.0/bits/stl_vector.h:781:32
	ldr	r0, [r9, #88]
.Ltmp330:
	.loc	13 781 32               @ /usr/bin/../lib/gcc/arm-linux-gnueabihf/6.3.0/../../../../include/c++/6.3.0/bits/stl_vector.h:781:32
	str	r0, [sp, #28]           @ 4-byte Spill
.Ltmp331:
.LBB3_76:                               @ =>This Inner Loop Header: Depth=1
	.loc	5 102 23 is_stmt 1      @ /root/Bela/projects/NIEMO/dsp/PitchShift.h:102:23
	add	r10, r10, #1
	vmov	s0, r10
	vcvt.f32.s32	d16, d0
	.loc	5 102 25 is_stmt 0      @ /root/Bela/projects/NIEMO/dsp/PitchShift.h:102:25
	vmul.f32	d16, d16, d9
	.loc	5 102 23                @ /root/Bela/projects/NIEMO/dsp/PitchShift.h:102:23
	vadd.f32	d0, d16, d8
	.loc	5 102 16 discriminator 1 @ /root/Bela/projects/NIEMO/dsp/PitchShift.h:102:16
                                        @ kill: %S0<def> %S0<kill> %D0<kill>
	bl	floorf
                                        @ kill: %S0<def> %S0<kill> %D0<def>
	.loc	5 102 16                @ /root/Bela/projects/NIEMO/dsp/PitchShift.h:102:16
	vcvt.s32.f32	d0, d0
	vmov	r0, s0
.Ltmp332:
	@DEBUG_VALUE: newBin <- %R0
	@DEBUG_VALUE: operator[]:__n <- %R0
	@DEBUG_VALUE: operator[]:__n <- %R0
	.loc	5 105 6 is_stmt 1       @ /root/Bela/projects/NIEMO/dsp/PitchShift.h:105:6
	cmp	r0, r6
	bgt	.LBB3_78
.Ltmp333:
@ BB#77:                                @   in Loop: Header=BB3_76 Depth=1
	@DEBUG_VALUE: operator[]:__n <- %R0
	@DEBUG_VALUE: operator[]:__n <- %R0
	@DEBUG_VALUE: newBin <- %R0
	.loc	13 781 41               @ /usr/bin/../lib/gcc/arm-linux-gnueabihf/6.3.0/../../../../include/c++/6.3.0/bits/stl_vector.h:781:41
	ldr	r1, [sp, #28]           @ 4-byte Reload
.Ltmp334:
	.loc	5 106 35                @ /root/Bela/projects/NIEMO/dsp/PitchShift.h:106:35
	vldr	s0, [r4]
.Ltmp335:
	.loc	13 781 41               @ /usr/bin/../lib/gcc/arm-linux-gnueabihf/6.3.0/../../../../include/c++/6.3.0/bits/stl_vector.h:781:41
	add	r1, r1, r0, lsl #2
.Ltmp336:
	.loc	13 781 41 is_stmt 0     @ /usr/bin/../lib/gcc/arm-linux-gnueabihf/6.3.0/../../../../include/c++/6.3.0/bits/stl_vector.h:781:41
	add	r0, r7, r0, lsl #2
.Ltmp337:
	.loc	5 106 32 is_stmt 1      @ /root/Bela/projects/NIEMO/dsp/PitchShift.h:106:32
	vldr	s2, [r1]
	vadd.f32	d0, d1, d0
	vstr	s0, [r1]
	.loc	5 107 35                @ /root/Bela/projects/NIEMO/dsp/PitchShift.h:107:35
	vldr	s0, [r5]
	.loc	5 107 58 is_stmt 0      @ /root/Bela/projects/NIEMO/dsp/PitchShift.h:107:58
	vmul.f32	d0, d0, d9
	.loc	5 107 33                @ /root/Bela/projects/NIEMO/dsp/PitchShift.h:107:33
	vstr	s0, [r0]
.Ltmp338:
.LBB3_78:                               @   in Loop: Header=BB3_76 Depth=1
	.loc	5 100 19 is_stmt 1 discriminator 1 @ /root/Bela/projects/NIEMO/dsp/PitchShift.h:100:19
	add	r4, r4, #4
	add	r5, r5, #4
	.loc	5 100 2 is_stmt 0 discriminator 1 @ /root/Bela/projects/NIEMO/dsp/PitchShift.h:100:2
	cmp	r10, r6
	blt	.LBB3_76
.Ltmp339:
@ BB#79:                                @ %.lr.ph175
	.loc	5 53 27 is_stmt 1       @ /root/Bela/projects/NIEMO/dsp/PitchShift.h:53:27
	movw	r0, :lower16:.L_MergedGlobals
.Ltmp340:
	.loc	5 116 40                @ /root/Bela/projects/NIEMO/dsp/PitchShift.h:116:40
	vldr	d15, .LCPI3_6
.Ltmp341:
	.loc	5 53 27                 @ /root/Bela/projects/NIEMO/dsp/PitchShift.h:53:27
	movt	r0, :upper16:.L_MergedGlobals
.Ltmp342:
	.loc	5 40 126 discriminator 2 @ /root/Bela/projects/NIEMO/dsp/PitchShift.h:40:126
	vldr	s16, .LCPI3_4
.Ltmp343:
	.loc	5 124 19 discriminator 1 @ /root/Bela/projects/NIEMO/dsp/PitchShift.h:124:19
	ldr	r2, [r0]
	ldr	r1, [r0, #4]
.Ltmp344:
	.loc	5 61 7                  @ /root/Bela/projects/NIEMO/dsp/PitchShift.h:61:7
	movw	r0, :lower16:.L_MergedGlobals.5
	movt	r0, :upper16:.L_MergedGlobals.5
.Ltmp345:
	.loc	13 781 32               @ /usr/bin/../lib/gcc/arm-linux-gnueabihf/6.3.0/../../../../include/c++/6.3.0/bits/stl_vector.h:781:32
	ldr	r10, [r9, #52]
.Ltmp346:
	.loc	7 39 38                 @ ./libraries/Fft/Fft.h:39:38
	ldr	r0, [r0, #108]
.Ltmp347:
	.loc	5 116 74                @ /root/Bela/projects/NIEMO/dsp/PitchShift.h:116:74
	vmov	s0, r1
.Ltmp348:
	.loc	13 781 32               @ /usr/bin/../lib/gcc/arm-linux-gnueabihf/6.3.0/../../../../include/c++/6.3.0/bits/stl_vector.h:781:32
	ldr	r7, [r9, #88]
.Ltmp349:
	.loc	5 116 74                @ /root/Bela/projects/NIEMO/dsp/PitchShift.h:116:74
	vcvt.f32.s32	d11, d0
.Ltmp350:
	.loc	13 781 32               @ /usr/bin/../lib/gcc/arm-linux-gnueabihf/6.3.0/../../../../include/c++/6.3.0/bits/stl_vector.h:781:32
	ldr	r5, [r9, #100]
.Ltmp351:
	.loc	5 112 2 discriminator 1 @ /root/Bela/projects/NIEMO/dsp/PitchShift.h:112:2
	add	r9, r0, #4
	add	r0, r0, r2, lsl #3
	add	r4, r0, #4
.Ltmp352:
	.loc	5 124 28 discriminator 1 @ /root/Bela/projects/NIEMO/dsp/PitchShift.h:124:28
	add	r0, r2, r2, lsr #31
.Ltmp353:
	.loc	5 40 29 discriminator 1 @ /root/Bela/projects/NIEMO/dsp/PitchShift.h:40:29
	vldr	s18, .LCPI3_2
.Ltmp354:
	.loc	5 124 28 discriminator 1 @ /root/Bela/projects/NIEMO/dsp/PitchShift.h:124:28
	asr	r0, r0, #1
	str	r2, [sp, #16]           @ 4-byte Spill
.Ltmp355:
	.loc	5 116 67                @ /root/Bela/projects/NIEMO/dsp/PitchShift.h:116:67
	vcvt.f64.f32	d14, s22
	str	r0, [sp, #28]           @ 4-byte Spill
	mov	r0, #0
.LBB3_80:                               @ =>This Inner Loop Header: Depth=1
	mov	r6, r0
	.loc	5 115 24                @ /root/Bela/projects/NIEMO/dsp/PitchShift.h:115:24
	vldr	s2, [r5]
	.loc	5 115 50 is_stmt 0      @ /root/Bela/projects/NIEMO/dsp/PitchShift.h:115:50
	vmov	s0, r6
	.loc	5 119 30 is_stmt 1      @ /root/Bela/projects/NIEMO/dsp/PitchShift.h:119:30
	vldr	s4, [r10]
	.loc	5 115 50                @ /root/Bela/projects/NIEMO/dsp/PitchShift.h:115:50
	vcvt.f32.s32	d0, d0
	.loc	5 114 21                @ /root/Bela/projects/NIEMO/dsp/PitchShift.h:114:21
	vldr	s24, [r7]
.Ltmp356:
	@DEBUG_VALUE: amplitude <- %S24
	.loc	5 115 48                @ /root/Bela/projects/NIEMO/dsp/PitchShift.h:115:48
	vsub.f32	d1, d1, d0
.Ltmp357:
	@DEBUG_VALUE: binDeviation <- %S2
	.loc	5 117 61                @ /root/Bela/projects/NIEMO/dsp/PitchShift.h:117:61
	vcvt.f64.f32	d17, s0
	.loc	5 116 21                @ /root/Bela/projects/NIEMO/dsp/PitchShift.h:116:21
	vcvt.f64.f32	d16, s2
	.loc	5 116 40 is_stmt 0      @ /root/Bela/projects/NIEMO/dsp/PitchShift.h:116:40
	vmul.f64	d16, d16, d15
	.loc	5 116 92                @ /root/Bela/projects/NIEMO/dsp/PitchShift.h:116:92
	vmov	s0, r8
	.loc	5 117 59 is_stmt 1      @ /root/Bela/projects/NIEMO/dsp/PitchShift.h:117:59
	vmul.f64	d17, d17, d15
	.loc	5 116 92                @ /root/Bela/projects/NIEMO/dsp/PitchShift.h:116:92
	vcvt.f32.s32	d0, d0
	.loc	5 116 65 is_stmt 0      @ /root/Bela/projects/NIEMO/dsp/PitchShift.h:116:65
	vmul.f64	d16, d16, d14
	.loc	5 116 85                @ /root/Bela/projects/NIEMO/dsp/PitchShift.h:116:85
	vcvt.f64.f32	d18, s0
	.loc	5 117 70 is_stmt 1      @ /root/Bela/projects/NIEMO/dsp/PitchShift.h:117:70
	vdiv.f64	d17, d17, d18
	.loc	5 116 83                @ /root/Bela/projects/NIEMO/dsp/PitchShift.h:116:83
	vdiv.f64	d16, d16, d18
	.loc	5 117 30                @ /root/Bela/projects/NIEMO/dsp/PitchShift.h:117:30
	vcvt.f32.f64	s0, d17
.Ltmp358:
	@DEBUG_VALUE: binCentreFrequency <- %S0
	.loc	5 116 21                @ /root/Bela/projects/NIEMO/dsp/PitchShift.h:116:21
	vcvt.f32.f64	s2, d16
.Ltmp359:
	@DEBUG_VALUE: phaseDiff <- %S2
	.loc	5 118 35                @ /root/Bela/projects/NIEMO/dsp/PitchShift.h:118:35
	vmul.f32	d16, d11, d0
	.loc	5 118 13 is_stmt 0      @ /root/Bela/projects/NIEMO/dsp/PitchShift.h:118:13
	vadd.f32	d16, d2, d16
.Ltmp360:
	@DEBUG_VALUE: phaseDiff <- undef
	.loc	5 119 50 is_stmt 1      @ /root/Bela/projects/NIEMO/dsp/PitchShift.h:119:50
	vadd.f32	d0, d16, d1
.Ltmp361:
	@DEBUG_VALUE: wrapPhase:phaseIn <- %S0
	.loc	5 40 35 discriminator 1 @ /root/Bela/projects/NIEMO/dsp/PitchShift.h:40:35
	vcvt.f64.f32	d16, s0
	.loc	5 40 12 is_stmt 0       @ /root/Bela/projects/NIEMO/dsp/PitchShift.h:40:12
	vcmpe.f32	s0, #0
	vmrs	APSR_nzcv, fpscr
.Ltmp362:
	@DEBUG_VALUE: operator[]:__n <- %R6
	bge	.LBB3_86
.Ltmp363:
@ BB#81:                                @   in Loop: Header=BB3_80 Depth=1
	@DEBUG_VALUE: operator[]:__n <- %R6
	@DEBUG_VALUE: wrapPhase:phaseIn <- %S0
	@DEBUG_VALUE: amplitude <- %S24
	.loc	5 40 140 discriminator 2 @ /root/Bela/projects/NIEMO/dsp/PitchShift.h:40:140
	vldr	d17, .LCPI3_3
.Ltmp364:
	.loc	5 40 126 discriminator 2 @ /root/Bela/projects/NIEMO/dsp/PitchShift.h:40:126
	vmov.f32	s1, s16
	.loc	5 40 140 discriminator 2 @ /root/Bela/projects/NIEMO/dsp/PitchShift.h:40:140
	vadd.f64	d16, d16, d17
	.loc	5 40 132 discriminator 2 @ /root/Bela/projects/NIEMO/dsp/PitchShift.h:40:132
	vcvt.f32.f64	s0, d16
.Ltmp365:
	.loc	5 40 126 discriminator 2 @ /root/Bela/projects/NIEMO/dsp/PitchShift.h:40:126
	bl	__fmodf_finite
	vcvt.f64.f32	d16, s0
.Ltmp366:
	.loc	5 40 197 discriminator 2 @ /root/Bela/projects/NIEMO/dsp/PitchShift.h:40:197
	vldr	d17, .LCPI3_1
	b	.LBB3_87
.Ltmp367:
	.p2align	3
@ BB#82:
.LCPI3_7:
	.long	1413754136              @ double -6.2831853071795862
	.long	3222872571
	.p2align	2
@ BB#83:
.LCPI3_8:
	.long	3234402267              @ float -6.28318548
	.p2align	3
@ BB#84:
.LCPI3_9:
	.long	1841940611              @ double 0.15915494309189535
	.long	1069834032
	.p2align	2
@ BB#85:
.LCPI3_10:
	.long	1086918619              @ float 6.28318548
.LBB3_86:                               @   in Loop: Header=BB3_80 Depth=1
.Ltmp368:
	@DEBUG_VALUE: operator[]:__n <- %R6
	@DEBUG_VALUE: wrapPhase:phaseIn <- %S0
	@DEBUG_VALUE: amplitude <- %S24
	vldr	d17, .LCPI3_1
.Ltmp369:
	.loc	5 40 29 discriminator 1 @ /root/Bela/projects/NIEMO/dsp/PitchShift.h:40:29
	vmov.f32	s1, s18
	.loc	5 40 43 discriminator 1 @ /root/Bela/projects/NIEMO/dsp/PitchShift.h:40:43
	vadd.f64	d16, d16, d17
	.loc	5 40 35 discriminator 1 @ /root/Bela/projects/NIEMO/dsp/PitchShift.h:40:35
	vcvt.f32.f64	s0, d16
.Ltmp370:
	.loc	5 40 29 discriminator 1 @ /root/Bela/projects/NIEMO/dsp/PitchShift.h:40:29
	bl	__fmodf_finite
	vcvt.f64.f32	d16, s0
.Ltmp371:
	.loc	5 40 140 discriminator 2 @ /root/Bela/projects/NIEMO/dsp/PitchShift.h:40:140
	vldr	d17, .LCPI3_3
.Ltmp372:
.LBB3_87:                               @ %_ZN10PitchShift9wrapPhaseEf.exit
                                        @   in Loop: Header=BB3_80 Depth=1
	@DEBUG_VALUE: operator[]:__n <- %R6
	@DEBUG_VALUE: amplitude <- %S24
	.loc	5 40 197 discriminator 2 @ /root/Bela/projects/NIEMO/dsp/PitchShift.h:40:197
	vadd.f64	d16, d16, d17
	add	r0, sp, #36
	add	r1, sp, #32
	.loc	5 40 12 discriminator 3 @ /root/Bela/projects/NIEMO/dsp/PitchShift.h:40:12
	vcvt.f32.f64	s20, d16
.Ltmp373:
	@DEBUG_VALUE: outPhase <- %S20
	.loc	5 121 32 is_stmt 1      @ /root/Bela/projects/NIEMO/dsp/PitchShift.h:121:32
	vmov.f32	s0, s20
	bl	sincosf
	vldr	s0, [sp, #32]
.Ltmp374:
	.loc	5 124 12                @ /root/Bela/projects/NIEMO/dsp/PitchShift.h:124:12
	cmp	r6, #1
.Ltmp375:
	.loc	5 121 32                @ /root/Bela/projects/NIEMO/dsp/PitchShift.h:121:32
	vldr	s2, [sp, #36]
	.loc	5 121 30 is_stmt 0      @ /root/Bela/projects/NIEMO/dsp/PitchShift.h:121:30
	vmul.f32	d0, d0, d12
.Ltmp376:
	.loc	5 126 41 is_stmt 1      @ /root/Bela/projects/NIEMO/dsp/PitchShift.h:126:41
	vmul.f32	d1, d1, d12
.Ltmp377:
	.loc	5 121 18                @ /root/Bela/projects/NIEMO/dsp/PitchShift.h:121:18
	vstr	s0, [r9, #-4]
	.loc	5 122 18                @ /root/Bela/projects/NIEMO/dsp/PitchShift.h:122:18
	vstr	s2, [r9]
	blt	.LBB3_90
.Ltmp378:
@ BB#88:                                @ %_ZN10PitchShift9wrapPhaseEf.exit
                                        @   in Loop: Header=BB3_80 Depth=1
	@DEBUG_VALUE: outPhase <- %S20
	@DEBUG_VALUE: operator[]:__n <- %R6
	@DEBUG_VALUE: amplitude <- %S24
	ldr	r0, [sp, #28]           @ 4-byte Reload
	cmp	r6, r0
	bge	.LBB3_90
.Ltmp379:
@ BB#89:                                @   in Loop: Header=BB3_80 Depth=1
	@DEBUG_VALUE: outPhase <- %S20
	@DEBUG_VALUE: operator[]:__n <- %R6
	@DEBUG_VALUE: amplitude <- %S24
	.loc	5 126 35                @ /root/Bela/projects/NIEMO/dsp/PitchShift.h:126:35
	vneg.f32	d1, d1
	.loc	5 125 33                @ /root/Bela/projects/NIEMO/dsp/PitchShift.h:125:33
	vstr	s0, [r4, #-4]
	.loc	5 126 33                @ /root/Bela/projects/NIEMO/dsp/PitchShift.h:126:33
	vstr	s2, [r4]
.Ltmp380:
.LBB3_90:                               @   in Loop: Header=BB3_80 Depth=1
	@DEBUG_VALUE: outPhase <- %S20
	@DEBUG_VALUE: operator[]:__n <- %R6
	@DEBUG_VALUE: amplitude <- %S24
	.loc	5 129 23                @ /root/Bela/projects/NIEMO/dsp/PitchShift.h:129:23
	vstr	s20, [r10]
.Ltmp381:
	.loc	5 124 17 discriminator 1 @ /root/Bela/projects/NIEMO/dsp/PitchShift.h:124:17
	add	r7, r7, #4
	ldr	r8, [sp, #16]           @ 4-byte Reload
	add	r5, r5, #4
.Ltmp382:
	.loc	5 112 2 discriminator 1 @ /root/Bela/projects/NIEMO/dsp/PitchShift.h:112:2
	ldr	r1, [sp, #28]           @ 4-byte Reload
.Ltmp383:
	.loc	5 124 17 discriminator 1 @ /root/Bela/projects/NIEMO/dsp/PitchShift.h:124:17
	add	r10, r10, #4
	add	r9, r9, #8
	sub	r4, r4, #8
.Ltmp384:
	.loc	5 112 37 discriminator 3 @ /root/Bela/projects/NIEMO/dsp/PitchShift.h:112:37
	add	r0, r6, #1
.Ltmp385:
	@DEBUG_VALUE: n <- %R0
	.loc	5 112 2 is_stmt 0 discriminator 1 @ /root/Bela/projects/NIEMO/dsp/PitchShift.h:112:2
	cmp	r6, r1
	blt	.LBB3_80
.Ltmp386:
.LBB3_91:                               @ %._crit_edge176
	@DEBUG_VALUE: fdi:this <- [%SP+12]
	.loc	5 133 7 is_stmt 1       @ /root/Bela/projects/NIEMO/dsp/PitchShift.h:133:7
	ldr	r0, [sp, #12]           @ 4-byte Reload
	bl	_ZN3Fft4ifftEv
.Ltmp387:
	.loc	5 53 27                 @ /root/Bela/projects/NIEMO/dsp/PitchShift.h:53:27
	movw	r0, :lower16:.L_MergedGlobals
	movt	r0, :upper16:.L_MergedGlobals
.Ltmp388:
	.loc	5 135 21 discriminator 1 @ /root/Bela/projects/NIEMO/dsp/PitchShift.h:135:21
	ldr	r0, [r0]
	.loc	5 135 2 is_stmt 0 discriminator 1 @ /root/Bela/projects/NIEMO/dsp/PitchShift.h:135:2
	cmp	r0, #1
.Ltmp389:
	@DEBUG_VALUE: n <- 0
	blt	.LBB3_94
@ BB#92:                                @ %.lr.ph
.Ltmp390:
	.loc	13 781 32 is_stmt 1     @ /usr/bin/../lib/gcc/arm-linux-gnueabihf/6.3.0/../../../../include/c++/6.3.0/bits/stl_vector.h:781:32
	ldr	r2, [sp, #4]            @ 4-byte Reload
.Ltmp391:
	.loc	5 61 7                  @ /root/Bela/projects/NIEMO/dsp/PitchShift.h:61:7
	movw	r3, :lower16:.L_MergedGlobals.5
	movt	r3, :upper16:.L_MergedGlobals.5
.Ltmp392:
	.loc	5 135 2 discriminator 1 @ /root/Bela/projects/NIEMO/dsp/PitchShift.h:135:2
	ldr	r1, [sp, #8]            @ 4-byte Reload
	mov	r7, r3
	mov	r6, #0
.Ltmp393:
	.loc	13 781 32               @ /usr/bin/../lib/gcc/arm-linux-gnueabihf/6.3.0/../../../../include/c++/6.3.0/bits/stl_vector.h:781:32
	ldr	r3, [r7, #56]
.Ltmp394:
	.loc	5 135 2 discriminator 1 @ /root/Bela/projects/NIEMO/dsp/PitchShift.h:135:2
	sub	r1, r1, r0
.Ltmp395:
	.loc	13 781 32               @ /usr/bin/../lib/gcc/arm-linux-gnueabihf/6.3.0/../../../../include/c++/6.3.0/bits/stl_vector.h:781:32
	ldr	r2, [r2]
.Ltmp396:
	.loc	7 52 37                 @ ./libraries/Fft/Fft.h:52:37
	ldr	r7, [r7, #104]
.Ltmp397:
.LBB3_93:                               @ =>This Inner Loop Header: Depth=1
	@DEBUG_VALUE: td:n <- %R6
	.loc	5 136 71                @ /root/Bela/projects/NIEMO/dsp/PitchShift.h:136:71
	add	r5, r1, r6
	.loc	5 137 42                @ /root/Bela/projects/NIEMO/dsp/PitchShift.h:137:42
	vldr	s0, [r7]
	.loc	5 137 50 is_stmt 0      @ /root/Bela/projects/NIEMO/dsp/PitchShift.h:137:50
	vldr	s2, [r3]
.Ltmp398:
	.loc	5 135 32 is_stmt 1 discriminator 3 @ /root/Bela/projects/NIEMO/dsp/PitchShift.h:135:32
	add	r6, r6, #1
.Ltmp399:
	@DEBUG_VALUE: n <- %R6
	.loc	5 136 71                @ /root/Bela/projects/NIEMO/dsp/PitchShift.h:136:71
	bfc	r5, #12, #20
.Ltmp400:
	@DEBUG_VALUE: circularBufferIndex <- %R5
	@DEBUG_VALUE: operator[]:__n <- %R5
	.loc	5 135 19 discriminator 1 @ /root/Bela/projects/NIEMO/dsp/PitchShift.h:135:19
	add	r7, r7, #4
.Ltmp401:
	.loc	5 137 48                @ /root/Bela/projects/NIEMO/dsp/PitchShift.h:137:48
	vmul.f32	d16, d1, d0
.Ltmp402:
	.loc	5 135 19 discriminator 1 @ /root/Bela/projects/NIEMO/dsp/PitchShift.h:135:19
	add	r3, r3, #4
.Ltmp403:
	.loc	13 781 41               @ /usr/bin/../lib/gcc/arm-linux-gnueabihf/6.3.0/../../../../include/c++/6.3.0/bits/stl_vector.h:781:41
	add	r5, r2, r5, lsl #2
.Ltmp404:
	.loc	5 135 2 discriminator 1 @ /root/Bela/projects/NIEMO/dsp/PitchShift.h:135:2
	cmp	r6, r0
.Ltmp405:
	.loc	5 137 34                @ /root/Bela/projects/NIEMO/dsp/PitchShift.h:137:34
	vldr	s0, [r5]
	vadd.f32	d0, d0, d16
	vstr	s0, [r5]
	blt	.LBB3_93
.Ltmp406:
.LBB3_94:                               @ %._crit_edge
	.loc	5 139 1 discriminator 7 @ /root/Bela/projects/NIEMO/dsp/PitchShift.h:139:1
	sub	sp, r11, #96
	vpop	{d8, d9, d10, d11, d12, d13, d14, d15}
	add	sp, sp, #4
	pop	{r4, r5, r6, r7, r8, r9, r10, r11, pc}
	.p2align	3
@ BB#95:
.LCPI3_11:
	.long	1413754136              @ double -3.1415926535897931
	.long	3221823995
.LBB3_96:                               @ %.noexc.i.i
.Ltmp407:
	@DEBUG_VALUE: __niter <- %R6
	@DEBUG_VALUE: __fill_n_a<float *, unsigned int, float>:__n <- %R6
	@DEBUG_VALUE: fill_n<float *, unsigned int, float>:__n <- %R6
	@DEBUG_VALUE: __uninit_default_n<float *, unsigned int>:__n <- %R6
	@DEBUG_VALUE: __uninitialized_default_n<float *, unsigned int>:__n <- %R6
	@DEBUG_VALUE: __uninitialized_default_n_a<float *, unsigned int, float>:__n <- %R6
	@DEBUG_VALUE: _M_default_initialize:__n <- %R6
	@DEBUG_VALUE: allocate:__n <- %R6
	@DEBUG_VALUE: allocate:__n <- %R6
	@DEBUG_VALUE: _M_allocate:__n <- %R6
	@DEBUG_VALUE: _M_create_storage:__n <- %R6
	@DEBUG_VALUE: vector:__n <- %R6
	@DEBUG_VALUE: _Vector_base:__n <- %R6
	@DEBUG_VALUE: processFft:outBuffer <- %R8
	@DEBUG_VALUE: processFft:inPointer <- %R10
	.loc	9 102 4                 @ /usr/bin/../lib/gcc/arm-linux-gnueabihf/6.3.0/../../../../include/c++/6.3.0/ext/new_allocator.h:102:4
.Ltmp37:
	mov	lr, pc
	b	_ZSt17__throw_bad_allocv
.Ltmp38:
.Ltmp408:
@ BB#97:                                @ %.noexc
	@DEBUG_VALUE: __niter <- %R6
	@DEBUG_VALUE: __fill_n_a<float *, unsigned int, float>:__n <- %R6
	@DEBUG_VALUE: fill_n<float *, unsigned int, float>:__n <- %R6
	@DEBUG_VALUE: __uninit_default_n<float *, unsigned int>:__n <- %R6
	@DEBUG_VALUE: __uninitialized_default_n<float *, unsigned int>:__n <- %R6
	@DEBUG_VALUE: __uninitialized_default_n_a<float *, unsigned int, float>:__n <- %R6
	@DEBUG_VALUE: _M_default_initialize:__n <- %R6
	@DEBUG_VALUE: allocate:__n <- %R6
	@DEBUG_VALUE: allocate:__n <- %R6
	@DEBUG_VALUE: _M_allocate:__n <- %R6
	@DEBUG_VALUE: _M_create_storage:__n <- %R6
	@DEBUG_VALUE: vector:__n <- %R6
	@DEBUG_VALUE: _Vector_base:__n <- %R6
	@DEBUG_VALUE: processFft:outBuffer <- %R8
	@DEBUG_VALUE: processFft:inPointer <- %R10
.LBB3_98:                               @ %.noexc.i.i121
	@DEBUG_VALUE: __niter <- %R6
	@DEBUG_VALUE: __fill_n_a<float *, unsigned int, float>:__n <- %R6
	@DEBUG_VALUE: fill_n<float *, unsigned int, float>:__n <- %R6
	@DEBUG_VALUE: __uninit_default_n<float *, unsigned int>:__n <- %R6
	@DEBUG_VALUE: __uninitialized_default_n<float *, unsigned int>:__n <- %R6
	@DEBUG_VALUE: __uninitialized_default_n_a<float *, unsigned int, float>:__n <- %R6
	@DEBUG_VALUE: _M_default_initialize:__n <- %R6
	@DEBUG_VALUE: allocate:__n <- %R6
	@DEBUG_VALUE: allocate:__n <- %R6
	@DEBUG_VALUE: _M_allocate:__n <- %R6
	@DEBUG_VALUE: _M_create_storage:__n <- %R6
	@DEBUG_VALUE: vector:__n <- %R6
	@DEBUG_VALUE: _Vector_base:__n <- %R6
	@DEBUG_VALUE: processFft:outBuffer <- %R8
	@DEBUG_VALUE: processFft:inPointer <- %R10
	.loc	9 102 4 is_stmt 0       @ /usr/bin/../lib/gcc/arm-linux-gnueabihf/6.3.0/../../../../include/c++/6.3.0/ext/new_allocator.h:102:4
.Ltmp42:
	mov	lr, pc
	b	_ZSt17__throw_bad_allocv
.Ltmp43:
.Ltmp409:
@ BB#99:                                @ %.noexc124
	@DEBUG_VALUE: __niter <- %R6
	@DEBUG_VALUE: __fill_n_a<float *, unsigned int, float>:__n <- %R6
	@DEBUG_VALUE: fill_n<float *, unsigned int, float>:__n <- %R6
	@DEBUG_VALUE: __uninit_default_n<float *, unsigned int>:__n <- %R6
	@DEBUG_VALUE: __uninitialized_default_n<float *, unsigned int>:__n <- %R6
	@DEBUG_VALUE: __uninitialized_default_n_a<float *, unsigned int, float>:__n <- %R6
	@DEBUG_VALUE: _M_default_initialize:__n <- %R6
	@DEBUG_VALUE: allocate:__n <- %R6
	@DEBUG_VALUE: allocate:__n <- %R6
	@DEBUG_VALUE: _M_allocate:__n <- %R6
	@DEBUG_VALUE: _M_create_storage:__n <- %R6
	@DEBUG_VALUE: vector:__n <- %R6
	@DEBUG_VALUE: _Vector_base:__n <- %R6
	@DEBUG_VALUE: processFft:outBuffer <- %R8
	@DEBUG_VALUE: processFft:inPointer <- %R10
	.p2align	3
@ BB#100:
.LCPI3_12:
	.long	1413754136              @ double 3.1415926535897931
	.long	1074340347
.LBB3_101:                              @ %.noexc.i.i129
.Ltmp410:
	@DEBUG_VALUE: __niter <- %R6
	@DEBUG_VALUE: __fill_n_a<float *, unsigned int, float>:__n <- %R6
	@DEBUG_VALUE: fill_n<float *, unsigned int, float>:__n <- %R6
	@DEBUG_VALUE: __uninit_default_n<float *, unsigned int>:__n <- %R6
	@DEBUG_VALUE: __uninitialized_default_n<float *, unsigned int>:__n <- %R6
	@DEBUG_VALUE: __uninitialized_default_n_a<float *, unsigned int, float>:__n <- %R6
	@DEBUG_VALUE: _M_default_initialize:__n <- %R6
	@DEBUG_VALUE: allocate:__n <- %R6
	@DEBUG_VALUE: allocate:__n <- %R6
	@DEBUG_VALUE: _M_allocate:__n <- %R6
	@DEBUG_VALUE: _M_create_storage:__n <- %R6
	@DEBUG_VALUE: vector:__n <- %R6
	@DEBUG_VALUE: _Vector_base:__n <- %R6
	@DEBUG_VALUE: processFft:outBuffer <- %R8
	@DEBUG_VALUE: processFft:inPointer <- %R10
	.loc	9 102 4                 @ /usr/bin/../lib/gcc/arm-linux-gnueabihf/6.3.0/../../../../include/c++/6.3.0/ext/new_allocator.h:102:4
.Ltmp47:
	mov	lr, pc
	b	_ZSt17__throw_bad_allocv
.Ltmp48:
.Ltmp411:
@ BB#102:                               @ %.noexc132
	@DEBUG_VALUE: __niter <- %R6
	@DEBUG_VALUE: __fill_n_a<float *, unsigned int, float>:__n <- %R6
	@DEBUG_VALUE: fill_n<float *, unsigned int, float>:__n <- %R6
	@DEBUG_VALUE: __uninit_default_n<float *, unsigned int>:__n <- %R6
	@DEBUG_VALUE: __uninitialized_default_n<float *, unsigned int>:__n <- %R6
	@DEBUG_VALUE: __uninitialized_default_n_a<float *, unsigned int, float>:__n <- %R6
	@DEBUG_VALUE: _M_default_initialize:__n <- %R6
	@DEBUG_VALUE: allocate:__n <- %R6
	@DEBUG_VALUE: allocate:__n <- %R6
	@DEBUG_VALUE: _M_allocate:__n <- %R6
	@DEBUG_VALUE: _M_create_storage:__n <- %R6
	@DEBUG_VALUE: vector:__n <- %R6
	@DEBUG_VALUE: _Vector_base:__n <- %R6
	@DEBUG_VALUE: processFft:outBuffer <- %R8
	@DEBUG_VALUE: processFft:inPointer <- %R10
.LBB3_103:                              @ %.noexc.i.i136
	@DEBUG_VALUE: __niter <- %R6
	@DEBUG_VALUE: __fill_n_a<float *, unsigned int, float>:__n <- %R6
	@DEBUG_VALUE: fill_n<float *, unsigned int, float>:__n <- %R6
	@DEBUG_VALUE: __uninit_default_n<float *, unsigned int>:__n <- %R6
	@DEBUG_VALUE: __uninitialized_default_n<float *, unsigned int>:__n <- %R6
	@DEBUG_VALUE: __uninitialized_default_n_a<float *, unsigned int, float>:__n <- %R6
	@DEBUG_VALUE: _M_default_initialize:__n <- %R6
	@DEBUG_VALUE: allocate:__n <- %R6
	@DEBUG_VALUE: allocate:__n <- %R6
	@DEBUG_VALUE: _M_allocate:__n <- %R6
	@DEBUG_VALUE: _M_create_storage:__n <- %R6
	@DEBUG_VALUE: processFft:outBuffer <- %R8
	@DEBUG_VALUE: processFft:inPointer <- %R10
	.loc	9 102 4                 @ /usr/bin/../lib/gcc/arm-linux-gnueabihf/6.3.0/../../../../include/c++/6.3.0/ext/new_allocator.h:102:4
.Ltmp52:
	mov	lr, pc
	b	_ZSt17__throw_bad_allocv
.Ltmp53:
.Ltmp412:
@ BB#104:                               @ %.noexc139
	@DEBUG_VALUE: __niter <- %R6
	@DEBUG_VALUE: __fill_n_a<float *, unsigned int, float>:__n <- %R6
	@DEBUG_VALUE: fill_n<float *, unsigned int, float>:__n <- %R6
	@DEBUG_VALUE: __uninit_default_n<float *, unsigned int>:__n <- %R6
	@DEBUG_VALUE: __uninitialized_default_n<float *, unsigned int>:__n <- %R6
	@DEBUG_VALUE: __uninitialized_default_n_a<float *, unsigned int, float>:__n <- %R6
	@DEBUG_VALUE: _M_default_initialize:__n <- %R6
	@DEBUG_VALUE: allocate:__n <- %R6
	@DEBUG_VALUE: allocate:__n <- %R6
	@DEBUG_VALUE: _M_allocate:__n <- %R6
	@DEBUG_VALUE: _M_create_storage:__n <- %R6
	@DEBUG_VALUE: processFft:outBuffer <- %R8
	@DEBUG_VALUE: processFft:inPointer <- %R10
.LBB3_105:                              @ %.noexc.i.i143
	@DEBUG_VALUE: __niter <- %R6
	@DEBUG_VALUE: __fill_n_a<float *, unsigned int, float>:__n <- %R6
	@DEBUG_VALUE: fill_n<float *, unsigned int, float>:__n <- %R6
	@DEBUG_VALUE: __uninit_default_n<float *, unsigned int>:__n <- %R6
	@DEBUG_VALUE: __uninitialized_default_n<float *, unsigned int>:__n <- %R6
	@DEBUG_VALUE: __uninitialized_default_n_a<float *, unsigned int, float>:__n <- %R6
	@DEBUG_VALUE: _M_default_initialize:__n <- %R6
	@DEBUG_VALUE: allocate:__n <- %R6
	@DEBUG_VALUE: allocate:__n <- %R6
	@DEBUG_VALUE: _M_allocate:__n <- %R6
	@DEBUG_VALUE: _M_create_storage:__n <- %R6
	@DEBUG_VALUE: processFft:outBuffer <- %R8
	@DEBUG_VALUE: processFft:inPointer <- %R10
	.loc	9 102 4                 @ /usr/bin/../lib/gcc/arm-linux-gnueabihf/6.3.0/../../../../include/c++/6.3.0/ext/new_allocator.h:102:4
.Ltmp57:
	mov	lr, pc
	b	_ZSt17__throw_bad_allocv
.Ltmp58:
.Ltmp413:
@ BB#106:                               @ %.noexc146
	@DEBUG_VALUE: __niter <- %R6
	@DEBUG_VALUE: __fill_n_a<float *, unsigned int, float>:__n <- %R6
	@DEBUG_VALUE: fill_n<float *, unsigned int, float>:__n <- %R6
	@DEBUG_VALUE: __uninit_default_n<float *, unsigned int>:__n <- %R6
	@DEBUG_VALUE: __uninitialized_default_n<float *, unsigned int>:__n <- %R6
	@DEBUG_VALUE: __uninitialized_default_n_a<float *, unsigned int, float>:__n <- %R6
	@DEBUG_VALUE: _M_default_initialize:__n <- %R6
	@DEBUG_VALUE: allocate:__n <- %R6
	@DEBUG_VALUE: allocate:__n <- %R6
	@DEBUG_VALUE: _M_allocate:__n <- %R6
	@DEBUG_VALUE: _M_create_storage:__n <- %R6
	@DEBUG_VALUE: processFft:outBuffer <- %R8
	@DEBUG_VALUE: processFft:inPointer <- %R10
.LBB3_107:                              @ %.noexc.i.i157
	@DEBUG_VALUE: __niter <- %R6
	@DEBUG_VALUE: __fill_n_a<float *, unsigned int, float>:__n <- %R6
	@DEBUG_VALUE: fill_n<float *, unsigned int, float>:__n <- %R6
	@DEBUG_VALUE: __uninit_default_n<float *, unsigned int>:__n <- %R6
	@DEBUG_VALUE: __uninitialized_default_n<float *, unsigned int>:__n <- %R6
	@DEBUG_VALUE: __uninitialized_default_n_a<float *, unsigned int, float>:__n <- %R6
	@DEBUG_VALUE: _M_default_initialize:__n <- %R6
	@DEBUG_VALUE: allocate:__n <- %R6
	@DEBUG_VALUE: allocate:__n <- %R6
	@DEBUG_VALUE: _M_allocate:__n <- %R6
	@DEBUG_VALUE: _M_create_storage:__n <- %R6
	@DEBUG_VALUE: processFft:outBuffer <- %R8
	@DEBUG_VALUE: processFft:inPointer <- %R10
	.loc	9 102 4                 @ /usr/bin/../lib/gcc/arm-linux-gnueabihf/6.3.0/../../../../include/c++/6.3.0/ext/new_allocator.h:102:4
.Ltmp62:
	mov	lr, pc
	b	_ZSt17__throw_bad_allocv
.Ltmp63:
.Ltmp414:
@ BB#108:                               @ %.noexc160
	@DEBUG_VALUE: __niter <- %R6
	@DEBUG_VALUE: __fill_n_a<float *, unsigned int, float>:__n <- %R6
	@DEBUG_VALUE: fill_n<float *, unsigned int, float>:__n <- %R6
	@DEBUG_VALUE: __uninit_default_n<float *, unsigned int>:__n <- %R6
	@DEBUG_VALUE: __uninitialized_default_n<float *, unsigned int>:__n <- %R6
	@DEBUG_VALUE: __uninitialized_default_n_a<float *, unsigned int, float>:__n <- %R6
	@DEBUG_VALUE: _M_default_initialize:__n <- %R6
	@DEBUG_VALUE: allocate:__n <- %R6
	@DEBUG_VALUE: allocate:__n <- %R6
	@DEBUG_VALUE: _M_allocate:__n <- %R6
	@DEBUG_VALUE: _M_create_storage:__n <- %R6
	@DEBUG_VALUE: processFft:outBuffer <- %R8
	@DEBUG_VALUE: processFft:inPointer <- %R10
.LBB3_109:                              @ %.noexc.i.i150
	@DEBUG_VALUE: __niter <- %R6
	@DEBUG_VALUE: __fill_n_a<float *, unsigned int, float>:__n <- %R6
	@DEBUG_VALUE: fill_n<float *, unsigned int, float>:__n <- %R6
	@DEBUG_VALUE: __uninit_default_n<float *, unsigned int>:__n <- %R6
	@DEBUG_VALUE: __uninitialized_default_n<float *, unsigned int>:__n <- %R6
	@DEBUG_VALUE: __uninitialized_default_n_a<float *, unsigned int, float>:__n <- %R6
	@DEBUG_VALUE: _M_default_initialize:__n <- %R6
	@DEBUG_VALUE: allocate:__n <- %R6
	@DEBUG_VALUE: allocate:__n <- %R6
	@DEBUG_VALUE: _M_allocate:__n <- %R6
	@DEBUG_VALUE: _M_create_storage:__n <- %R6
	@DEBUG_VALUE: processFft:outBuffer <- %R8
	@DEBUG_VALUE: processFft:inPointer <- %R10
	.loc	9 102 4                 @ /usr/bin/../lib/gcc/arm-linux-gnueabihf/6.3.0/../../../../include/c++/6.3.0/ext/new_allocator.h:102:4
.Ltmp67:
	mov	lr, pc
	b	_ZSt17__throw_bad_allocv
.Ltmp68:
.Ltmp415:
@ BB#110:                               @ %.noexc153
	@DEBUG_VALUE: __niter <- %R6
	@DEBUG_VALUE: __fill_n_a<float *, unsigned int, float>:__n <- %R6
	@DEBUG_VALUE: fill_n<float *, unsigned int, float>:__n <- %R6
	@DEBUG_VALUE: __uninit_default_n<float *, unsigned int>:__n <- %R6
	@DEBUG_VALUE: __uninitialized_default_n<float *, unsigned int>:__n <- %R6
	@DEBUG_VALUE: __uninitialized_default_n_a<float *, unsigned int, float>:__n <- %R6
	@DEBUG_VALUE: _M_default_initialize:__n <- %R6
	@DEBUG_VALUE: allocate:__n <- %R6
	@DEBUG_VALUE: allocate:__n <- %R6
	@DEBUG_VALUE: _M_allocate:__n <- %R6
	@DEBUG_VALUE: _M_create_storage:__n <- %R6
	@DEBUG_VALUE: processFft:outBuffer <- %R8
	@DEBUG_VALUE: processFft:inPointer <- %R10
.LBB3_111:
	@DEBUG_VALUE: __niter <- %R6
	@DEBUG_VALUE: __fill_n_a<float *, unsigned int, float>:__n <- %R6
	@DEBUG_VALUE: fill_n<float *, unsigned int, float>:__n <- %R6
	@DEBUG_VALUE: __uninit_default_n<float *, unsigned int>:__n <- %R6
	@DEBUG_VALUE: __uninitialized_default_n<float *, unsigned int>:__n <- %R6
	@DEBUG_VALUE: __uninitialized_default_n_a<float *, unsigned int, float>:__n <- %R6
	@DEBUG_VALUE: _M_default_initialize:__n <- %R6
	@DEBUG_VALUE: allocate:__n <- %R6
	@DEBUG_VALUE: allocate:__n <- %R6
	@DEBUG_VALUE: _M_allocate:__n <- %R6
	@DEBUG_VALUE: _M_create_storage:__n <- %R6
	@DEBUG_VALUE: processFft:outBuffer <- %R8
	@DEBUG_VALUE: processFft:inPointer <- %R10
.Ltmp69:
	b	.LBB3_117
.Ltmp416:
.LBB3_112:
	@DEBUG_VALUE: __niter <- %R6
	@DEBUG_VALUE: __fill_n_a<float *, unsigned int, float>:__n <- %R6
	@DEBUG_VALUE: fill_n<float *, unsigned int, float>:__n <- %R6
	@DEBUG_VALUE: __uninit_default_n<float *, unsigned int>:__n <- %R6
	@DEBUG_VALUE: __uninitialized_default_n<float *, unsigned int>:__n <- %R6
	@DEBUG_VALUE: __uninitialized_default_n_a<float *, unsigned int, float>:__n <- %R6
	@DEBUG_VALUE: _M_default_initialize:__n <- %R6
	@DEBUG_VALUE: allocate:__n <- %R6
	@DEBUG_VALUE: allocate:__n <- %R6
	@DEBUG_VALUE: _M_allocate:__n <- %R6
	@DEBUG_VALUE: _M_create_storage:__n <- %R6
	@DEBUG_VALUE: processFft:outBuffer <- %R8
	@DEBUG_VALUE: processFft:inPointer <- %R10
.Ltmp64:
	b	.LBB3_117
.Ltmp417:
.LBB3_113:
	@DEBUG_VALUE: __niter <- %R6
	@DEBUG_VALUE: __fill_n_a<float *, unsigned int, float>:__n <- %R6
	@DEBUG_VALUE: fill_n<float *, unsigned int, float>:__n <- %R6
	@DEBUG_VALUE: __uninit_default_n<float *, unsigned int>:__n <- %R6
	@DEBUG_VALUE: __uninitialized_default_n<float *, unsigned int>:__n <- %R6
	@DEBUG_VALUE: __uninitialized_default_n_a<float *, unsigned int, float>:__n <- %R6
	@DEBUG_VALUE: _M_default_initialize:__n <- %R6
	@DEBUG_VALUE: allocate:__n <- %R6
	@DEBUG_VALUE: allocate:__n <- %R6
	@DEBUG_VALUE: _M_allocate:__n <- %R6
	@DEBUG_VALUE: _M_create_storage:__n <- %R6
	@DEBUG_VALUE: processFft:outBuffer <- %R8
	@DEBUG_VALUE: processFft:inPointer <- %R10
.Ltmp59:
	b	.LBB3_117
.Ltmp418:
.LBB3_114:
	@DEBUG_VALUE: __niter <- %R6
	@DEBUG_VALUE: __fill_n_a<float *, unsigned int, float>:__n <- %R6
	@DEBUG_VALUE: fill_n<float *, unsigned int, float>:__n <- %R6
	@DEBUG_VALUE: __uninit_default_n<float *, unsigned int>:__n <- %R6
	@DEBUG_VALUE: __uninitialized_default_n<float *, unsigned int>:__n <- %R6
	@DEBUG_VALUE: __uninitialized_default_n_a<float *, unsigned int, float>:__n <- %R6
	@DEBUG_VALUE: _M_default_initialize:__n <- %R6
	@DEBUG_VALUE: allocate:__n <- %R6
	@DEBUG_VALUE: allocate:__n <- %R6
	@DEBUG_VALUE: _M_allocate:__n <- %R6
	@DEBUG_VALUE: _M_create_storage:__n <- %R6
	@DEBUG_VALUE: processFft:outBuffer <- %R8
	@DEBUG_VALUE: processFft:inPointer <- %R10
.Ltmp54:
	b	.LBB3_117
.Ltmp419:
.LBB3_115:
	@DEBUG_VALUE: __niter <- %R6
	@DEBUG_VALUE: __fill_n_a<float *, unsigned int, float>:__n <- %R6
	@DEBUG_VALUE: fill_n<float *, unsigned int, float>:__n <- %R6
	@DEBUG_VALUE: __uninit_default_n<float *, unsigned int>:__n <- %R6
	@DEBUG_VALUE: __uninitialized_default_n<float *, unsigned int>:__n <- %R6
	@DEBUG_VALUE: __uninitialized_default_n_a<float *, unsigned int, float>:__n <- %R6
	@DEBUG_VALUE: _M_default_initialize:__n <- %R6
	@DEBUG_VALUE: allocate:__n <- %R6
	@DEBUG_VALUE: allocate:__n <- %R6
	@DEBUG_VALUE: _M_allocate:__n <- %R6
	@DEBUG_VALUE: _M_create_storage:__n <- %R6
	@DEBUG_VALUE: vector:__n <- %R6
	@DEBUG_VALUE: _Vector_base:__n <- %R6
	@DEBUG_VALUE: processFft:outBuffer <- %R8
	@DEBUG_VALUE: processFft:inPointer <- %R10
.Ltmp49:
	b	.LBB3_117
.Ltmp420:
.LBB3_116:
	@DEBUG_VALUE: __niter <- %R6
	@DEBUG_VALUE: __fill_n_a<float *, unsigned int, float>:__n <- %R6
	@DEBUG_VALUE: fill_n<float *, unsigned int, float>:__n <- %R6
	@DEBUG_VALUE: __uninit_default_n<float *, unsigned int>:__n <- %R6
	@DEBUG_VALUE: __uninitialized_default_n<float *, unsigned int>:__n <- %R6
	@DEBUG_VALUE: __uninitialized_default_n_a<float *, unsigned int, float>:__n <- %R6
	@DEBUG_VALUE: _M_default_initialize:__n <- %R6
	@DEBUG_VALUE: allocate:__n <- %R6
	@DEBUG_VALUE: allocate:__n <- %R6
	@DEBUG_VALUE: _M_allocate:__n <- %R6
	@DEBUG_VALUE: _M_create_storage:__n <- %R6
	@DEBUG_VALUE: vector:__n <- %R6
	@DEBUG_VALUE: _Vector_base:__n <- %R6
	@DEBUG_VALUE: processFft:outBuffer <- %R8
	@DEBUG_VALUE: processFft:inPointer <- %R10
.Ltmp44:
.Ltmp421:
.LBB3_117:
	@DEBUG_VALUE: processFft:outBuffer <- %R8
	@DEBUG_VALUE: processFft:inPointer <- %R10
	mov	r5, r0
	.loc	5 45 2 is_stmt 1 discriminator 10 @ /root/Bela/projects/NIEMO/dsp/PitchShift.h:45:2
	mov	r0, r4
.Ltmp422:
.LBB3_118:
	@DEBUG_VALUE: processFft:outBuffer <- %R8
	@DEBUG_VALUE: processFft:inPointer <- %R10
	.loc	5 44 3 discriminator 11 @ /root/Bela/projects/NIEMO/dsp/PitchShift.h:44:3
	bl	__cxa_guard_abort
	mov	r0, r5
	mov	lr, pc
	b	_Unwind_Resume
.Ltmp423:
.LBB3_119:
	@DEBUG_VALUE: __niter <- %R6
	@DEBUG_VALUE: __fill_n_a<float *, unsigned int, float>:__n <- %R6
	@DEBUG_VALUE: fill_n<float *, unsigned int, float>:__n <- %R6
	@DEBUG_VALUE: __uninit_default_n<float *, unsigned int>:__n <- %R6
	@DEBUG_VALUE: __uninitialized_default_n<float *, unsigned int>:__n <- %R6
	@DEBUG_VALUE: __uninitialized_default_n_a<float *, unsigned int, float>:__n <- %R6
	@DEBUG_VALUE: _M_default_initialize:__n <- %R6
	@DEBUG_VALUE: allocate:__n <- %R6
	@DEBUG_VALUE: allocate:__n <- %R6
	@DEBUG_VALUE: _M_allocate:__n <- %R6
	@DEBUG_VALUE: _M_create_storage:__n <- %R6
	@DEBUG_VALUE: vector:__n <- %R6
	@DEBUG_VALUE: _Vector_base:__n <- %R6
	@DEBUG_VALUE: processFft:outBuffer <- %R8
	@DEBUG_VALUE: processFft:inPointer <- %R10
.Ltmp39:
	mov	r5, r0
	movw	r0, :lower16:.L_MergedGlobals.11
	movt	r0, :upper16:.L_MergedGlobals.11
	b	.LBB3_118
.Ltmp424:
	.p2align	3
@ BB#120:
.LCPI3_1:
	.long	1413754136              @ double 3.1415926535897931
	.long	1074340347
.LCPI3_3:
	.long	1413754136              @ double -3.1415926535897931
	.long	3221823995
.LCPI3_6:
	.long	1413754136              @ double 6.2831853071795862
	.long	1075388923
.LCPI3_2:
	.long	1086918619              @ float 6.28318548
.LCPI3_4:
	.long	3234402267              @ float -6.28318548
.Lfunc_end3:
	.size	_ZN10PitchShift10processFftEjRSt6vectorIfSaIfEEj, .Lfunc_end3-_ZN10PitchShift10processFftEjRSt6vectorIfSaIfEEj
	.cfi_endproc
	.file	67 "/usr/bin/../lib/gcc/arm-linux-gnueabihf/6.3.0/../../../../include/c++/6.3.0/ext" "type_traits.h"
	.file	68 "/usr/bin/../lib/gcc/arm-linux-gnueabihf/6.3.0/../../../../include/c++/6.3.0/bits" "stl_uninitialized.h"
	.globl	__gxx_personality_v0
	.personality __gxx_personality_v0
	.handlerdata
	.p2align	2
GCC_except_table3:
.Lexception1:
	.byte	255                     @ @LPStart Encoding = omit
	.byte	0                       @ @TType Encoding = absptr
	.asciz	"\241\202\200\200"      @ @TType base offset
	.byte	3                       @ Call site Encoding = udata4
	.ascii	"\236\002"              @ Call site table length
	.long	.Ltmp35-.Lfunc_begin3   @ >> Call Site 1 <<
	.long	.Ltmp36-.Ltmp35         @   Call between .Ltmp35 and .Ltmp36
	.long	.Ltmp39-.Lfunc_begin3   @     jumps to .Ltmp39
	.byte	0                       @   On action: cleanup
	.long	.Ltmp36-.Lfunc_begin3   @ >> Call Site 2 <<
	.long	.Ltmp40-.Ltmp36         @   Call between .Ltmp36 and .Ltmp40
	.long	0                       @     has no landing pad
	.byte	0                       @   On action: cleanup
	.long	.Ltmp40-.Lfunc_begin3   @ >> Call Site 3 <<
	.long	.Ltmp41-.Ltmp40         @   Call between .Ltmp40 and .Ltmp41
	.long	.Ltmp44-.Lfunc_begin3   @     jumps to .Ltmp44
	.byte	0                       @   On action: cleanup
	.long	.Ltmp41-.Lfunc_begin3   @ >> Call Site 4 <<
	.long	.Ltmp45-.Ltmp41         @   Call between .Ltmp41 and .Ltmp45
	.long	0                       @     has no landing pad
	.byte	0                       @   On action: cleanup
	.long	.Ltmp45-.Lfunc_begin3   @ >> Call Site 5 <<
	.long	.Ltmp46-.Ltmp45         @   Call between .Ltmp45 and .Ltmp46
	.long	.Ltmp49-.Lfunc_begin3   @     jumps to .Ltmp49
	.byte	0                       @   On action: cleanup
	.long	.Ltmp46-.Lfunc_begin3   @ >> Call Site 6 <<
	.long	.Ltmp50-.Ltmp46         @   Call between .Ltmp46 and .Ltmp50
	.long	0                       @     has no landing pad
	.byte	0                       @   On action: cleanup
	.long	.Ltmp50-.Lfunc_begin3   @ >> Call Site 7 <<
	.long	.Ltmp51-.Ltmp50         @   Call between .Ltmp50 and .Ltmp51
	.long	.Ltmp54-.Lfunc_begin3   @     jumps to .Ltmp54
	.byte	0                       @   On action: cleanup
	.long	.Ltmp51-.Lfunc_begin3   @ >> Call Site 8 <<
	.long	.Ltmp55-.Ltmp51         @   Call between .Ltmp51 and .Ltmp55
	.long	0                       @     has no landing pad
	.byte	0                       @   On action: cleanup
	.long	.Ltmp55-.Lfunc_begin3   @ >> Call Site 9 <<
	.long	.Ltmp56-.Ltmp55         @   Call between .Ltmp55 and .Ltmp56
	.long	.Ltmp59-.Lfunc_begin3   @     jumps to .Ltmp59
	.byte	0                       @   On action: cleanup
	.long	.Ltmp56-.Lfunc_begin3   @ >> Call Site 10 <<
	.long	.Ltmp60-.Ltmp56         @   Call between .Ltmp56 and .Ltmp60
	.long	0                       @     has no landing pad
	.byte	0                       @   On action: cleanup
	.long	.Ltmp60-.Lfunc_begin3   @ >> Call Site 11 <<
	.long	.Ltmp61-.Ltmp60         @   Call between .Ltmp60 and .Ltmp61
	.long	.Ltmp64-.Lfunc_begin3   @     jumps to .Ltmp64
	.byte	0                       @   On action: cleanup
	.long	.Ltmp61-.Lfunc_begin3   @ >> Call Site 12 <<
	.long	.Ltmp65-.Ltmp61         @   Call between .Ltmp61 and .Ltmp65
	.long	0                       @     has no landing pad
	.byte	0                       @   On action: cleanup
	.long	.Ltmp65-.Lfunc_begin3   @ >> Call Site 13 <<
	.long	.Ltmp66-.Ltmp65         @   Call between .Ltmp65 and .Ltmp66
	.long	.Ltmp69-.Lfunc_begin3   @     jumps to .Ltmp69
	.byte	0                       @   On action: cleanup
	.long	.Ltmp66-.Lfunc_begin3   @ >> Call Site 14 <<
	.long	.Ltmp37-.Ltmp66         @   Call between .Ltmp66 and .Ltmp37
	.long	0                       @     has no landing pad
	.byte	0                       @   On action: cleanup
	.long	.Ltmp37-.Lfunc_begin3   @ >> Call Site 15 <<
	.long	.Ltmp38-.Ltmp37         @   Call between .Ltmp37 and .Ltmp38
	.long	.Ltmp39-.Lfunc_begin3   @     jumps to .Ltmp39
	.byte	0                       @   On action: cleanup
	.long	.Ltmp42-.Lfunc_begin3   @ >> Call Site 16 <<
	.long	.Ltmp43-.Ltmp42         @   Call between .Ltmp42 and .Ltmp43
	.long	.Ltmp44-.Lfunc_begin3   @     jumps to .Ltmp44
	.byte	0                       @   On action: cleanup
	.long	.Ltmp47-.Lfunc_begin3   @ >> Call Site 17 <<
	.long	.Ltmp48-.Ltmp47         @   Call between .Ltmp47 and .Ltmp48
	.long	.Ltmp49-.Lfunc_begin3   @     jumps to .Ltmp49
	.byte	0                       @   On action: cleanup
	.long	.Ltmp52-.Lfunc_begin3   @ >> Call Site 18 <<
	.long	.Ltmp53-.Ltmp52         @   Call between .Ltmp52 and .Ltmp53
	.long	.Ltmp54-.Lfunc_begin3   @     jumps to .Ltmp54
	.byte	0                       @   On action: cleanup
	.long	.Ltmp57-.Lfunc_begin3   @ >> Call Site 19 <<
	.long	.Ltmp58-.Ltmp57         @   Call between .Ltmp57 and .Ltmp58
	.long	.Ltmp59-.Lfunc_begin3   @     jumps to .Ltmp59
	.byte	0                       @   On action: cleanup
	.long	.Ltmp62-.Lfunc_begin3   @ >> Call Site 20 <<
	.long	.Ltmp63-.Ltmp62         @   Call between .Ltmp62 and .Ltmp63
	.long	.Ltmp64-.Lfunc_begin3   @     jumps to .Ltmp64
	.byte	0                       @   On action: cleanup
	.long	.Ltmp67-.Lfunc_begin3   @ >> Call Site 21 <<
	.long	.Ltmp68-.Ltmp67         @   Call between .Ltmp67 and .Ltmp68
	.long	.Ltmp69-.Lfunc_begin3   @     jumps to .Ltmp69
	.byte	0                       @   On action: cleanup
	.long	.Ltmp68-.Lfunc_begin3   @ >> Call Site 22 <<
	.long	.Lfunc_end3-.Ltmp68     @   Call between .Ltmp68 and .Lfunc_end3
	.long	0                       @     has no landing pad
	.byte	0                       @   On action: cleanup
	.p2align	2
	.fnend

	.globl	_ZN10PitchShift22process_fft_backgroundEPv
	.p2align	2
	.type	_ZN10PitchShift22process_fft_backgroundEPv,%function
_ZN10PitchShift22process_fft_backgroundEPv: @ @_ZN10PitchShift22process_fft_backgroundEPv
.Lfunc_begin4:
	.loc	5 142 0                 @ /root/Bela/projects/NIEMO/dsp/PitchShift.h:142:0
	.fnstart
	.cfi_startproc
@ BB#0:
	.save	{r4, r10, r11, lr}
	push	{r4, r10, r11, lr}
.Ltmp425:
	.cfi_def_cfa_offset 16
.Ltmp426:
	.cfi_offset lr, -4
.Ltmp427:
	.cfi_offset r11, -8
.Ltmp428:
	.cfi_offset r10, -12
.Ltmp429:
	.cfi_offset r4, -16
	.setfp	r11, sp, #8
	add	r11, sp, #8
.Ltmp430:
	.cfi_def_cfa r11, 8
	@DEBUG_VALUE: process_fft_background: <- %R0
.Ltmp431:
	.loc	5 143 13 prologue_end   @ /root/Bela/projects/NIEMO/dsp/PitchShift.h:143:13
	movw	r4, :lower16:.L_MergedGlobals
	.loc	5 143 2 is_stmt 0       @ /root/Bela/projects/NIEMO/dsp/PitchShift.h:143:2
	movw	r1, :lower16:.L_MergedGlobals.5
	.loc	5 143 13                @ /root/Bela/projects/NIEMO/dsp/PitchShift.h:143:13
	movt	r4, :upper16:.L_MergedGlobals
	.loc	5 143 2                 @ /root/Bela/projects/NIEMO/dsp/PitchShift.h:143:2
	movt	r1, :upper16:.L_MergedGlobals.5
	.loc	5 143 55                @ /root/Bela/projects/NIEMO/dsp/PitchShift.h:143:55
	ldr	r2, [r4, #32]
	.loc	5 143 2                 @ /root/Bela/projects/NIEMO/dsp/PitchShift.h:143:2
	add	r1, r1, #68
	.loc	5 143 13                @ /root/Bela/projects/NIEMO/dsp/PitchShift.h:143:13
	ldr	r0, [r4, #44]
.Ltmp432:
	.loc	5 143 2                 @ /root/Bela/projects/NIEMO/dsp/PitchShift.h:143:2
	bl	_ZN10PitchShift10processFftEjRSt6vectorIfSaIfEEj
	.loc	5 144 59 is_stmt 1      @ /root/Bela/projects/NIEMO/dsp/PitchShift.h:144:59
	ldr	r0, [r4, #4]
	.loc	5 144 31 is_stmt 0      @ /root/Bela/projects/NIEMO/dsp/PitchShift.h:144:31
	ldr	r1, [r4, #32]
	.loc	5 144 57                @ /root/Bela/projects/NIEMO/dsp/PitchShift.h:144:57
	add	r0, r0, r1
	.loc	5 144 69                @ /root/Bela/projects/NIEMO/dsp/PitchShift.h:144:69
	asr	r1, r0, #31
	add	r1, r0, r1, lsr #20
	bfc	r1, #0, #12
	sub	r0, r0, r1
	.loc	5 144 28                @ /root/Bela/projects/NIEMO/dsp/PitchShift.h:144:28
	str	r0, [r4, #32]
	.loc	5 145 1 is_stmt 1       @ /root/Bela/projects/NIEMO/dsp/PitchShift.h:145:1
	pop	{r4, r10, r11, pc}
.Ltmp433:
.Lfunc_end4:
	.size	_ZN10PitchShift22process_fft_backgroundEPv, .Lfunc_end4-_ZN10PitchShift22process_fft_backgroundEPv
	.cfi_endproc
	.fnend

	.globl	_ZN10PitchShift4initEiifff
	.p2align	4
	.type	_ZN10PitchShift4initEiifff,%function
_ZN10PitchShift4initEiifff:             @ @_ZN10PitchShift4initEiifff
.Lfunc_begin5:
	.loc	5 148 0                 @ /root/Bela/projects/NIEMO/dsp/PitchShift.h:148:0
	.fnstart
	.cfi_startproc
@ BB#0:
	.save	{r4, r5, r6, r7, r8, r9, r11, lr}
	push	{r4, r5, r6, r7, r8, r9, r11, lr}
.Ltmp434:
	.cfi_def_cfa_offset 32
.Ltmp435:
	.cfi_offset lr, -4
.Ltmp436:
	.cfi_offset r11, -8
.Ltmp437:
	.cfi_offset r9, -12
.Ltmp438:
	.cfi_offset r8, -16
.Ltmp439:
	.cfi_offset r7, -20
.Ltmp440:
	.cfi_offset r6, -24
.Ltmp441:
	.cfi_offset r5, -28
.Ltmp442:
	.cfi_offset r4, -32
	.setfp	r11, sp, #24
	add	r11, sp, #24
.Ltmp443:
	.cfi_def_cfa r11, 8
	.vsave	{d8, d9, d10, d11, d12, d13, d14, d15}
	vpush	{d8, d9, d10, d11, d12, d13, d14, d15}
.Ltmp444:
	.cfi_offset d15, -40
.Ltmp445:
	.cfi_offset d14, -48
.Ltmp446:
	.cfi_offset d13, -56
.Ltmp447:
	.cfi_offset d12, -64
.Ltmp448:
	.cfi_offset d11, -72
.Ltmp449:
	.cfi_offset d10, -80
.Ltmp450:
	.cfi_offset d9, -88
.Ltmp451:
	.cfi_offset d8, -96
	.pad	#8
	sub	sp, sp, #8
	@DEBUG_VALUE: init:fftSize <- %R0
	@DEBUG_VALUE: init:hopSize <- %R1
	@DEBUG_VALUE: init:pitchShiftRatio <- %S0
	@DEBUG_VALUE: init:scaleFactor <- %S1
	@DEBUG_VALUE: init:sampleRate <- %S2
.Ltmp452:
	.loc	5 149 15 prologue_end   @ /root/Bela/projects/NIEMO/dsp/PitchShift.h:149:15
	movw	r9, :lower16:.L_MergedGlobals
	vmov.f32	s16, s2
.Ltmp453:
	@DEBUG_VALUE: init:sampleRate <- %S16
	movt	r9, :upper16:.L_MergedGlobals
	vmov.f32	s18, s1
.Ltmp454:
	@DEBUG_VALUE: init:scaleFactor <- %S18
	vmov.f32	s20, s0
.Ltmp455:
	@DEBUG_VALUE: init:pitchShiftRatio <- %S20
	str	r0, [r9]
	mov	r4, r1
.Ltmp456:
	@DEBUG_VALUE: init:hopSize <- %R4
	.loc	5 150 47                @ /root/Bela/projects/NIEMO/dsp/PitchShift.h:150:47
	ldr	r1, [r9, #4]
	mov	r5, #0
.Ltmp457:
	.loc	13 170 9                @ /usr/bin/../lib/gcc/arm-linux-gnueabihf/6.3.0/../../../../include/c++/6.3.0/bits/stl_vector.h:170:9
	cmp	r0, #0
.Ltmp458:
	.loc	5 150 43                @ /root/Bela/projects/NIEMO/dsp/PitchShift.h:150:43
	add	r1, r0, r1, lsl #1
	.loc	5 150 32 is_stmt 0      @ /root/Bela/projects/NIEMO/dsp/PitchShift.h:150:32
	str	r1, [r9, #32]
	mov	r1, #0
	beq	.LBB5_3
.Ltmp459:
@ BB#1:
	@DEBUG_VALUE: init:hopSize <- %R4
	@DEBUG_VALUE: init:pitchShiftRatio <- %S20
	@DEBUG_VALUE: init:scaleFactor <- %S18
	@DEBUG_VALUE: init:sampleRate <- %S16
	@DEBUG_VALUE: init:fftSize <- %R0
	.loc	5 151 48 is_stmt 1      @ /root/Bela/projects/NIEMO/dsp/PitchShift.h:151:48
	lsl	r7, r0, #2
.Ltmp460:
	@DEBUG_VALUE: _M_allocate:__n <- %R7
	@DEBUG_VALUE: _M_create_storage:__n <- %R7
	@DEBUG_VALUE: _Vector_base:__n <- %R7
	@DEBUG_VALUE: vector:__n <- %R7
	@DEBUG_VALUE: allocate:__n <- %R7
	@DEBUG_VALUE: allocate:__n <- %R7
	@DEBUG_VALUE: _M_default_initialize:__n <- %R7
	@DEBUG_VALUE: __uninitialized_default_n_a<float *, unsigned int, float>:__n <- %R7
	@DEBUG_VALUE: __uninitialized_default_n<float *, unsigned int>:__n <- %R7
	@DEBUG_VALUE: __uninit_default_n<float *, unsigned int>:__n <- %R7
	@DEBUG_VALUE: fill_n<float *, unsigned int, float>:__n <- %R7
	@DEBUG_VALUE: __fill_n_a<float *, unsigned int, float>:__n <- %R7
	@DEBUG_VALUE: __niter <- %R7
	.loc	9 101 6                 @ /usr/bin/../lib/gcc/arm-linux-gnueabihf/6.3.0/../../../../include/c++/6.3.0/ext/new_allocator.h:101:6
	cmp	r7, #1073741824
	bhs	.LBB5_27
.Ltmp461:
@ BB#2:                                 @ %.lr.ph.i.i.preheader.i.i.i.i.i
	@DEBUG_VALUE: __niter <- %R7
	@DEBUG_VALUE: __fill_n_a<float *, unsigned int, float>:__n <- %R7
	@DEBUG_VALUE: fill_n<float *, unsigned int, float>:__n <- %R7
	@DEBUG_VALUE: __uninit_default_n<float *, unsigned int>:__n <- %R7
	@DEBUG_VALUE: __uninitialized_default_n<float *, unsigned int>:__n <- %R7
	@DEBUG_VALUE: __uninitialized_default_n_a<float *, unsigned int, float>:__n <- %R7
	@DEBUG_VALUE: _M_default_initialize:__n <- %R7
	@DEBUG_VALUE: allocate:__n <- %R7
	@DEBUG_VALUE: allocate:__n <- %R7
	@DEBUG_VALUE: vector:__n <- %R7
	@DEBUG_VALUE: _Vector_base:__n <- %R7
	@DEBUG_VALUE: _M_create_storage:__n <- %R7
	@DEBUG_VALUE: _M_allocate:__n <- %R7
	@DEBUG_VALUE: init:hopSize <- %R4
	@DEBUG_VALUE: init:pitchShiftRatio <- %S20
	@DEBUG_VALUE: init:scaleFactor <- %S18
	@DEBUG_VALUE: init:sampleRate <- %S16
	@DEBUG_VALUE: init:fftSize <- %R0
	.loc	9 104 46                @ /usr/bin/../lib/gcc/arm-linux-gnueabihf/6.3.0/../../../../include/c++/6.3.0/ext/new_allocator.h:104:46
	lsl	r6, r0, #4
	.loc	9 104 27 is_stmt 0      @ /usr/bin/../lib/gcc/arm-linux-gnueabihf/6.3.0/../../../../include/c++/6.3.0/ext/new_allocator.h:104:27
	mov	r0, r6
.Ltmp462:
	bl	_Znwj
.Ltmp463:
	.loc	66 754 11 is_stmt 1     @ /usr/bin/../lib/gcc/arm-linux-gnueabihf/6.3.0/../../../../include/c++/6.3.0/bits/stl_algobase.h:754:11
	mov	r1, #0
	mov	r2, r6
.Ltmp464:
	.loc	9 104 27                @ /usr/bin/../lib/gcc/arm-linux-gnueabihf/6.3.0/../../../../include/c++/6.3.0/ext/new_allocator.h:104:27
	mov	r5, r0
.Ltmp465:
	@DEBUG_VALUE: __uninitialized_default_n<float *, unsigned int>:__assignable <- 1
	@DEBUG_VALUE: __uninitialized_default_n_a<float *, unsigned int, float>:__first <- %R5
	@DEBUG_VALUE: __uninitialized_default_n<float *, unsigned int>:__first <- %R5
	@DEBUG_VALUE: __uninit_default_n<float *, unsigned int>:__first <- %R5
	@DEBUG_VALUE: fill_n<float *, unsigned int, float>:__first <- %R5
	@DEBUG_VALUE: __fill_n_a<float *, unsigned int, float>:__first <- %R5
	.loc	66 754 11               @ /usr/bin/../lib/gcc/arm-linux-gnueabihf/6.3.0/../../../../include/c++/6.3.0/bits/stl_algobase.h:754:11
	bl	memset
.Ltmp466:
	.loc	13 187 59               @ /usr/bin/../lib/gcc/arm-linux-gnueabihf/6.3.0/../../../../include/c++/6.3.0/bits/stl_vector.h:187:59
	add	r1, r5, r7, lsl #2
.Ltmp467:
.LBB5_3:
	@DEBUG_VALUE: init:hopSize <- %R4
	@DEBUG_VALUE: init:pitchShiftRatio <- %S20
	@DEBUG_VALUE: init:scaleFactor <- %S18
	@DEBUG_VALUE: init:sampleRate <- %S16
	@DEBUG_VALUE: operator=:__move_storage <- 1
	.file	69 "/usr/bin/../lib/gcc/arm-linux-gnueabihf/6.3.0/../../../../include/c++/6.3.0/bits" "move.h"
	.loc	69 190 19               @ /usr/bin/../lib/gcc/arm-linux-gnueabihf/6.3.0/../../../../include/c++/6.3.0/bits/move.h:190:19
	movw	r6, :lower16:.L_MergedGlobals.5
	movt	r6, :upper16:.L_MergedGlobals.5
	ldr	r0, [r6, #44]
.Ltmp468:
	@DEBUG_VALUE: _M_deallocate:__p <- %R0
	@DEBUG_VALUE: deallocate:__p <- %R0
	@DEBUG_VALUE: deallocate:__p <- %R0
	.loc	69 191 11               @ /usr/bin/../lib/gcc/arm-linux-gnueabihf/6.3.0/../../../../include/c++/6.3.0/bits/move.h:191:11
	str	r5, [r6, #44]
.Ltmp469:
	.loc	69 191 11 is_stmt 0     @ /usr/bin/../lib/gcc/arm-linux-gnueabihf/6.3.0/../../../../include/c++/6.3.0/bits/move.h:191:11
	str	r1, [r6, #48]
.Ltmp470:
	.loc	13 177 6 is_stmt 1      @ /usr/bin/../lib/gcc/arm-linux-gnueabihf/6.3.0/../../../../include/c++/6.3.0/bits/stl_vector.h:177:6
	cmp	r0, #0
.Ltmp471:
	.loc	69 191 11               @ /usr/bin/../lib/gcc/arm-linux-gnueabihf/6.3.0/../../../../include/c++/6.3.0/bits/move.h:191:11
	str	r1, [r6, #52]
	beq	.LBB5_5
.Ltmp472:
@ BB#4:
	@DEBUG_VALUE: deallocate:__p <- %R0
	@DEBUG_VALUE: deallocate:__p <- %R0
	@DEBUG_VALUE: _M_deallocate:__p <- %R0
	@DEBUG_VALUE: init:hopSize <- %R4
	@DEBUG_VALUE: init:pitchShiftRatio <- %S20
	@DEBUG_VALUE: init:scaleFactor <- %S18
	@DEBUG_VALUE: init:sampleRate <- %S16
	.loc	9 110 9                 @ /usr/bin/../lib/gcc/arm-linux-gnueabihf/6.3.0/../../../../include/c++/6.3.0/ext/new_allocator.h:110:9
	bl	_ZdlPv
.Ltmp473:
.LBB5_5:                                @ %_ZNSt6vectorIfSaIfEED2Ev.exit
	@DEBUG_VALUE: init:hopSize <- %R4
	@DEBUG_VALUE: init:pitchShiftRatio <- %S20
	@DEBUG_VALUE: init:scaleFactor <- %S18
	@DEBUG_VALUE: init:sampleRate <- %S16
	.loc	5 152 20                @ /root/Bela/projects/NIEMO/dsp/PitchShift.h:152:20
	ldr	r1, [r9]
	.loc	5 152 14 is_stmt 0      @ /root/Bela/projects/NIEMO/dsp/PitchShift.h:152:14
	add	r0, r6, #104
	bl	_ZN3Fft5setupEj
.Ltmp474:
	.loc	13 656 66 is_stmt 1     @ /usr/bin/../lib/gcc/arm-linux-gnueabihf/6.3.0/../../../../include/c++/6.3.0/bits/stl_vector.h:656:66
	ldr	r0, [r6, #68]
	mov	r2, #0
	.loc	13 656 40 is_stmt 0     @ /usr/bin/../lib/gcc/arm-linux-gnueabihf/6.3.0/../../../../include/c++/6.3.0/bits/stl_vector.h:656:40
	ldr	r1, [r6, #72]
.Ltmp475:
	.loc	5 153 18 is_stmt 1      @ /root/Bela/projects/NIEMO/dsp/PitchShift.h:153:18
	str	r4, [r9, #4]
.Ltmp476:
	@DEBUG_VALUE: resize:__new_size <- 4096
	.loc	13 656 50               @ /usr/bin/../lib/gcc/arm-linux-gnueabihf/6.3.0/../../../../include/c++/6.3.0/bits/stl_vector.h:656:50
	sub	r1, r1, r0
.Ltmp477:
	.loc	5 154 21                @ /root/Bela/projects/NIEMO/dsp/PitchShift.h:154:21
	vstr	s20, [r9, #8]
	.loc	5 155 22                @ /root/Bela/projects/NIEMO/dsp/PitchShift.h:155:22
	vstr	s18, [r9, #12]
.Ltmp478:
	.loc	13 656 50               @ /usr/bin/../lib/gcc/arm-linux-gnueabihf/6.3.0/../../../../include/c++/6.3.0/bits/stl_vector.h:656:50
	asr	r1, r1, #2
.Ltmp479:
	.loc	13 676 6                @ /usr/bin/../lib/gcc/arm-linux-gnueabihf/6.3.0/../../../../include/c++/6.3.0/bits/stl_vector.h:676:6
	cmp	r2, r1, lsr #12
	bne	.LBB5_7
.Ltmp480:
@ BB#6:
	@DEBUG_VALUE: init:hopSize <- %R4
	@DEBUG_VALUE: init:pitchShiftRatio <- %S20
	@DEBUG_VALUE: init:scaleFactor <- %S18
	@DEBUG_VALUE: init:sampleRate <- %S16
	.loc	13 677 4 discriminator 1 @ /usr/bin/../lib/gcc/arm-linux-gnueabihf/6.3.0/../../../../include/c++/6.3.0/bits/stl_vector.h:677:4
	add	r0, r6, #68
.Ltmp481:
	@DEBUG_VALUE: _M_erase_at_end:this <- %R0
	.loc	13 677 33 is_stmt 0     @ /usr/bin/../lib/gcc/arm-linux-gnueabihf/6.3.0/../../../../include/c++/6.3.0/bits/stl_vector.h:677:33
	rsb	r1, r1, #4096
	.loc	13 677 4 discriminator 1 @ /usr/bin/../lib/gcc/arm-linux-gnueabihf/6.3.0/../../../../include/c++/6.3.0/bits/stl_vector.h:677:4
	bl	_ZNSt6vectorIfSaIfEE17_M_default_appendEj
.Ltmp482:
	b	.LBB5_8
.Ltmp483:
.LBB5_7:
	@DEBUG_VALUE: init:hopSize <- %R4
	@DEBUG_VALUE: init:pitchShiftRatio <- %S20
	@DEBUG_VALUE: init:scaleFactor <- %S18
	@DEBUG_VALUE: init:sampleRate <- %S16
	.loc	13 678 11 is_stmt 1     @ /usr/bin/../lib/gcc/arm-linux-gnueabihf/6.3.0/../../../../include/c++/6.3.0/bits/stl_vector.h:678:11
	cmp	r1, #4096
.Ltmp484:
	.loc	13 679 43               @ /usr/bin/../lib/gcc/arm-linux-gnueabihf/6.3.0/../../../../include/c++/6.3.0/bits/stl_vector.h:679:43
	addne	r0, r0, #16384
.Ltmp485:
	@DEBUG_VALUE: _M_erase_at_end:__pos <- %R0
	.loc	13 1437 26              @ /usr/bin/../lib/gcc/arm-linux-gnueabihf/6.3.0/../../../../include/c++/6.3.0/bits/stl_vector.h:1437:26
	strne	r0, [r6, #72]
.Ltmp486:
.LBB5_8:                                @ %_ZNSt6vectorIfSaIfEE6resizeEj.exit15
	@DEBUG_VALUE: init:hopSize <- %R4
	@DEBUG_VALUE: init:pitchShiftRatio <- %S20
	@DEBUG_VALUE: init:scaleFactor <- %S18
	@DEBUG_VALUE: init:sampleRate <- %S16
	@DEBUG_VALUE: resize:__new_size <- 4096
	.loc	13 656 66               @ /usr/bin/../lib/gcc/arm-linux-gnueabihf/6.3.0/../../../../include/c++/6.3.0/bits/stl_vector.h:656:66
	ldr	r0, [r6, #44]
	mov	r2, #0
	.loc	13 656 40 is_stmt 0     @ /usr/bin/../lib/gcc/arm-linux-gnueabihf/6.3.0/../../../../include/c++/6.3.0/bits/stl_vector.h:656:40
	ldr	r1, [r6, #48]
	.loc	13 656 50               @ /usr/bin/../lib/gcc/arm-linux-gnueabihf/6.3.0/../../../../include/c++/6.3.0/bits/stl_vector.h:656:50
	sub	r1, r1, r0
	asr	r1, r1, #2
.Ltmp487:
	.loc	13 676 6 is_stmt 1      @ /usr/bin/../lib/gcc/arm-linux-gnueabihf/6.3.0/../../../../include/c++/6.3.0/bits/stl_vector.h:676:6
	cmp	r2, r1, lsr #12
	bne	.LBB5_10
.Ltmp488:
@ BB#9:
	@DEBUG_VALUE: init:hopSize <- %R4
	@DEBUG_VALUE: init:pitchShiftRatio <- %S20
	@DEBUG_VALUE: init:scaleFactor <- %S18
	@DEBUG_VALUE: init:sampleRate <- %S16
	.loc	13 677 4 discriminator 1 @ /usr/bin/../lib/gcc/arm-linux-gnueabihf/6.3.0/../../../../include/c++/6.3.0/bits/stl_vector.h:677:4
	add	r0, r6, #44
.Ltmp489:
	@DEBUG_VALUE: _M_erase_at_end:this <- %R0
	.loc	13 677 33 is_stmt 0     @ /usr/bin/../lib/gcc/arm-linux-gnueabihf/6.3.0/../../../../include/c++/6.3.0/bits/stl_vector.h:677:33
	rsb	r1, r1, #4096
	.loc	13 677 4 discriminator 1 @ /usr/bin/../lib/gcc/arm-linux-gnueabihf/6.3.0/../../../../include/c++/6.3.0/bits/stl_vector.h:677:4
	bl	_ZNSt6vectorIfSaIfEE17_M_default_appendEj
.Ltmp490:
	b	.LBB5_11
.Ltmp491:
.LBB5_10:
	@DEBUG_VALUE: init:hopSize <- %R4
	@DEBUG_VALUE: init:pitchShiftRatio <- %S20
	@DEBUG_VALUE: init:scaleFactor <- %S18
	@DEBUG_VALUE: init:sampleRate <- %S16
	.loc	13 678 11 is_stmt 1     @ /usr/bin/../lib/gcc/arm-linux-gnueabihf/6.3.0/../../../../include/c++/6.3.0/bits/stl_vector.h:678:11
	cmp	r1, #4096
.Ltmp492:
	.loc	13 679 43               @ /usr/bin/../lib/gcc/arm-linux-gnueabihf/6.3.0/../../../../include/c++/6.3.0/bits/stl_vector.h:679:43
	addne	r0, r0, #16384
.Ltmp493:
	@DEBUG_VALUE: _M_erase_at_end:__pos <- %R0
	.loc	13 1437 26              @ /usr/bin/../lib/gcc/arm-linux-gnueabihf/6.3.0/../../../../include/c++/6.3.0/bits/stl_vector.h:1437:26
	strne	r0, [r6, #48]
.Ltmp494:
.LBB5_11:                               @ %_ZNSt6vectorIfSaIfEE6resizeEj.exit16
	@DEBUG_VALUE: init:hopSize <- %R4
	@DEBUG_VALUE: init:pitchShiftRatio <- %S20
	@DEBUG_VALUE: init:scaleFactor <- %S18
	@DEBUG_VALUE: init:sampleRate <- %S16
	.loc	13 656 66               @ /usr/bin/../lib/gcc/arm-linux-gnueabihf/6.3.0/../../../../include/c++/6.3.0/bits/stl_vector.h:656:66
	ldrd	r0, r1, [r6, #80]
.Ltmp495:
	.loc	5 158 38                @ /root/Bela/projects/NIEMO/dsp/PitchShift.h:158:38
	ldr	r4, [r9]
.Ltmp496:
	@DEBUG_VALUE: resize:__new_size <- %R4
	.loc	13 656 50               @ /usr/bin/../lib/gcc/arm-linux-gnueabihf/6.3.0/../../../../include/c++/6.3.0/bits/stl_vector.h:656:50
	sub	r2, r1, r0
	asr	r1, r2, #2
.Ltmp497:
	.loc	13 676 6                @ /usr/bin/../lib/gcc/arm-linux-gnueabihf/6.3.0/../../../../include/c++/6.3.0/bits/stl_vector.h:676:6
	cmp	r4, r2, asr #2
	bls	.LBB5_13
.Ltmp498:
@ BB#12:
	@DEBUG_VALUE: resize:__new_size <- %R4
	@DEBUG_VALUE: init:pitchShiftRatio <- %S20
	@DEBUG_VALUE: init:scaleFactor <- %S18
	@DEBUG_VALUE: init:sampleRate <- %S16
	.loc	13 677 33               @ /usr/bin/../lib/gcc/arm-linux-gnueabihf/6.3.0/../../../../include/c++/6.3.0/bits/stl_vector.h:677:33
	sub	r1, r4, r1
	.loc	13 677 4 is_stmt 0 discriminator 1 @ /usr/bin/../lib/gcc/arm-linux-gnueabihf/6.3.0/../../../../include/c++/6.3.0/bits/stl_vector.h:677:4
	add	r0, r6, #80
.Ltmp499:
	@DEBUG_VALUE: _M_erase_at_end:this <- %R0
	bl	_ZNSt6vectorIfSaIfEE17_M_default_appendEj
.Ltmp500:
	.loc	5 159 39 is_stmt 1      @ /root/Bela/projects/NIEMO/dsp/PitchShift.h:159:39
	ldr	r4, [r9]
.Ltmp501:
	b	.LBB5_14
.Ltmp502:
.LBB5_13:
	@DEBUG_VALUE: resize:__new_size <- %R4
	@DEBUG_VALUE: init:pitchShiftRatio <- %S20
	@DEBUG_VALUE: init:scaleFactor <- %S18
	@DEBUG_VALUE: init:sampleRate <- %S16
	.loc	13 678 11               @ /usr/bin/../lib/gcc/arm-linux-gnueabihf/6.3.0/../../../../include/c++/6.3.0/bits/stl_vector.h:678:11
	cmp	r4, r1
.Ltmp503:
	.loc	13 679 43               @ /usr/bin/../lib/gcc/arm-linux-gnueabihf/6.3.0/../../../../include/c++/6.3.0/bits/stl_vector.h:679:43
	addlo	r0, r0, r4, lsl #2
.Ltmp504:
	@DEBUG_VALUE: _M_erase_at_end:__pos <- %R0
	.loc	13 1437 26              @ /usr/bin/../lib/gcc/arm-linux-gnueabihf/6.3.0/../../../../include/c++/6.3.0/bits/stl_vector.h:1437:26
	strlo	r0, [r6, #84]
.Ltmp505:
.LBB5_14:                               @ %_ZNSt6vectorIfSaIfEE6resizeEj.exit17
	@DEBUG_VALUE: init:pitchShiftRatio <- %S20
	@DEBUG_VALUE: init:scaleFactor <- %S18
	@DEBUG_VALUE: init:sampleRate <- %S16
	@DEBUG_VALUE: resize:__new_size <- %R4
	.loc	13 656 66               @ /usr/bin/../lib/gcc/arm-linux-gnueabihf/6.3.0/../../../../include/c++/6.3.0/bits/stl_vector.h:656:66
	ldrd	r0, r1, [r6, #56]
	.loc	13 656 50 is_stmt 0     @ /usr/bin/../lib/gcc/arm-linux-gnueabihf/6.3.0/../../../../include/c++/6.3.0/bits/stl_vector.h:656:50
	sub	r2, r1, r0
	asr	r1, r2, #2
.Ltmp506:
	.loc	13 676 6 is_stmt 1      @ /usr/bin/../lib/gcc/arm-linux-gnueabihf/6.3.0/../../../../include/c++/6.3.0/bits/stl_vector.h:676:6
	cmp	r4, r2, asr #2
	bls	.LBB5_16
.Ltmp507:
@ BB#15:
	@DEBUG_VALUE: resize:__new_size <- %R4
	@DEBUG_VALUE: init:pitchShiftRatio <- %S20
	@DEBUG_VALUE: init:scaleFactor <- %S18
	@DEBUG_VALUE: init:sampleRate <- %S16
	.loc	13 677 33               @ /usr/bin/../lib/gcc/arm-linux-gnueabihf/6.3.0/../../../../include/c++/6.3.0/bits/stl_vector.h:677:33
	sub	r1, r4, r1
	.loc	13 677 4 is_stmt 0 discriminator 1 @ /usr/bin/../lib/gcc/arm-linux-gnueabihf/6.3.0/../../../../include/c++/6.3.0/bits/stl_vector.h:677:4
	add	r0, r6, #56
.Ltmp508:
	@DEBUG_VALUE: _M_erase_at_end:this <- %R0
	bl	_ZNSt6vectorIfSaIfEE17_M_default_appendEj
.Ltmp509:
	.loc	5 161 28 is_stmt 1 discriminator 1 @ /root/Bela/projects/NIEMO/dsp/PitchShift.h:161:28
	ldr	r4, [r9]
.Ltmp510:
	b	.LBB5_17
.Ltmp511:
.LBB5_16:
	@DEBUG_VALUE: resize:__new_size <- %R4
	@DEBUG_VALUE: init:pitchShiftRatio <- %S20
	@DEBUG_VALUE: init:scaleFactor <- %S18
	@DEBUG_VALUE: init:sampleRate <- %S16
	.loc	13 678 11               @ /usr/bin/../lib/gcc/arm-linux-gnueabihf/6.3.0/../../../../include/c++/6.3.0/bits/stl_vector.h:678:11
	cmp	r4, r1
.Ltmp512:
	.loc	13 679 43               @ /usr/bin/../lib/gcc/arm-linux-gnueabihf/6.3.0/../../../../include/c++/6.3.0/bits/stl_vector.h:679:43
	addlo	r0, r0, r4, lsl #2
.Ltmp513:
	@DEBUG_VALUE: _M_erase_at_end:__pos <- %R0
	.loc	13 1437 26              @ /usr/bin/../lib/gcc/arm-linux-gnueabihf/6.3.0/../../../../include/c++/6.3.0/bits/stl_vector.h:1437:26
	strlo	r0, [r6, #60]
.Ltmp514:
.LBB5_17:                               @ %_ZNSt6vectorIfSaIfEE6resizeEj.exit
	@DEBUG_VALUE: init:pitchShiftRatio <- %S20
	@DEBUG_VALUE: init:scaleFactor <- %S18
	@DEBUG_VALUE: init:sampleRate <- %S16
	@DEBUG_VALUE: n <- 0
	.loc	5 160 32                @ /root/Bela/projects/NIEMO/dsp/PitchShift.h:160:32
	vstr	s16, [r9, #36]
.Ltmp515:
	.loc	5 161 9 discriminator 1 @ /root/Bela/projects/NIEMO/dsp/PitchShift.h:161:9
	cmp	r4, #1
	blt	.LBB5_26
.Ltmp516:
@ BB#18:                                @ %.lr.ph
	@DEBUG_VALUE: init:pitchShiftRatio <- %S20
	@DEBUG_VALUE: init:scaleFactor <- %S18
	@DEBUG_VALUE: init:sampleRate <- %S16
	.loc	5 163 112               @ /root/Bela/projects/NIEMO/dsp/PitchShift.h:163:112
	sub	r0, r4, #1
.Ltmp517:
	.loc	13 781 32               @ /usr/bin/../lib/gcc/arm-linux-gnueabihf/6.3.0/../../../../include/c++/6.3.0/bits/stl_vector.h:781:32
	ldr	r5, [r6, #56]
.Ltmp518:
	.loc	13 781 32 is_stmt 0     @ /usr/bin/../lib/gcc/arm-linux-gnueabihf/6.3.0/../../../../include/c++/6.3.0/bits/stl_vector.h:781:32
	ldr	r6, [r6, #80]
	mov	r7, #0
.Ltmp519:
	.loc	5 163 102 is_stmt 1     @ /root/Bela/projects/NIEMO/dsp/PitchShift.h:163:102
	vmov	s0, r0
.Ltmp520:
	.loc	5 161 9 discriminator 1 @ /root/Bela/projects/NIEMO/dsp/PitchShift.h:161:9
	cmp	r4, #3
.Ltmp521:
	.loc	5 163 102               @ /root/Bela/projects/NIEMO/dsp/PitchShift.h:163:102
	vcvt.f32.s32	d0, d0
	.loc	5 163 95 is_stmt 0      @ /root/Bela/projects/NIEMO/dsp/PitchShift.h:163:95
	vcvt.f64.f32	d10, s0
.Ltmp522:
	bls	.LBB5_24
.Ltmp523:
@ BB#19:                                @ %min.iters.checked
	@DEBUG_VALUE: init:scaleFactor <- %S18
	@DEBUG_VALUE: init:sampleRate <- %S16
	.loc	5 161 9 is_stmt 1 discriminator 1 @ /root/Bela/projects/NIEMO/dsp/PitchShift.h:161:9
	mov	r8, r4
	bfc	r8, #0, #2
	cmp	r8, #0
	beq	.LBB5_24
.Ltmp524:
@ BB#20:                                @ %vector.memcheck
	@DEBUG_VALUE: init:scaleFactor <- %S18
	@DEBUG_VALUE: init:sampleRate <- %S16
	add	r0, r5, r4, lsl #2
	cmp	r6, r0
	addlo	r0, r6, r4, lsl #2
	cmplo	r5, r0
	blo	.LBB5_24
.Ltmp525:
@ BB#21:                                @ %vector.ph
	@DEBUG_VALUE: init:scaleFactor <- %S18
	@DEBUG_VALUE: init:sampleRate <- %S16
	vmov.f64	d11, d10
	adr	r0, .LCPI5_0
	.loc	5 161 39 is_stmt 0 discriminator 3 @ /root/Bela/projects/NIEMO/dsp/PitchShift.h:161:39
	mov	r7, r8
	vld1.64	{d12, d13}, [r0:128]
.Ltmp526:
.LBB5_22:                               @ %vector.body
                                        @ =>This Inner Loop Header: Depth=1
	.loc	5 163 91 is_stmt 1      @ /root/Bela/projects/NIEMO/dsp/PitchShift.h:163:91
	vcvt.f64.s32	d16, s27
	.loc	5 163 89 is_stmt 0      @ /root/Bela/projects/NIEMO/dsp/PitchShift.h:163:89
	vldr	d20, .LCPI5_1
	.loc	5 163 91                @ /root/Bela/projects/NIEMO/dsp/PitchShift.h:163:91
	vcvt.f64.s32	d17, s26
	vcvt.f64.s32	d18, s25
	vcvt.f64.s32	d19, s24
	.loc	5 163 89                @ /root/Bela/projects/NIEMO/dsp/PitchShift.h:163:89
	vmul.f64	d16, d16, d20
	vmul.f64	d17, d17, d20
	vmul.f64	d19, d19, d20
	.loc	5 163 93                @ /root/Bela/projects/NIEMO/dsp/PitchShift.h:163:93
	vdiv.f64	d16, d16, d11
	vdiv.f64	d15, d17, d10
	vdiv.f64	d17, d19, d10
	.loc	5 163 89                @ /root/Bela/projects/NIEMO/dsp/PitchShift.h:163:89
	vmul.f64	d18, d18, d20
	.loc	5 163 60                @ /root/Bela/projects/NIEMO/dsp/PitchShift.h:163:60
	vcvt.f32.f64	s0, d16
	.loc	5 163 93                @ /root/Bela/projects/NIEMO/dsp/PitchShift.h:163:93
	vdiv.f64	d14, d18, d11
	.loc	5 163 60                @ /root/Bela/projects/NIEMO/dsp/PitchShift.h:163:60
	vstr	d17, [sp]               @ 8-byte Spill
	.loc	5 163 55                @ /root/Bela/projects/NIEMO/dsp/PitchShift.h:163:55
	bl	cosf
	vmov.f32	s19, s0
	.loc	5 163 60                @ /root/Bela/projects/NIEMO/dsp/PitchShift.h:163:60
	vcvt.f32.f64	s0, d15
	.loc	5 163 55                @ /root/Bela/projects/NIEMO/dsp/PitchShift.h:163:55
	bl	cosf
	vmov.f32	s18, s0
	.loc	5 163 60                @ /root/Bela/projects/NIEMO/dsp/PitchShift.h:163:60
	vcvt.f32.f64	s0, d14
	.loc	5 163 55                @ /root/Bela/projects/NIEMO/dsp/PitchShift.h:163:55
	bl	cosf
	.loc	5 163 60                @ /root/Bela/projects/NIEMO/dsp/PitchShift.h:163:60
	vldr	d16, [sp]               @ 8-byte Reload
	.loc	5 163 55                @ /root/Bela/projects/NIEMO/dsp/PitchShift.h:163:55
	vmov.f32	s17, s0
	.loc	5 163 60                @ /root/Bela/projects/NIEMO/dsp/PitchShift.h:163:60
	vcvt.f32.f64	s0, d16
	.loc	5 163 55                @ /root/Bela/projects/NIEMO/dsp/PitchShift.h:163:55
	bl	cosf
.Ltmp527:
	.loc	13 781 41 is_stmt 1     @ /usr/bin/../lib/gcc/arm-linux-gnueabihf/6.3.0/../../../../include/c++/6.3.0/bits/stl_vector.h:781:41
	vmov.32	r0, d12[0]
.Ltmp528:
	.loc	5 163 55                @ /root/Bela/projects/NIEMO/dsp/PitchShift.h:163:55
	vmov.f32	s16, s0
	.loc	5 163 53 is_stmt 0      @ /root/Bela/projects/NIEMO/dsp/PitchShift.h:163:53
	vmov.f32	q8, #1.000000e+00
.Ltmp529:
	.loc	5 161 9 is_stmt 1 discriminator 1 @ /root/Bela/projects/NIEMO/dsp/PitchShift.h:161:9
	subs	r7, r7, #4
.Ltmp530:
	.loc	5 163 45                @ /root/Bela/projects/NIEMO/dsp/PitchShift.h:163:45
	vmov.i32	q9, #0x3f000000
	.loc	5 163 53 is_stmt 0      @ /root/Bela/projects/NIEMO/dsp/PitchShift.h:163:53
	vsub.f32	q8, q8, q4
	.loc	5 163 45                @ /root/Bela/projects/NIEMO/dsp/PitchShift.h:163:45
	vmul.f32	q8, q8, q9
.Ltmp531:
	.loc	5 161 9 is_stmt 1 discriminator 1 @ /root/Bela/projects/NIEMO/dsp/PitchShift.h:161:9
	vmov.i32	q9, #0x4
	vadd.i32	q6, q6, q9
.Ltmp532:
	.loc	13 781 41               @ /usr/bin/../lib/gcc/arm-linux-gnueabihf/6.3.0/../../../../include/c++/6.3.0/bits/stl_vector.h:781:41
	add	r1, r6, r0, lsl #2
.Ltmp533:
	.loc	13 781 41 is_stmt 0     @ /usr/bin/../lib/gcc/arm-linux-gnueabihf/6.3.0/../../../../include/c++/6.3.0/bits/stl_vector.h:781:41
	add	r0, r5, r0, lsl #2
.Ltmp534:
	.loc	5 163 38 is_stmt 1      @ /root/Bela/projects/NIEMO/dsp/PitchShift.h:163:38
	vst1.32	{d16, d17}, [r1]
	.loc	5 164 39                @ /root/Bela/projects/NIEMO/dsp/PitchShift.h:164:39
	vst1.32	{d16, d17}, [r0]
.Ltmp535:
	.loc	5 161 9 discriminator 1 @ /root/Bela/projects/NIEMO/dsp/PitchShift.h:161:9
	bne	.LBB5_22
@ BB#23:                                @ %middle.block
	mov	r7, r8
	cmp	r4, r8
	beq	.LBB5_26
.LBB5_24:                               @ %scalar.ph.preheader
.Ltmp536:
	.loc	5 163 53                @ /root/Bela/projects/NIEMO/dsp/PitchShift.h:163:53
	vmov.f32	d9, #1.000000e+00
	.loc	5 163 91 is_stmt 0      @ /root/Bela/projects/NIEMO/dsp/PitchShift.h:163:91
	add	r6, r6, r7, lsl #2
	.loc	5 163 45                @ /root/Bela/projects/NIEMO/dsp/PitchShift.h:163:45
	vmov.f32	d12, #5.000000e-01
	.loc	5 163 91                @ /root/Bela/projects/NIEMO/dsp/PitchShift.h:163:91
	add	r5, r5, r7, lsl #2
	.loc	5 163 89                @ /root/Bela/projects/NIEMO/dsp/PitchShift.h:163:89
	vldr	d8, .LCPI5_1
.LBB5_25:                               @ %scalar.ph
                                        @ =>This Inner Loop Header: Depth=1
.Ltmp537:
	@DEBUG_VALUE: operator[]:__n <- %R7
	.loc	5 163 91                @ /root/Bela/projects/NIEMO/dsp/PitchShift.h:163:91
	vmov	s0, r7
	vcvt.f64.s32	d16, s0
	.loc	5 163 89                @ /root/Bela/projects/NIEMO/dsp/PitchShift.h:163:89
	vmul.f64	d16, d16, d8
	.loc	5 163 93                @ /root/Bela/projects/NIEMO/dsp/PitchShift.h:163:93
	vdiv.f64	d16, d16, d10
	.loc	5 163 60                @ /root/Bela/projects/NIEMO/dsp/PitchShift.h:163:60
	vcvt.f32.f64	s0, d16
	.loc	5 163 55                @ /root/Bela/projects/NIEMO/dsp/PitchShift.h:163:55
	bl	cosf
                                        @ kill: %S0<def> %S0<kill> %D0<def>
.Ltmp538:
	.loc	5 161 39 is_stmt 1 discriminator 3 @ /root/Bela/projects/NIEMO/dsp/PitchShift.h:161:39
	add	r7, r7, #1
.Ltmp539:
	@DEBUG_VALUE: n <- %R7
	.loc	5 163 53                @ /root/Bela/projects/NIEMO/dsp/PitchShift.h:163:53
	vsub.f32	d16, d9, d0
.Ltmp540:
	.loc	5 161 9 discriminator 1 @ /root/Bela/projects/NIEMO/dsp/PitchShift.h:161:9
	cmp	r7, r4
.Ltmp541:
	.loc	5 163 45                @ /root/Bela/projects/NIEMO/dsp/PitchShift.h:163:45
	vmul.f32	d0, d16, d12
	.loc	5 163 38 is_stmt 0      @ /root/Bela/projects/NIEMO/dsp/PitchShift.h:163:38
	vstr	s0, [r6]
.Ltmp542:
	.loc	5 161 26 is_stmt 1 discriminator 1 @ /root/Bela/projects/NIEMO/dsp/PitchShift.h:161:26
	add	r6, r6, #4
.Ltmp543:
	.loc	5 164 39                @ /root/Bela/projects/NIEMO/dsp/PitchShift.h:164:39
	vstr	s0, [r5]
.Ltmp544:
	.loc	5 161 26 discriminator 1 @ /root/Bela/projects/NIEMO/dsp/PitchShift.h:161:26
	add	r5, r5, #4
	blt	.LBB5_25
.Ltmp545:
.LBB5_26:                               @ %._crit_edge
	.loc	5 166 20                @ /root/Bela/projects/NIEMO/dsp/PitchShift.h:166:20
	movw	r0, :lower16:_ZN10PitchShift22process_fft_backgroundEPv
	movw	r2, :lower16:.L.str
	movt	r0, :upper16:_ZN10PitchShift22process_fft_backgroundEPv
	movt	r2, :upper16:.L.str
.Ltmp546:
	@DEBUG_VALUE: allocate: <- %R3
	mov	r1, #80
	mov	r3, #0
.Ltmp547:
	bl	Bela_createAuxiliaryTask
	.loc	5 166 18 is_stmt 0      @ /root/Bela/projects/NIEMO/dsp/PitchShift.h:166:18
	str	r0, [r9, #40]
	.loc	5 167 5 is_stmt 1 discriminator 1 @ /root/Bela/projects/NIEMO/dsp/PitchShift.h:167:5
	sub	sp, r11, #88
	vpop	{d8, d9, d10, d11, d12, d13, d14, d15}
	pop	{r4, r5, r6, r7, r8, r9, r11, pc}
.LBB5_27:                               @ %.noexc.i.i
.Ltmp548:
	@DEBUG_VALUE: __niter <- %R7
	@DEBUG_VALUE: __fill_n_a<float *, unsigned int, float>:__n <- %R7
	@DEBUG_VALUE: fill_n<float *, unsigned int, float>:__n <- %R7
	@DEBUG_VALUE: __uninit_default_n<float *, unsigned int>:__n <- %R7
	@DEBUG_VALUE: __uninitialized_default_n<float *, unsigned int>:__n <- %R7
	@DEBUG_VALUE: __uninitialized_default_n_a<float *, unsigned int, float>:__n <- %R7
	@DEBUG_VALUE: _M_default_initialize:__n <- %R7
	@DEBUG_VALUE: allocate:__n <- %R7
	@DEBUG_VALUE: allocate:__n <- %R7
	@DEBUG_VALUE: vector:__n <- %R7
	@DEBUG_VALUE: _Vector_base:__n <- %R7
	@DEBUG_VALUE: _M_create_storage:__n <- %R7
	@DEBUG_VALUE: _M_allocate:__n <- %R7
	@DEBUG_VALUE: init:hopSize <- %R4
	@DEBUG_VALUE: init:pitchShiftRatio <- %S20
	@DEBUG_VALUE: init:scaleFactor <- %S18
	@DEBUG_VALUE: init:sampleRate <- %S16
	@DEBUG_VALUE: init:fftSize <- %R0
	.loc	9 102 4                 @ /usr/bin/../lib/gcc/arm-linux-gnueabihf/6.3.0/../../../../include/c++/6.3.0/ext/new_allocator.h:102:4
	mov	lr, pc
	b	_ZSt17__throw_bad_allocv
.Ltmp549:
	.p2align	4
@ BB#28:
.LCPI5_0:
	.long	0                       @ 0x0
	.long	1                       @ 0x1
	.long	2                       @ 0x2
	.long	3                       @ 0x3
.LCPI5_1:
	.long	1413754136              @ double 6.2831853071795862
	.long	1075388923
.Lfunc_end5:
	.size	_ZN10PitchShift4initEiifff, .Lfunc_end5-_ZN10PitchShift4initEiifff
	.cfi_endproc
	.fnend

	.globl	_ZN10PitchShift13processSampleEff
	.p2align	2
	.type	_ZN10PitchShift13processSampleEff,%function
_ZN10PitchShift13processSampleEff:      @ @_ZN10PitchShift13processSampleEff
.Lfunc_begin6:
	.loc	5 170 0                 @ /root/Bela/projects/NIEMO/dsp/PitchShift.h:170:0
	.fnstart
	.cfi_startproc
@ BB#0:
	.save	{r11, lr}
	push	{r11, lr}
.Ltmp550:
	.cfi_def_cfa_offset 8
.Ltmp551:
	.cfi_offset lr, -4
.Ltmp552:
	.cfi_offset r11, -8
	.setfp	r11, sp
	mov	r11, sp
.Ltmp553:
	.cfi_def_cfa_register r11
	.vsave	{d8}
	vpush	{d8}
.Ltmp554:
	.cfi_offset d8, -16
	@DEBUG_VALUE: processSample:in <- %S0
	@DEBUG_VALUE: processSample:shiftFactor <- %S1
.Ltmp555:
	.loc	5 171 35 prologue_end   @ /root/Bela/projects/NIEMO/dsp/PitchShift.h:171:35
	movw	r0, :lower16:.L_MergedGlobals
.Ltmp556:
	.loc	13 781 32               @ /usr/bin/../lib/gcc/arm-linux-gnueabihf/6.3.0/../../../../include/c++/6.3.0/bits/stl_vector.h:781:32
	movw	r12, :lower16:.L_MergedGlobals.5
.Ltmp557:
	.loc	5 171 35                @ /root/Bela/projects/NIEMO/dsp/PitchShift.h:171:35
	movt	r0, :upper16:.L_MergedGlobals
.Ltmp558:
	.loc	13 781 32               @ /usr/bin/../lib/gcc/arm-linux-gnueabihf/6.3.0/../../../../include/c++/6.3.0/bits/stl_vector.h:781:32
	movt	r12, :upper16:.L_MergedGlobals.5
.Ltmp559:
	.loc	5 171 35                @ /root/Bela/projects/NIEMO/dsp/PitchShift.h:171:35
	ldr	r3, [r0, #16]
.Ltmp560:
	@DEBUG_VALUE: operator[]:__n <- %R3
	vmov.f32	s2, s1
.Ltmp561:
	@DEBUG_VALUE: processSample:shiftFactor <- %S2
	.loc	13 781 32               @ /usr/bin/../lib/gcc/arm-linux-gnueabihf/6.3.0/../../../../include/c++/6.3.0/bits/stl_vector.h:781:32
	ldr	r2, [r12, #44]
.Ltmp562:
	.loc	5 171 35                @ /root/Bela/projects/NIEMO/dsp/PitchShift.h:171:35
	add	lr, r3, #1
	str	lr, [r0, #16]
.Ltmp563:
	.loc	13 781 41               @ /usr/bin/../lib/gcc/arm-linux-gnueabihf/6.3.0/../../../../include/c++/6.3.0/bits/stl_vector.h:781:41
	add	r2, r2, r3, lsl #2
.Ltmp564:
	.loc	5 171 39                @ /root/Bela/projects/NIEMO/dsp/PitchShift.h:171:39
	vstr	s0, [r2]
	.loc	5 172 6                 @ /root/Bela/projects/NIEMO/dsp/PitchShift.h:172:6
	movw	r2, #4095
	cmp	r3, r2
.Ltmp565:
	.loc	13 781 32               @ /usr/bin/../lib/gcc/arm-linux-gnueabihf/6.3.0/../../../../include/c++/6.3.0/bits/stl_vector.h:781:32
	ldr	r2, [r12, #68]
	movge	lr, #0
	mov	r12, #0
.Ltmp566:
	.loc	5 173 24                @ /root/Bela/projects/NIEMO/dsp/PitchShift.h:173:24
	strge	lr, [r0, #16]
.Ltmp567:
	.loc	5 175 29                @ /root/Bela/projects/NIEMO/dsp/PitchShift.h:175:29
	ldr	r3, [r0, #20]
.Ltmp568:
	@DEBUG_VALUE: operator[]:__n <- %R3
	@DEBUG_VALUE: operator[]:__n <- %R3
	.loc	13 781 41               @ /usr/bin/../lib/gcc/arm-linux-gnueabihf/6.3.0/../../../../include/c++/6.3.0/bits/stl_vector.h:781:41
	add	r1, r2, r3, lsl #2
.Ltmp569:
	.loc	5 175 15                @ /root/Bela/projects/NIEMO/dsp/PitchShift.h:175:15
	vldr	s0, [r1]
.Ltmp570:
	@DEBUG_VALUE: processSample:out <- %S0
	.loc	5 178 27                @ /root/Bela/projects/NIEMO/dsp/PitchShift.h:178:27
	add	r1, r3, #1
	.loc	5 176 43                @ /root/Bela/projects/NIEMO/dsp/PitchShift.h:176:43
	str	r12, [r2, r3, lsl #2]
.Ltmp571:
	.loc	5 179 31                @ /root/Bela/projects/NIEMO/dsp/PitchShift.h:179:31
	movw	r2, #4094
.Ltmp572:
	.loc	5 179 6 is_stmt 0       @ /root/Bela/projects/NIEMO/dsp/PitchShift.h:179:6
	cmp	r3, r2
	.loc	5 177 10 is_stmt 1      @ /root/Bela/projects/NIEMO/dsp/PitchShift.h:177:10
	vldr	s4, [r0, #12]
	.loc	5 179 6                 @ /root/Bela/projects/NIEMO/dsp/PitchShift.h:179:6
	movwgt	r1, #0
.Ltmp573:
	.loc	5 180 29                @ /root/Bela/projects/NIEMO/dsp/PitchShift.h:180:29
	str	r1, [r0, #20]
.Ltmp574:
	.loc	5 181 6                 @ /root/Bela/projects/NIEMO/dsp/PitchShift.h:181:6
	ldr	r1, [r0, #28]
.Ltmp575:
	.loc	5 177 7                 @ /root/Bela/projects/NIEMO/dsp/PitchShift.h:177:7
	vmul.f32	d8, d2, d0
.Ltmp576:
	.loc	5 181 6                 @ /root/Bela/projects/NIEMO/dsp/PitchShift.h:181:6
	add	r1, r1, #1
	str	r1, [r0, #28]
	.loc	5 181 23 is_stmt 0      @ /root/Bela/projects/NIEMO/dsp/PitchShift.h:181:23
	ldr	r2, [r0, #4]
.Ltmp577:
	@DEBUG_VALUE: processSample:out <- %S16
	.loc	5 181 6                 @ /root/Bela/projects/NIEMO/dsp/PitchShift.h:181:6
	cmp	r1, r2
	blt	.LBB6_2
.Ltmp578:
@ BB#1:
	@DEBUG_VALUE: processSample:out <- %S16
	@DEBUG_VALUE: operator[]:__n <- %R3
	@DEBUG_VALUE: operator[]:__n <- %R3
	@DEBUG_VALUE: processSample:shiftFactor <- %S2
	.loc	5 182 34 is_stmt 1      @ /root/Bela/projects/NIEMO/dsp/PitchShift.h:182:34
	vldr	s0, [r0, #8]
	.loc	5 182 49 is_stmt 0      @ /root/Bela/projects/NIEMO/dsp/PitchShift.h:182:49
	vldr	s4, [r0, #24]
	.loc	5 182 32                @ /root/Bela/projects/NIEMO/dsp/PitchShift.h:182:32
	vsub.f32	d16, d1, d0
	.loc	5 182 47                @ /root/Bela/projects/NIEMO/dsp/PitchShift.h:182:47
	vmul.f32	d16, d16, d2
	.loc	5 182 16                @ /root/Bela/projects/NIEMO/dsp/PitchShift.h:182:16
	vadd.f32	d0, d16, d0
	vstr	s0, [r0, #8]
	.loc	5 183 16 is_stmt 1      @ /root/Bela/projects/NIEMO/dsp/PitchShift.h:183:16
	str	r12, [r0, #28]
	.loc	5 184 30                @ /root/Bela/projects/NIEMO/dsp/PitchShift.h:184:30
	str	lr, [r0, #44]
	.loc	5 185 31                @ /root/Bela/projects/NIEMO/dsp/PitchShift.h:185:31
	ldr	r0, [r0, #40]
	.loc	5 185 4 is_stmt 0       @ /root/Bela/projects/NIEMO/dsp/PitchShift.h:185:4
	bl	Bela_scheduleAuxiliaryTask
.Ltmp579:
.LBB6_2:
	@DEBUG_VALUE: processSample:out <- %S16
	.loc	5 187 3 is_stmt 1       @ /root/Bela/projects/NIEMO/dsp/PitchShift.h:187:3
	vmov.f32	s0, s16
	vpop	{d8}
.Ltmp580:
	pop	{r11, pc}
.Ltmp581:
.Lfunc_end6:
	.size	_ZN10PitchShift13processSampleEff, .Lfunc_end6-_ZN10PitchShift13processSampleEff
	.cfi_endproc
	.fnend

	.globl	_ZN6Window9addSampleEf
	.p2align	2
	.type	_ZN6Window9addSampleEf,%function
_ZN6Window9addSampleEf:                 @ @_ZN6Window9addSampleEf
.Lfunc_begin7:
	.loc	19 13 0                 @ /root/Bela/projects/NIEMO/dsp/Window.h:13:0
	.fnstart
	.cfi_startproc
@ BB#0:
	@DEBUG_VALUE: addSample:in <- %S0
	.loc	19 14 37 prologue_end   @ /root/Bela/projects/NIEMO/dsp/Window.h:14:37
	movw	r1, :lower16:.L_MergedGlobals
.Ltmp582:
	.loc	13 781 32               @ /usr/bin/../lib/gcc/arm-linux-gnueabihf/6.3.0/../../../../include/c++/6.3.0/bits/stl_vector.h:781:32
	movw	r3, :lower16:.L_MergedGlobals.5
.Ltmp583:
	.loc	19 14 37                @ /root/Bela/projects/NIEMO/dsp/Window.h:14:37
	movt	r1, :upper16:.L_MergedGlobals
.Ltmp584:
	.loc	13 781 32               @ /usr/bin/../lib/gcc/arm-linux-gnueabihf/6.3.0/../../../../include/c++/6.3.0/bits/stl_vector.h:781:32
	movt	r3, :upper16:.L_MergedGlobals.5
.Ltmp585:
	.loc	19 14 37                @ /root/Bela/projects/NIEMO/dsp/Window.h:14:37
	ldr	r0, [r1, #52]
.Ltmp586:
	@DEBUG_VALUE: operator[]:__n <- %R0
	.loc	13 781 32               @ /usr/bin/../lib/gcc/arm-linux-gnueabihf/6.3.0/../../../../include/c++/6.3.0/bits/stl_vector.h:781:32
	ldr	r3, [r3, #92]
.Ltmp587:
	.loc	19 14 37                @ /root/Bela/projects/NIEMO/dsp/Window.h:14:37
	add	r12, r0, #1
	str	r12, [r1, #52]
.Ltmp588:
	.loc	13 781 41               @ /usr/bin/../lib/gcc/arm-linux-gnueabihf/6.3.0/../../../../include/c++/6.3.0/bits/stl_vector.h:781:41
	add	r3, r3, r0, lsl #2
.Ltmp589:
	.loc	19 14 41                @ /root/Bela/projects/NIEMO/dsp/Window.h:14:41
	vstr	s0, [r3]
	.loc	19 16 9                 @ /root/Bela/projects/NIEMO/dsp/Window.h:16:9
	movw	r3, #511
	cmp	r0, r3
	movge	r12, #0
.Ltmp590:
	.loc	19 17 29                @ /root/Bela/projects/NIEMO/dsp/Window.h:17:29
	strge	r12, [r1, #52]
.Ltmp591:
	.loc	19 19 9                 @ /root/Bela/projects/NIEMO/dsp/Window.h:19:9
	ldr	r0, [r1, #56]
.Ltmp592:
	add	r3, r0, #1
	str	r3, [r1, #56]
	.loc	19 19 26 is_stmt 0      @ /root/Bela/projects/NIEMO/dsp/Window.h:19:26
	ldr	r2, [r1, #48]
	mov	r0, #0
.Ltmp593:
	.loc	19 19 9                 @ /root/Bela/projects/NIEMO/dsp/Window.h:19:9
	cmp	r3, r2
	movge	r0, #0
.Ltmp594:
	.loc	19 20 21 is_stmt 1      @ /root/Bela/projects/NIEMO/dsp/Window.h:20:21
	strge	r0, [r1, #56]
	movge	r0, #1
	.loc	19 21 35                @ /root/Bela/projects/NIEMO/dsp/Window.h:21:35
	strge	r12, [r1, #60]
.Ltmp595:
	.loc	19 26 1                 @ /root/Bela/projects/NIEMO/dsp/Window.h:26:1
	bx	lr
.Ltmp596:
.Lfunc_end7:
	.size	_ZN6Window9addSampleEf, .Lfunc_end7-_ZN6Window9addSampleEf
	.cfi_endproc
	.fnend

	.globl	_ZN6Window15getWindowBufferEv
	.p2align	2
	.type	_ZN6Window15getWindowBufferEv,%function
_ZN6Window15getWindowBufferEv:          @ @_ZN6Window15getWindowBufferEv
.Lfunc_begin8:
	.loc	19 29 0                 @ /root/Bela/projects/NIEMO/dsp/Window.h:29:0
	.fnstart
	.cfi_startproc
@ BB#0:
	.save	{r4, r5, r6, r7, r8, r10, r11, lr}
	push	{r4, r5, r6, r7, r8, r10, r11, lr}
.Ltmp597:
	.cfi_def_cfa_offset 32
.Ltmp598:
	.cfi_offset lr, -4
.Ltmp599:
	.cfi_offset r11, -8
.Ltmp600:
	.cfi_offset r10, -12
.Ltmp601:
	.cfi_offset r8, -16
.Ltmp602:
	.cfi_offset r7, -20
.Ltmp603:
	.cfi_offset r6, -24
.Ltmp604:
	.cfi_offset r5, -28
.Ltmp605:
	.cfi_offset r4, -32
	.setfp	r11, sp, #24
	add	r11, sp, #24
.Ltmp606:
	.cfi_def_cfa r11, 8
.Ltmp607:
	@DEBUG_VALUE: getWindowBuffer:orderedBuffer <- [%R0+0]
	mov	r5, r0
.Ltmp608:
	@DEBUG_VALUE: getWindowBuffer:orderedBuffer <- [%R5+0]
	.loc	19 30 25 prologue_end   @ /root/Bela/projects/NIEMO/dsp/Window.h:30:25
	movw	r0, :lower16:.L_MergedGlobals
	movt	r0, :upper16:.L_MergedGlobals
	ldr	r6, [r0, #60]
.Ltmp609:
	@DEBUG_VALUE: allocate:__n <- 512
	@DEBUG_VALUE: allocate:__n <- 512
	@DEBUG_VALUE: _M_allocate:__n <- 512
	@DEBUG_VALUE: _M_create_storage:__n <- 512
	@DEBUG_VALUE: _Vector_base:__n <- 512
	@DEBUG_VALUE: vector:__n <- 512
	@DEBUG_VALUE: vector:this <- %R5
	@DEBUG_VALUE: getWindowBuffer:cachedPointer <- %R6
	.loc	9 104 27                @ /usr/bin/../lib/gcc/arm-linux-gnueabihf/6.3.0/../../../../include/c++/6.3.0/ext/new_allocator.h:104:27
	mov	r0, #2048
	bl	_Znwj
	mov	r4, r0
.Ltmp610:
	.loc	66 754 11               @ /usr/bin/../lib/gcc/arm-linux-gnueabihf/6.3.0/../../../../include/c++/6.3.0/bits/stl_algobase.h:754:11
	mov	r1, #0
	mov	r2, #2048
.Ltmp611:
	.loc	13 185 25               @ /usr/bin/../lib/gcc/arm-linux-gnueabihf/6.3.0/../../../../include/c++/6.3.0/bits/stl_vector.h:185:25
	str	r4, [r5]
	.loc	13 187 59               @ /usr/bin/../lib/gcc/arm-linux-gnueabihf/6.3.0/../../../../include/c++/6.3.0/bits/stl_vector.h:187:59
	add	r8, r4, #2048
	.loc	13 187 34 is_stmt 0     @ /usr/bin/../lib/gcc/arm-linux-gnueabihf/6.3.0/../../../../include/c++/6.3.0/bits/stl_vector.h:187:34
	str	r8, [r5, #8]
.Ltmp612:
	@DEBUG_VALUE: __niter <- 512
	@DEBUG_VALUE: __fill_n_a<float *, unsigned int, float>:__n <- 512
	@DEBUG_VALUE: fill_n<float *, unsigned int, float>:__n <- 512
	@DEBUG_VALUE: __uninit_default_n<float *, unsigned int>:__n <- 512
	@DEBUG_VALUE: __uninitialized_default_n<float *, unsigned int>:__assignable <- 1
	@DEBUG_VALUE: __uninitialized_default_n<float *, unsigned int>:__n <- 512
	@DEBUG_VALUE: __uninitialized_default_n_a<float *, unsigned int, float>:__n <- 512
	@DEBUG_VALUE: _M_default_initialize:__n <- 512
	@DEBUG_VALUE: _M_default_initialize:this <- %R5
	mov	r7, #0
.Ltmp613:
	.loc	66 754 11 is_stmt 1     @ /usr/bin/../lib/gcc/arm-linux-gnueabihf/6.3.0/../../../../include/c++/6.3.0/bits/stl_algobase.h:754:11
	bl	memset
.Ltmp614:
	.loc	13 781 32               @ /usr/bin/../lib/gcc/arm-linux-gnueabihf/6.3.0/../../../../include/c++/6.3.0/bits/stl_vector.h:781:32
	movw	r0, :lower16:.L_MergedGlobals.5
.Ltmp615:
	.loc	19 33 61                @ /root/Bela/projects/NIEMO/dsp/Window.h:33:61
	movw	r1, #65024
.Ltmp616:
	.loc	13 781 32               @ /usr/bin/../lib/gcc/arm-linux-gnueabihf/6.3.0/../../../../include/c++/6.3.0/bits/stl_vector.h:781:32
	movt	r0, :upper16:.L_MergedGlobals.5
.Ltmp617:
	.loc	19 33 61                @ /root/Bela/projects/NIEMO/dsp/Window.h:33:61
	movt	r1, #16383
.Ltmp618:
	.loc	13 781 32               @ /usr/bin/../lib/gcc/arm-linux-gnueabihf/6.3.0/../../../../include/c++/6.3.0/bits/stl_vector.h:781:32
	ldr	r0, [r0, #92]
.Ltmp619:
	.loc	13 1308 26              @ /usr/bin/../lib/gcc/arm-linux-gnueabihf/6.3.0/../../../../include/c++/6.3.0/bits/stl_vector.h:1308:26
	str	r8, [r5, #4]
.Ltmp620:
	@DEBUG_VALUE: i <- 0
.LBB8_1:                                @ =>This Inner Loop Header: Depth=1
	.loc	19 33 61                @ /root/Bela/projects/NIEMO/dsp/Window.h:33:61
	add	r2, r6, r7
.Ltmp621:
	@DEBUG_VALUE: operator[]:__n <- %R7
	asr	r3, r2, #31
	add	r3, r2, r3, lsr #23
	and	r3, r3, r1
	sub	r2, r2, r3
.Ltmp622:
	@DEBUG_VALUE: operator[]:__n <- %R2
	.loc	19 33 28 is_stmt 0      @ /root/Bela/projects/NIEMO/dsp/Window.h:33:28
	ldr	r2, [r0, r2, lsl #2]
.Ltmp623:
	.loc	19 33 26                @ /root/Bela/projects/NIEMO/dsp/Window.h:33:26
	str	r2, [r4, r7, lsl #2]
.Ltmp624:
	.loc	19 32 38 is_stmt 1 discriminator 3 @ /root/Bela/projects/NIEMO/dsp/Window.h:32:38
	add	r7, r7, #1
.Ltmp625:
	@DEBUG_VALUE: i <- %R7
	.loc	19 32 5 is_stmt 0 discriminator 1 @ /root/Bela/projects/NIEMO/dsp/Window.h:32:5
	cmp	r7, #512
	bne	.LBB8_1
.Ltmp626:
@ BB#2:
	@DEBUG_VALUE: i <- %R7
	.loc	19 36 1 is_stmt 1 discriminator 3 @ /root/Bela/projects/NIEMO/dsp/Window.h:36:1
	pop	{r4, r5, r6, r7, r8, r10, r11, pc}
.Ltmp627:
.Lfunc_end8:
	.size	_ZN6Window15getWindowBufferEv, .Lfunc_end8-_ZN6Window15getWindowBufferEv
	.cfi_endproc
	.fnend

	.section	.text._ZN18DynamicStiffStringD2Ev,"axG",%progbits,_ZN18DynamicStiffStringD2Ev,comdat
	.weak	_ZN18DynamicStiffStringD2Ev
	.p2align	2
	.type	_ZN18DynamicStiffStringD2Ev,%function
_ZN18DynamicStiffStringD2Ev:            @ @_ZN18DynamicStiffStringD2Ev
.Lfunc_begin9:
	.loc	21 16 0                 @ /root/Bela/projects/NIEMO/dsp/DynamicStiffString.h:16:0
	.fnstart
	.cfi_startproc
@ BB#0:
	.save	{r4, r5, r6, r10, r11, lr}
	push	{r4, r5, r6, r10, r11, lr}
.Ltmp628:
	.cfi_def_cfa_offset 24
.Ltmp629:
	.cfi_offset lr, -4
.Ltmp630:
	.cfi_offset r11, -8
.Ltmp631:
	.cfi_offset r10, -12
.Ltmp632:
	.cfi_offset r6, -16
.Ltmp633:
	.cfi_offset r5, -20
.Ltmp634:
	.cfi_offset r4, -24
	.setfp	r11, sp, #16
	add	r11, sp, #16
.Ltmp635:
	.cfi_def_cfa r11, 8
	@DEBUG_VALUE: ~DynamicStiffString:this <- %R0
	mov	r4, r0
.Ltmp636:
	@DEBUG_VALUE: ~DynamicStiffString:this <- %R4
	.loc	13 160 37 prologue_end  @ /usr/bin/../lib/gcc/arm-linux-gnueabihf/6.3.0/../../../../include/c++/6.3.0/bits/stl_vector.h:160:37
	ldr	r0, [r4, #264]
.Ltmp637:
	@DEBUG_VALUE: _M_deallocate:__p <- %R0
	@DEBUG_VALUE: deallocate:__p <- %R0
	@DEBUG_VALUE: deallocate:__p <- %R0
	.loc	13 177 6                @ /usr/bin/../lib/gcc/arm-linux-gnueabihf/6.3.0/../../../../include/c++/6.3.0/bits/stl_vector.h:177:6
	cmp	r0, #0
	beq	.LBB9_2
.Ltmp638:
@ BB#1:
	@DEBUG_VALUE: deallocate:__p <- %R0
	@DEBUG_VALUE: deallocate:__p <- %R0
	@DEBUG_VALUE: _M_deallocate:__p <- %R0
	@DEBUG_VALUE: ~DynamicStiffString:this <- %R4
	.loc	9 110 9                 @ /usr/bin/../lib/gcc/arm-linux-gnueabihf/6.3.0/../../../../include/c++/6.3.0/ext/new_allocator.h:110:9
	bl	_ZdlPv
.Ltmp639:
.LBB9_2:                                @ %_ZNSt6vectorIfSaIfEED2Ev.exit
	@DEBUG_VALUE: ~DynamicStiffString:this <- %R4
	.loc	13 160 37               @ /usr/bin/../lib/gcc/arm-linux-gnueabihf/6.3.0/../../../../include/c++/6.3.0/bits/stl_vector.h:160:37
	ldr	r0, [r4, #208]
.Ltmp640:
	@DEBUG_VALUE: _M_deallocate:__p <- %R0
	@DEBUG_VALUE: deallocate:__p <- %R0
	@DEBUG_VALUE: deallocate:__p <- %R0
	.loc	13 177 6                @ /usr/bin/../lib/gcc/arm-linux-gnueabihf/6.3.0/../../../../include/c++/6.3.0/bits/stl_vector.h:177:6
	cmp	r0, #0
	beq	.LBB9_4
.Ltmp641:
@ BB#3:
	@DEBUG_VALUE: deallocate:__p <- %R0
	@DEBUG_VALUE: deallocate:__p <- %R0
	@DEBUG_VALUE: _M_deallocate:__p <- %R0
	@DEBUG_VALUE: ~DynamicStiffString:this <- %R4
	.loc	9 110 9                 @ /usr/bin/../lib/gcc/arm-linux-gnueabihf/6.3.0/../../../../include/c++/6.3.0/ext/new_allocator.h:110:9
	bl	_ZdlPv
.Ltmp642:
.LBB9_4:                                @ %_ZNSt6vectorIPfSaIS0_EED2Ev.exit
	@DEBUG_VALUE: ~DynamicStiffString:this <- %R4
	.loc	13 160 37               @ /usr/bin/../lib/gcc/arm-linux-gnueabihf/6.3.0/../../../../include/c++/6.3.0/bits/stl_vector.h:160:37
	ldr	r0, [r4, #196]
.Ltmp643:
	@DEBUG_VALUE: _M_deallocate:__p <- %R0
	@DEBUG_VALUE: deallocate:__p <- %R0
	@DEBUG_VALUE: deallocate:__p <- %R0
	.loc	13 177 6                @ /usr/bin/../lib/gcc/arm-linux-gnueabihf/6.3.0/../../../../include/c++/6.3.0/bits/stl_vector.h:177:6
	cmp	r0, #0
	beq	.LBB9_6
.Ltmp644:
@ BB#5:
	@DEBUG_VALUE: deallocate:__p <- %R0
	@DEBUG_VALUE: deallocate:__p <- %R0
	@DEBUG_VALUE: _M_deallocate:__p <- %R0
	@DEBUG_VALUE: ~DynamicStiffString:this <- %R4
	.loc	9 110 9                 @ /usr/bin/../lib/gcc/arm-linux-gnueabihf/6.3.0/../../../../include/c++/6.3.0/ext/new_allocator.h:110:9
	bl	_ZdlPv
.Ltmp645:
.LBB9_6:                                @ %_ZNSt6vectorIPfSaIS0_EED2Ev.exit1
	@DEBUG_VALUE: ~DynamicStiffString:this <- %R4
	@DEBUG_VALUE: __destroy<std::vector<float, std::allocator<float> > *>:__first <- %R5
	@DEBUG_VALUE: _Destroy<std::vector<float, std::allocator<float> > *>:__first <- %R5
	@DEBUG_VALUE: _Destroy<std::vector<float, std::allocator<float> > *, std::vector<float, std::allocator<float> > >:__first <- %R5
	@DEBUG_VALUE: _Destroy<std::vector<float, std::allocator<float> > *, std::vector<float, std::allocator<float> > >:__last <- %R6
	@DEBUG_VALUE: _Destroy<std::vector<float, std::allocator<float> > *>:__last <- %R6
	@DEBUG_VALUE: __destroy<std::vector<float, std::allocator<float> > *>:__last <- %R6
	.loc	13 426 37               @ /usr/bin/../lib/gcc/arm-linux-gnueabihf/6.3.0/../../../../include/c++/6.3.0/bits/stl_vector.h:426:37
	ldr	r5, [r4, #184]
.Ltmp646:
	.loc	13 426 61 is_stmt 0     @ /usr/bin/../lib/gcc/arm-linux-gnueabihf/6.3.0/../../../../include/c++/6.3.0/bits/stl_vector.h:426:61
	ldr	r6, [r4, #188]
.Ltmp647:
	.file	70 "/usr/bin/../lib/gcc/arm-linux-gnueabihf/6.3.0/../../../../include/c++/6.3.0/bits" "stl_construct.h"
	.loc	70 102 4 is_stmt 1 discriminator 1 @ /usr/bin/../lib/gcc/arm-linux-gnueabihf/6.3.0/../../../../include/c++/6.3.0/bits/stl_construct.h:102:4
	cmp	r5, r6
	beq	.LBB9_11
.Ltmp648:
.LBB9_7:                                @ %.lr.ph.i.i.i.i
                                        @ =>This Inner Loop Header: Depth=1
	@DEBUG_VALUE: __addressof<std::vector<float, std::allocator<float> > >:__r <- %R5
	.loc	13 160 37               @ /usr/bin/../lib/gcc/arm-linux-gnueabihf/6.3.0/../../../../include/c++/6.3.0/bits/stl_vector.h:160:37
	ldr	r0, [r5]
.Ltmp649:
	@DEBUG_VALUE: _M_deallocate:__p <- %R0
	@DEBUG_VALUE: deallocate:__p <- %R0
	@DEBUG_VALUE: deallocate:__p <- %R0
	.loc	13 177 6                @ /usr/bin/../lib/gcc/arm-linux-gnueabihf/6.3.0/../../../../include/c++/6.3.0/bits/stl_vector.h:177:6
	cmp	r0, #0
	beq	.LBB9_9
.Ltmp650:
@ BB#8:                                 @   in Loop: Header=BB9_7 Depth=1
	@DEBUG_VALUE: deallocate:__p <- %R0
	@DEBUG_VALUE: deallocate:__p <- %R0
	@DEBUG_VALUE: _M_deallocate:__p <- %R0
	@DEBUG_VALUE: __addressof<std::vector<float, std::allocator<float> > >:__r <- %R5
	.loc	9 110 9                 @ /usr/bin/../lib/gcc/arm-linux-gnueabihf/6.3.0/../../../../include/c++/6.3.0/ext/new_allocator.h:110:9
	bl	_ZdlPv
.Ltmp651:
.LBB9_9:                                @ %_ZSt8_DestroyISt6vectorIfSaIfEEEvPT_.exit.i.i.i.i
                                        @   in Loop: Header=BB9_7 Depth=1
	@DEBUG_VALUE: __addressof<std::vector<float, std::allocator<float> > >:__r <- %R5
	.loc	70 102 30 discriminator 2 @ /usr/bin/../lib/gcc/arm-linux-gnueabihf/6.3.0/../../../../include/c++/6.3.0/bits/stl_construct.h:102:30
	add	r5, r5, #12
.Ltmp652:
	@DEBUG_VALUE: __destroy<std::vector<float, std::allocator<float> > *>:__first <- %R5
	.loc	70 102 4 is_stmt 0 discriminator 1 @ /usr/bin/../lib/gcc/arm-linux-gnueabihf/6.3.0/../../../../include/c++/6.3.0/bits/stl_construct.h:102:4
	cmp	r6, r5
	bne	.LBB9_7
.Ltmp653:
@ BB#10:                                @ %_ZSt8_DestroyIPSt6vectorIfSaIfEES2_EvT_S4_RSaIT0_E.exit.loopexit.i
	@DEBUG_VALUE: __destroy<std::vector<float, std::allocator<float> > *>:__first <- %R5
	.loc	13 160 37 is_stmt 1     @ /usr/bin/../lib/gcc/arm-linux-gnueabihf/6.3.0/../../../../include/c++/6.3.0/bits/stl_vector.h:160:37
	ldr	r5, [r4, #184]
.Ltmp654:
.LBB9_11:                               @ %_ZSt8_DestroyIPSt6vectorIfSaIfEES2_EvT_S4_RSaIT0_E.exit.i
	@DEBUG_VALUE: _M_deallocate:__p <- %R5
	.loc	13 177 6                @ /usr/bin/../lib/gcc/arm-linux-gnueabihf/6.3.0/../../../../include/c++/6.3.0/bits/stl_vector.h:177:6
	cmp	r5, #0
	beq	.LBB9_13
.Ltmp655:
@ BB#12:
	@DEBUG_VALUE: _M_deallocate:__p <- %R5
	.loc	9 110 9                 @ /usr/bin/../lib/gcc/arm-linux-gnueabihf/6.3.0/../../../../include/c++/6.3.0/ext/new_allocator.h:110:9
	mov	r0, r5
	bl	_ZdlPv
.Ltmp656:
.LBB9_13:                               @ %_ZNSt6vectorIS_IfSaIfEESaIS1_EED2Ev.exit
	@DEBUG_VALUE: _M_deallocate:__p <- %R5
	@DEBUG_VALUE: __destroy<std::vector<float, std::allocator<float> > *>:__first <- %R5
	@DEBUG_VALUE: _Destroy<std::vector<float, std::allocator<float> > *>:__first <- %R5
	@DEBUG_VALUE: _Destroy<std::vector<float, std::allocator<float> > *, std::vector<float, std::allocator<float> > >:__first <- %R5
	@DEBUG_VALUE: _Destroy<std::vector<float, std::allocator<float> > *, std::vector<float, std::allocator<float> > >:__last <- %R6
	@DEBUG_VALUE: _Destroy<std::vector<float, std::allocator<float> > *>:__last <- %R6
	@DEBUG_VALUE: __destroy<std::vector<float, std::allocator<float> > *>:__last <- %R6
	.loc	13 426 37               @ /usr/bin/../lib/gcc/arm-linux-gnueabihf/6.3.0/../../../../include/c++/6.3.0/bits/stl_vector.h:426:37
	ldr	r5, [r4, #172]
.Ltmp657:
	.loc	13 426 61 is_stmt 0     @ /usr/bin/../lib/gcc/arm-linux-gnueabihf/6.3.0/../../../../include/c++/6.3.0/bits/stl_vector.h:426:61
	ldr	r6, [r4, #176]
.Ltmp658:
	.loc	70 102 4 is_stmt 1 discriminator 1 @ /usr/bin/../lib/gcc/arm-linux-gnueabihf/6.3.0/../../../../include/c++/6.3.0/bits/stl_construct.h:102:4
	cmp	r5, r6
	beq	.LBB9_18
.LBB9_14:                               @ %.lr.ph.i.i.i.i3
                                        @ =>This Inner Loop Header: Depth=1
.Ltmp659:
	@DEBUG_VALUE: __addressof<std::vector<float, std::allocator<float> > >:__r <- %R5
	.loc	13 160 37               @ /usr/bin/../lib/gcc/arm-linux-gnueabihf/6.3.0/../../../../include/c++/6.3.0/bits/stl_vector.h:160:37
	ldr	r0, [r5]
.Ltmp660:
	@DEBUG_VALUE: _M_deallocate:__p <- %R0
	@DEBUG_VALUE: deallocate:__p <- %R0
	@DEBUG_VALUE: deallocate:__p <- %R0
	.loc	13 177 6                @ /usr/bin/../lib/gcc/arm-linux-gnueabihf/6.3.0/../../../../include/c++/6.3.0/bits/stl_vector.h:177:6
	cmp	r0, #0
	beq	.LBB9_16
.Ltmp661:
@ BB#15:                                @   in Loop: Header=BB9_14 Depth=1
	@DEBUG_VALUE: deallocate:__p <- %R0
	@DEBUG_VALUE: deallocate:__p <- %R0
	@DEBUG_VALUE: _M_deallocate:__p <- %R0
	@DEBUG_VALUE: __addressof<std::vector<float, std::allocator<float> > >:__r <- %R5
	.loc	9 110 9                 @ /usr/bin/../lib/gcc/arm-linux-gnueabihf/6.3.0/../../../../include/c++/6.3.0/ext/new_allocator.h:110:9
	bl	_ZdlPv
.Ltmp662:
.LBB9_16:                               @ %_ZSt8_DestroyISt6vectorIfSaIfEEEvPT_.exit.i.i.i.i4
                                        @   in Loop: Header=BB9_14 Depth=1
	@DEBUG_VALUE: __addressof<std::vector<float, std::allocator<float> > >:__r <- %R5
	.loc	70 102 30 discriminator 2 @ /usr/bin/../lib/gcc/arm-linux-gnueabihf/6.3.0/../../../../include/c++/6.3.0/bits/stl_construct.h:102:30
	add	r5, r5, #12
.Ltmp663:
	@DEBUG_VALUE: __destroy<std::vector<float, std::allocator<float> > *>:__first <- %R5
	.loc	70 102 4 is_stmt 0 discriminator 1 @ /usr/bin/../lib/gcc/arm-linux-gnueabihf/6.3.0/../../../../include/c++/6.3.0/bits/stl_construct.h:102:4
	cmp	r6, r5
	bne	.LBB9_14
.Ltmp664:
@ BB#17:                                @ %_ZSt8_DestroyIPSt6vectorIfSaIfEES2_EvT_S4_RSaIT0_E.exit.loopexit.i6
	@DEBUG_VALUE: __destroy<std::vector<float, std::allocator<float> > *>:__first <- %R5
	.loc	13 160 37 is_stmt 1     @ /usr/bin/../lib/gcc/arm-linux-gnueabihf/6.3.0/../../../../include/c++/6.3.0/bits/stl_vector.h:160:37
	ldr	r5, [r4, #172]
.Ltmp665:
.LBB9_18:                               @ %_ZSt8_DestroyIPSt6vectorIfSaIfEES2_EvT_S4_RSaIT0_E.exit.i7
	@DEBUG_VALUE: _M_deallocate:__p <- %R5
	.loc	13 177 6                @ /usr/bin/../lib/gcc/arm-linux-gnueabihf/6.3.0/../../../../include/c++/6.3.0/bits/stl_vector.h:177:6
	cmp	r5, #0
	beq	.LBB9_20
.Ltmp666:
@ BB#19:
	@DEBUG_VALUE: _M_deallocate:__p <- %R5
	.loc	9 110 9                 @ /usr/bin/../lib/gcc/arm-linux-gnueabihf/6.3.0/../../../../include/c++/6.3.0/ext/new_allocator.h:110:9
	mov	r0, r5
	bl	_ZdlPv
.Ltmp667:
.LBB9_20:                               @ %_ZNSt6vectorIS_IfSaIfEESaIS1_EED2Ev.exit8
	@DEBUG_VALUE: _M_deallocate:__p <- %R5
	.loc	22 497 23               @ /usr/bin/../lib/gcc/arm-linux-gnueabihf/6.3.0/../../../../include/c++/6.3.0/bits/stl_bvector.h:497:23
	ldr	r0, [r4, #92]
.Ltmp668:
	.loc	22 497 6 is_stmt 0      @ /usr/bin/../lib/gcc/arm-linux-gnueabihf/6.3.0/../../../../include/c++/6.3.0/bits/stl_bvector.h:497:6
	cmp	r0, #0
	beq	.LBB9_22
.Ltmp669:
@ BB#21:
	@DEBUG_VALUE: _M_deallocate:__p <- %R5
	@DEBUG_VALUE: deallocate:__p <- %R0
	@DEBUG_VALUE: deallocate:__p <- %R0
	.loc	9 110 9 is_stmt 1       @ /usr/bin/../lib/gcc/arm-linux-gnueabihf/6.3.0/../../../../include/c++/6.3.0/ext/new_allocator.h:110:9
	bl	_ZdlPv
.Ltmp670:
.LBB9_22:                               @ %_ZNSt13_Bvector_baseISaIbEED2Ev.exit
	@DEBUG_VALUE: _M_deallocate:__p <- %R5
	.loc	13 160 37               @ /usr/bin/../lib/gcc/arm-linux-gnueabihf/6.3.0/../../../../include/c++/6.3.0/bits/stl_vector.h:160:37
	ldr	r0, [r4, #80]
.Ltmp671:
	@DEBUG_VALUE: _M_deallocate:__p <- %R0
	@DEBUG_VALUE: deallocate:__p <- %R0
	@DEBUG_VALUE: deallocate:__p <- %R0
	.loc	13 177 6                @ /usr/bin/../lib/gcc/arm-linux-gnueabihf/6.3.0/../../../../include/c++/6.3.0/bits/stl_vector.h:177:6
	cmp	r0, #0
	beq	.LBB9_24
.Ltmp672:
@ BB#23:
	@DEBUG_VALUE: deallocate:__p <- %R0
	@DEBUG_VALUE: deallocate:__p <- %R0
	@DEBUG_VALUE: _M_deallocate:__p <- %R0
	@DEBUG_VALUE: _M_deallocate:__p <- %R5
	.loc	9 110 9                 @ /usr/bin/../lib/gcc/arm-linux-gnueabihf/6.3.0/../../../../include/c++/6.3.0/ext/new_allocator.h:110:9
	bl	_ZdlPv
.Ltmp673:
.LBB9_24:                               @ %_ZNSt6vectorIfSaIfEED2Ev.exit9
	@DEBUG_VALUE: _M_deallocate:__p <- %R5
	.loc	13 160 37               @ /usr/bin/../lib/gcc/arm-linux-gnueabihf/6.3.0/../../../../include/c++/6.3.0/bits/stl_vector.h:160:37
	ldr	r0, [r4, #68]
.Ltmp674:
	@DEBUG_VALUE: _M_deallocate:__p <- %R0
	@DEBUG_VALUE: deallocate:__p <- %R0
	@DEBUG_VALUE: deallocate:__p <- %R0
	.loc	13 177 6                @ /usr/bin/../lib/gcc/arm-linux-gnueabihf/6.3.0/../../../../include/c++/6.3.0/bits/stl_vector.h:177:6
	cmp	r0, #0
	beq	.LBB9_26
.Ltmp675:
@ BB#25:
	@DEBUG_VALUE: deallocate:__p <- %R0
	@DEBUG_VALUE: deallocate:__p <- %R0
	@DEBUG_VALUE: _M_deallocate:__p <- %R0
	@DEBUG_VALUE: _M_deallocate:__p <- %R5
	.loc	9 110 9                 @ /usr/bin/../lib/gcc/arm-linux-gnueabihf/6.3.0/../../../../include/c++/6.3.0/ext/new_allocator.h:110:9
	bl	_ZdlPv
.Ltmp676:
.LBB9_26:                               @ %_ZNSt6vectorIPfSaIS0_EED2Ev.exit10
	@DEBUG_VALUE: _M_deallocate:__p <- %R5
	.loc	21 16 35                @ /root/Bela/projects/NIEMO/dsp/DynamicStiffString.h:16:35
	mov	r0, r4
	pop	{r4, r5, r6, r10, r11, pc}
.Ltmp677:
.Lfunc_end9:
	.size	_ZN18DynamicStiffStringD2Ev, .Lfunc_end9-_ZN18DynamicStiffStringD2Ev
	.cfi_endproc
	.fnend

	.text
	.globl	_Z12getPitchTaskPv
	.p2align	3
	.type	_Z12getPitchTaskPv,%function
_Z12getPitchTaskPv:                     @ @_Z12getPitchTaskPv
.Lfunc_begin10:
	.loc	20 67 0                 @ /root/Bela/projects/NIEMO/render.cpp:67:0
	.fnstart
	.cfi_startproc
@ BB#0:
	.save	{r4, r5, r6, r7, r11, lr}
	push	{r4, r5, r6, r7, r11, lr}
.Ltmp686:
	.cfi_def_cfa_offset 24
.Ltmp687:
	.cfi_offset lr, -4
.Ltmp688:
	.cfi_offset r11, -8
.Ltmp689:
	.cfi_offset r7, -12
.Ltmp690:
	.cfi_offset r6, -16
.Ltmp691:
	.cfi_offset r5, -20
.Ltmp692:
	.cfi_offset r4, -24
	.setfp	r11, sp, #16
	add	r11, sp, #16
.Ltmp693:
	.cfi_def_cfa r11, 8
	.vsave	{d8, d9, d10}
	vpush	{d8, d9, d10}
.Ltmp694:
	.cfi_offset d10, -32
.Ltmp695:
	.cfi_offset d9, -40
.Ltmp696:
	.cfi_offset d8, -48
	@DEBUG_VALUE: getPitchTask:arg <- %R0
.Ltmp697:
	.loc	19 30 25 prologue_end   @ /root/Bela/projects/NIEMO/dsp/Window.h:30:25
	movw	r6, :lower16:.L_MergedGlobals
.Ltmp698:
	.loc	9 104 27                @ /usr/bin/../lib/gcc/arm-linux-gnueabihf/6.3.0/../../../../include/c++/6.3.0/ext/new_allocator.h:104:27
	mov	r0, #2048
.Ltmp699:
	.loc	19 30 25                @ /root/Bela/projects/NIEMO/dsp/Window.h:30:25
	movt	r6, :upper16:.L_MergedGlobals
	ldr	r5, [r6, #60]
.Ltmp700:
	@DEBUG_VALUE: allocate:__n <- 512
	@DEBUG_VALUE: allocate:__n <- 512
	@DEBUG_VALUE: _M_allocate:__n <- 512
	@DEBUG_VALUE: _M_create_storage:__n <- 512
	@DEBUG_VALUE: _Vector_base:__n <- 512
	@DEBUG_VALUE: vector:__n <- 512
	@DEBUG_VALUE: getWindowBuffer:cachedPointer <- %R5
	.loc	9 104 27                @ /usr/bin/../lib/gcc/arm-linux-gnueabihf/6.3.0/../../../../include/c++/6.3.0/ext/new_allocator.h:104:27
	bl	_Znwj
.Ltmp701:
	.loc	66 754 11               @ /usr/bin/../lib/gcc/arm-linux-gnueabihf/6.3.0/../../../../include/c++/6.3.0/bits/stl_algobase.h:754:11
	mov	r1, #0
	mov	r2, #2048
.Ltmp702:
	.loc	9 104 27                @ /usr/bin/../lib/gcc/arm-linux-gnueabihf/6.3.0/../../../../include/c++/6.3.0/ext/new_allocator.h:104:27
	mov	r4, r0
.Ltmp703:
	@DEBUG_VALUE: __niter <- 512
	@DEBUG_VALUE: __fill_n_a<float *, unsigned int, float>:__n <- 512
	@DEBUG_VALUE: fill_n<float *, unsigned int, float>:__n <- 512
	@DEBUG_VALUE: __uninit_default_n<float *, unsigned int>:__n <- 512
	@DEBUG_VALUE: __uninitialized_default_n<float *, unsigned int>:__assignable <- 1
	@DEBUG_VALUE: __uninitialized_default_n<float *, unsigned int>:__n <- 512
	@DEBUG_VALUE: __uninitialized_default_n_a<float *, unsigned int, float>:__n <- 512
	@DEBUG_VALUE: _M_default_initialize:__n <- 512
	mov	r7, #0
.Ltmp704:
	.loc	66 754 11               @ /usr/bin/../lib/gcc/arm-linux-gnueabihf/6.3.0/../../../../include/c++/6.3.0/bits/stl_algobase.h:754:11
	bl	memset
.Ltmp705:
	@DEBUG_VALUE: i <- 0
	.loc	13 781 32               @ /usr/bin/../lib/gcc/arm-linux-gnueabihf/6.3.0/../../../../include/c++/6.3.0/bits/stl_vector.h:781:32
	movw	r0, :lower16:.L_MergedGlobals.5
.Ltmp706:
	.loc	19 33 61                @ /root/Bela/projects/NIEMO/dsp/Window.h:33:61
	movw	r1, #65024
.Ltmp707:
	.loc	13 781 32               @ /usr/bin/../lib/gcc/arm-linux-gnueabihf/6.3.0/../../../../include/c++/6.3.0/bits/stl_vector.h:781:32
	movt	r0, :upper16:.L_MergedGlobals.5
.Ltmp708:
	.loc	19 33 61                @ /root/Bela/projects/NIEMO/dsp/Window.h:33:61
	movt	r1, #16383
.Ltmp709:
	.loc	13 781 32               @ /usr/bin/../lib/gcc/arm-linux-gnueabihf/6.3.0/../../../../include/c++/6.3.0/bits/stl_vector.h:781:32
	ldr	r0, [r0, #92]
.Ltmp710:
.LBB10_1:                               @ =>This Inner Loop Header: Depth=1
	.loc	19 33 61                @ /root/Bela/projects/NIEMO/dsp/Window.h:33:61
	add	r2, r5, r7
.Ltmp711:
	@DEBUG_VALUE: operator[]:__n <- %R7
	asr	r3, r2, #31
	add	r3, r2, r3, lsr #23
	and	r3, r3, r1
	sub	r2, r2, r3
.Ltmp712:
	@DEBUG_VALUE: operator[]:__n <- %R2
	.loc	19 33 28 is_stmt 0      @ /root/Bela/projects/NIEMO/dsp/Window.h:33:28
	ldr	r2, [r0, r2, lsl #2]
.Ltmp713:
	.loc	19 33 26                @ /root/Bela/projects/NIEMO/dsp/Window.h:33:26
	str	r2, [r4, r7, lsl #2]
.Ltmp714:
	.loc	19 32 38 is_stmt 1 discriminator 3 @ /root/Bela/projects/NIEMO/dsp/Window.h:32:38
	add	r7, r7, #1
.Ltmp715:
	@DEBUG_VALUE: i <- %R7
	.loc	19 32 5 is_stmt 0 discriminator 1 @ /root/Bela/projects/NIEMO/dsp/Window.h:32:5
	cmp	r7, #512
	bne	.LBB10_1
.Ltmp716:
@ BB#2:                                 @ %_ZN6Window15getWindowBufferEv.exit
	@DEBUG_VALUE: i <- %R7
	.loc	20 69 18 is_stmt 1      @ /root/Bela/projects/NIEMO/render.cpp:69:18
.Ltmp678:
	movw	r0, :lower16:yin
	mov	r1, r4
	movt	r0, :upper16:yin
	bl	_ZN3Yin8getPitchEPKf
	vmov.f32	s16, s0
.Ltmp679:
.Ltmp717:
@ BB#3:
	@DEBUG_VALUE: i <- %R7
	.loc	20 70 13                @ /root/Bela/projects/NIEMO/render.cpp:70:13
.Ltmp681:
	movw	r0, :lower16:yin
	movt	r0, :upper16:yin
	bl	_ZN3Yin14getProbabilityEv
.Ltmp682:
.Ltmp718:
@ BB#4:
	@DEBUG_VALUE: i <- %R7
	.loc	20 71 6                 @ /root/Bela/projects/NIEMO/render.cpp:71:6
	vcvt.f64.f32	d16, s0
	.loc	20 71 11 is_stmt 0      @ /root/Bela/projects/NIEMO/render.cpp:71:11
	vldr	d17, .LCPI10_0
.Ltmp719:
	.loc	20 70 7 is_stmt 1 discriminator 1 @ /root/Bela/projects/NIEMO/render.cpp:70:7
	vstr	s0, [r6, #100]
	.loc	20 71 6                 @ /root/Bela/projects/NIEMO/render.cpp:71:6
	vcmpe.f64	d16, d17
	vmrs	APSR_nzcv, fpscr
	blt	.LBB10_11
.Ltmp720:
@ BB#5:
	@DEBUG_VALUE: i <- %R7
	@DEBUG_VALUE: getPitchTask:res <- %S16
	.loc	20 73 16                @ /root/Bela/projects/NIEMO/render.cpp:73:16
	vstr	s16, [r6, #76]
	.loc	20 74 15                @ /root/Bela/projects/NIEMO/render.cpp:74:15
.Ltmp683:
	vmov.f32	s0, s16
	movw	r5, :lower16:.L_MergedGlobals.6
	movt	r5, :upper16:.L_MergedGlobals.6
	mov	r0, r5
	bl	_ZN11PitchMapper16setF0EmptyStringEf
.Ltmp684:
.Ltmp721:
@ BB#6:
	@DEBUG_VALUE: getPitchTask:res <- %S16
	@DEBUG_VALUE: i <- %R7
	@DEBUG_VALUE: mapPitch:newF <- -1.000000e+00
	.loc	17 37 10                @ /root/Bela/projects/NIEMO/dsp/PitchMap.h:37:10
	ldr	r0, [r5, #36]
.Ltmp722:
	.loc	17 37 10 is_stmt 0      @ /root/Bela/projects/NIEMO/dsp/PitchMap.h:37:10
	cmp	r0, #17
	blt	.LBB10_8
.Ltmp723:
@ BB#7:
	@DEBUG_VALUE: getPitchTask:res <- %S16
	@DEBUG_VALUE: i <- %R7
	.loc	17 39 21 is_stmt 1      @ /root/Bela/projects/NIEMO/dsp/PitchMap.h:39:21
	vldr	s0, [r5]
	.loc	17 39 15 is_stmt 0      @ /root/Bela/projects/NIEMO/dsp/PitchMap.h:39:15
	vldr	s4, [r5, #8]
.Ltmp724:
	@DEBUG_VALUE: mapPitch:f0 <- %S16
	.loc	17 39 35                @ /root/Bela/projects/NIEMO/dsp/PitchMap.h:39:35
	vdiv.f32	s0, s0, s16
	.loc	17 43 25 is_stmt 1      @ /root/Bela/projects/NIEMO/dsp/PitchMap.h:43:25
	ldr	r0, [r5, #32]
	.loc	17 39 18                @ /root/Bela/projects/NIEMO/dsp/PitchMap.h:39:18
	vmul.f32	d16, d0, d2
.Ltmp725:
	@DEBUG_VALUE: L <- undef
	.loc	17 43 52                @ /root/Bela/projects/NIEMO/dsp/PitchMap.h:43:52
	vldr	s2, [r5, #12]
	.loc	17 49 14                @ /root/Bela/projects/NIEMO/dsp/PitchMap.h:49:14
	vldr	s20, [r5, #24]
	.loc	17 43 45                @ /root/Bela/projects/NIEMO/dsp/PitchMap.h:43:45
	vsub.f32	d0, d16, d2
	.loc	17 43 50 is_stmt 0      @ /root/Bela/projects/NIEMO/dsp/PitchMap.h:43:50
	vdiv.f32	s0, s0, s2
	.loc	17 43 25                @ /root/Bela/projects/NIEMO/dsp/PitchMap.h:43:25
	vmov	s2, r0
	vcvt.f32.s32	d16, d1
	.loc	17 43 38                @ /root/Bela/projects/NIEMO/dsp/PitchMap.h:43:38
	vadd.f32	d9, d16, d0
.Ltmp726:
	@DEBUG_VALUE: round:__x <- %S18
	@DEBUG_VALUE: semitones <- %S18
	.file	71 "/usr/bin/../lib/gcc/arm-linux-gnueabihf/6.3.0/../../../../include/c++/6.3.0" "cmath"
	.loc	71 1791 12 is_stmt 1    @ /usr/bin/../lib/gcc/arm-linux-gnueabihf/6.3.0/../../../../include/c++/6.3.0/cmath:1791:12
	vmov.f32	s0, s18
	bl	roundf
.Ltmp727:
	.loc	17 47 40                @ /root/Bela/projects/NIEMO/dsp/PitchMap.h:47:40
	vldr	s4, .LCPI10_2
.Ltmp728:
	@DEBUG_VALUE: blendFactor <- 4.340000e-01
	.loc	71 1791 12              @ /usr/bin/../lib/gcc/arm-linux-gnueabihf/6.3.0/../../../../include/c++/6.3.0/cmath:1791:12
                                        @ kill: %S0<def> %S0<kill> %D0<def>
.Ltmp729:
	@DEBUG_VALUE: nearestSemitone <- %S0
	.loc	17 47 81                @ /root/Bela/projects/NIEMO/dsp/PitchMap.h:47:81
	vldr	s2, .LCPI10_1
	.loc	17 47 40 is_stmt 0      @ /root/Bela/projects/NIEMO/dsp/PitchMap.h:47:40
	vmul.f32	d16, d9, d2
	.loc	17 49 49 is_stmt 1      @ /root/Bela/projects/NIEMO/dsp/PitchMap.h:49:49
	vldr	s4, [r5, #28]
	.loc	17 47 81                @ /root/Bela/projects/NIEMO/dsp/PitchMap.h:47:81
	vmul.f32	d17, d0, d1
	.loc	17 49 55                @ /root/Bela/projects/NIEMO/dsp/PitchMap.h:49:55
	vldr	s0, .LCPI10_3
.Ltmp730:
	.loc	17 47 63                @ /root/Bela/projects/NIEMO/dsp/PitchMap.h:47:63
	vsub.f32	d16, d16, d2
	.loc	17 49 47                @ /root/Bela/projects/NIEMO/dsp/PitchMap.h:49:47
	vadd.f32	d16, d16, d17
	.loc	17 49 55 is_stmt 0      @ /root/Bela/projects/NIEMO/dsp/PitchMap.h:49:55
	vmul.f32	d0, d16, d0
	.loc	17 49 28                @ /root/Bela/projects/NIEMO/dsp/PitchMap.h:49:28
	vcvt.f64.f32	d0, s0
	.loc	17 49 21                @ /root/Bela/projects/NIEMO/dsp/PitchMap.h:49:21
	bl	exp2
	.loc	17 49 14                @ /root/Bela/projects/NIEMO/dsp/PitchMap.h:49:14
	vcvt.f64.f32	d16, s20
	.loc	17 49 19                @ /root/Bela/projects/NIEMO/dsp/PitchMap.h:49:19
	vmul.f64	d16, d0, d16
	.loc	17 49 14                @ /root/Bela/projects/NIEMO/dsp/PitchMap.h:49:14
	vcvt.f32.f64	s2, d16
.Ltmp731:
	@DEBUG_VALUE: mapPitch:newF <- %S2
	b	.LBB10_9
.Ltmp732:
.LBB10_8:
	@DEBUG_VALUE: getPitchTask:res <- %S16
	@DEBUG_VALUE: i <- %R7
	vmov.f32	d1, #-1.000000e+00
.Ltmp733:
.LBB10_9:                               @ %_ZN11PitchMapper8mapPitchEf.exit
	@DEBUG_VALUE: getPitchTask:res <- %S16
	@DEBUG_VALUE: i <- %R7
	.loc	20 75 18 is_stmt 1 discriminator 1 @ /root/Bela/projects/NIEMO/render.cpp:75:18
	vstr	s2, [r6, #80]
.Ltmp734:
	.loc	20 77 48 discriminator 1 @ /root/Bela/projects/NIEMO/render.cpp:77:48
	mov	r1, #0
.Ltmp735:
	.loc	20 76 27                @ /root/Bela/projects/NIEMO/render.cpp:76:27
	vldr	s4, [r6, #88]
	mov	r0, #0
	.loc	20 76 25 is_stmt 0      @ /root/Bela/projects/NIEMO/render.cpp:76:25
	vmov.f64	d17, #1.000000e+00
	.loc	20 76 27                @ /root/Bela/projects/NIEMO/render.cpp:76:27
	vcvt.f64.f32	d16, s4
	.loc	20 76 25                @ /root/Bela/projects/NIEMO/render.cpp:76:25
	vsub.f64	d16, d17, d16
	.loc	20 76 45                @ /root/Bela/projects/NIEMO/render.cpp:76:45
	vcvt.f64.f32	d17, s2
	.loc	20 76 79                @ /root/Bela/projects/NIEMO/render.cpp:76:79
	vldr	s0, [r6, #84]
	.loc	20 76 43                @ /root/Bela/projects/NIEMO/render.cpp:76:43
	vmul.f64	d16, d16, d17
	.loc	20 76 77                @ /root/Bela/projects/NIEMO/render.cpp:76:77
	vmul.f32	d1, d0, d2
.Ltmp736:
	.loc	20 77 48 is_stmt 1 discriminator 1 @ /root/Bela/projects/NIEMO/render.cpp:77:48
	vldr	s4, .LCPI10_4
	.loc	20 77 22 is_stmt 0      @ /root/Bela/projects/NIEMO/render.cpp:77:22
	vldr	s6, .LCPI10_5
.Ltmp737:
	.loc	20 76 62 is_stmt 1      @ /root/Bela/projects/NIEMO/render.cpp:76:62
	vcvt.f64.f32	d17, s2
	.loc	20 76 60 is_stmt 0      @ /root/Bela/projects/NIEMO/render.cpp:76:60
	vadd.f64	d16, d16, d17
	.loc	20 76 20                @ /root/Bela/projects/NIEMO/render.cpp:76:20
	vcvt.f32.f64	s2, d16
.Ltmp738:
	.loc	20 77 48 is_stmt 1 discriminator 1 @ /root/Bela/projects/NIEMO/render.cpp:77:48
	vcmpe.f32	s2, s4
	vmrs	APSR_nzcv, fpscr
	.loc	20 77 22 is_stmt 0      @ /root/Bela/projects/NIEMO/render.cpp:77:22
	vcmpe.f32	s2, s6
	.loc	20 77 30                @ /root/Bela/projects/NIEMO/render.cpp:77:30
	vmov.f32	s4, s2
	.loc	20 77 48 discriminator 1 @ /root/Bela/projects/NIEMO/render.cpp:77:48
	movwgt	r1, #1
	.loc	20 77 22                @ /root/Bela/projects/NIEMO/render.cpp:77:22
	vmrs	APSR_nzcv, fpscr
.Ltmp739:
	.loc	20 82 7 is_stmt 1       @ /root/Bela/projects/NIEMO/render.cpp:82:7
	vcmpe.f32	s16, #0
.Ltmp740:
	.loc	20 77 22                @ /root/Bela/projects/NIEMO/render.cpp:77:22
	movwlt	r0, #1
	.loc	20 77 30 is_stmt 0      @ /root/Bela/projects/NIEMO/render.cpp:77:30
	orrs	r0, r0, r1
	vmovne.f32	s4, s0
.Ltmp741:
	.loc	20 82 7 is_stmt 1       @ /root/Bela/projects/NIEMO/render.cpp:82:7
	vmrs	APSR_nzcv, fpscr
	.loc	20 76 18                @ /root/Bela/projects/NIEMO/render.cpp:76:18
	vstr	s4, [r6, #80]
	.loc	20 81 13                @ /root/Bela/projects/NIEMO/render.cpp:81:13
	vstr	s4, [r6, #84]
	ble	.LBB10_11
.Ltmp742:
@ BB#10:
	@DEBUG_VALUE: getPitchTask:res <- %S16
	@DEBUG_VALUE: i <- %R7
	.loc	20 77 30                @ /root/Bela/projects/NIEMO/render.cpp:77:30
	cmp	r0, #0
	vmovne.f32	s2, s0
.Ltmp743:
	.loc	20 84 42                @ /root/Bela/projects/NIEMO/render.cpp:84:42
	vdiv.f32	s0, s2, s16
	.loc	20 85 28                @ /root/Bela/projects/NIEMO/render.cpp:85:28
	vldr	s2, [r6, #96]
	.loc	20 85 25 is_stmt 0      @ /root/Bela/projects/NIEMO/render.cpp:85:25
	vmul.f32	d0, d1, d0
	vstr	s0, [r6, #92]
.Ltmp744:
.LBB10_11:                              @ %_ZNSt6vectorIfSaIfEED2Ev.exit10
	@DEBUG_VALUE: i <- %R7
	.loc	9 110 9 is_stmt 1       @ /usr/bin/../lib/gcc/arm-linux-gnueabihf/6.3.0/../../../../include/c++/6.3.0/ext/new_allocator.h:110:9
	mov	r0, r4
	vpop	{d8, d9, d10}
	pop	{r4, r5, r6, r7, r11, lr}
.Ltmp745:
	b	_ZdlPv
.Ltmp746:
.LBB10_12:
	@DEBUG_VALUE: i <- %R7
.Ltmp680:
	b	.LBB10_14
.Ltmp747:
.LBB10_13:
	@DEBUG_VALUE: i <- %R7
.Ltmp685:
.Ltmp748:
.LBB10_14:                              @ %_ZNSt6vectorIfSaIfEED2Ev.exit
	@DEBUG_VALUE: i <- %R7
	mov	r5, r0
.Ltmp749:
	.loc	9 110 9 is_stmt 0       @ /usr/bin/../lib/gcc/arm-linux-gnueabihf/6.3.0/../../../../include/c++/6.3.0/ext/new_allocator.h:110:9
	mov	r0, r4
	bl	_ZdlPv
	mov	r0, r5
	mov	lr, pc
	b	_Unwind_Resume
.Ltmp750:
	.p2align	3
@ BB#15:
.LCPI10_0:
	.long	1030792151              @ double 0.99499999999999999
	.long	1072682762
.LCPI10_1:
	.long	1054750015              @ float 0.433999985
.LCPI10_2:
	.long	1058071904              @ float 0.565999985
.LCPI10_3:
	.long	1034594987              @ float 0.0833333358
.LCPI10_4:
	.long	1148846080              @ float 1000
.LCPI10_5:
	.long	1120403456              @ float 100
.Lfunc_end10:
	.size	_Z12getPitchTaskPv, .Lfunc_end10-_Z12getPitchTaskPv
	.cfi_endproc
	.globl	__gxx_personality_v0
	.personality __gxx_personality_v0
	.handlerdata
	.p2align	2
GCC_except_table10:
.Lexception2:
	.byte	255                     @ @LPStart Encoding = omit
	.byte	0                       @ @TType Encoding = absptr
	.asciz	"\266\200\200"          @ @TType base offset
	.byte	3                       @ Call site Encoding = udata4
	.byte	52                      @ Call site table length
	.long	.Lfunc_begin10-.Lfunc_begin10 @ >> Call Site 1 <<
	.long	.Ltmp678-.Lfunc_begin10 @   Call between .Lfunc_begin10 and .Ltmp678
	.long	0                       @     has no landing pad
	.byte	0                       @   On action: cleanup
	.long	.Ltmp678-.Lfunc_begin10 @ >> Call Site 2 <<
	.long	.Ltmp679-.Ltmp678       @   Call between .Ltmp678 and .Ltmp679
	.long	.Ltmp680-.Lfunc_begin10 @     jumps to .Ltmp680
	.byte	0                       @   On action: cleanup
	.long	.Ltmp681-.Lfunc_begin10 @ >> Call Site 3 <<
	.long	.Ltmp684-.Ltmp681       @   Call between .Ltmp681 and .Ltmp684
	.long	.Ltmp685-.Lfunc_begin10 @     jumps to .Ltmp685
	.byte	0                       @   On action: cleanup
	.long	.Ltmp684-.Lfunc_begin10 @ >> Call Site 4 <<
	.long	.Lfunc_end10-.Ltmp684   @   Call between .Ltmp684 and .Lfunc_end10
	.long	0                       @     has no landing pad
	.byte	0                       @   On action: cleanup
	.p2align	2
	.fnend

	.section	.text._ZN11PitchMapper16setF0EmptyStringEf,"axG",%progbits,_ZN11PitchMapper16setF0EmptyStringEf,comdat
	.weak	_ZN11PitchMapper16setF0EmptyStringEf
	.p2align	3
	.type	_ZN11PitchMapper16setF0EmptyStringEf,%function
_ZN11PitchMapper16setF0EmptyStringEf:   @ @_ZN11PitchMapper16setF0EmptyStringEf
.Lfunc_begin11:
	.loc	17 9 0 is_stmt 1        @ /root/Bela/projects/NIEMO/dsp/PitchMap.h:9:0
	.fnstart
	.cfi_startproc
@ BB#0:
	.save	{r4, r5, r11, lr}
	push	{r4, r5, r11, lr}
.Ltmp751:
	.cfi_def_cfa_offset 16
.Ltmp752:
	.cfi_offset lr, -4
.Ltmp753:
	.cfi_offset r11, -8
.Ltmp754:
	.cfi_offset r5, -12
.Ltmp755:
	.cfi_offset r4, -16
	.setfp	r11, sp, #8
	add	r11, sp, #8
.Ltmp756:
	.cfi_def_cfa r11, 8
	@DEBUG_VALUE: setF0EmptyString:this <- %R0
	@DEBUG_VALUE: setF0EmptyString:f0 <- %S0
	mov	r4, r0
.Ltmp757:
	@DEBUG_VALUE: setF0EmptyString:this <- %R4
                                        @ kill: %S0<def> %S0<kill> %D0<def>
.Ltmp758:
	.loc	17 19 31 prologue_end   @ /root/Bela/projects/NIEMO/dsp/PitchMap.h:19:31
	ldr	r0, [r4, #36]
.Ltmp759:
	.loc	17 10 12                @ /root/Bela/projects/NIEMO/dsp/PitchMap.h:10:12
	cmp	r0, #15
	bgt	.LBB11_4
.Ltmp760:
@ BB#1:
	@DEBUG_VALUE: setF0EmptyString:this <- %R4
	@DEBUG_VALUE: d <- 2.286000e-04
	@DEBUG_VALUE: rho <- 7.850000e+03
	@DEBUG_VALUE: A <- 4.104331e-08
	.loc	17 15 16                @ /root/Bela/projects/NIEMO/dsp/PitchMap.h:15:16
	movw	r1, #60314
	.loc	17 18 33                @ /root/Bela/projects/NIEMO/dsp/PitchMap.h:18:33
	vcvt.f64.f32	d17, s0
	.loc	17 15 16                @ /root/Bela/projects/NIEMO/dsp/PitchMap.h:15:16
	movt	r1, #14760
.Ltmp761:
	.file	72 "/usr/bin/../lib/gcc/arm-linux-gnueabihf/6.3.0/../../../../include/c++/6.3.0" "ostream"
	.loc	72 561 2                @ /usr/bin/../lib/gcc/arm-linux-gnueabihf/6.3.0/../../../../include/c++/6.3.0/ostream:561:2
	movw	r5, :lower16:_ZSt4cout
.Ltmp762:
	.loc	17 15 16                @ /root/Bela/projects/NIEMO/dsp/PitchMap.h:15:16
	str	r1, [r4, #16]
.Ltmp763:
	.loc	72 561 2                @ /usr/bin/../lib/gcc/arm-linux-gnueabihf/6.3.0/../../../../include/c++/6.3.0/ostream:561:2
	movw	r1, :lower16:.L.str.25
.Ltmp764:
	.loc	17 19 31                @ /root/Bela/projects/NIEMO/dsp/PitchMap.h:19:31
	add	r0, r0, #1
.Ltmp765:
	.loc	72 561 2                @ /usr/bin/../lib/gcc/arm-linux-gnueabihf/6.3.0/../../../../include/c++/6.3.0/ostream:561:2
	movt	r5, :upper16:_ZSt4cout
.Ltmp766:
	@DEBUG_VALUE: operator<<:this <- %R5
	@DEBUG_VALUE: operator<<<std::char_traits<char> >:__out <- %R5
	movt	r1, :upper16:.L.str.25
.Ltmp767:
	@DEBUG_VALUE: operator<<<std::char_traits<char> >:__s <- %R1
	mov	r2, #16
.Ltmp768:
	.loc	17 17 19                @ /root/Bela/projects/NIEMO/dsp/PitchMap.h:17:19
	vldr	s2, [r4, #4]
	vadd.f32	d1, d1, d0
	vstr	s2, [r4, #4]
	.loc	17 18 28                @ /root/Bela/projects/NIEMO/dsp/PitchMap.h:18:28
	vldr	s2, [r4, #8]
	.loc	17 18 15 is_stmt 0      @ /root/Bela/projects/NIEMO/dsp/PitchMap.h:18:15
	vldr	s4, [r4, #20]
	.loc	17 18 28                @ /root/Bela/projects/NIEMO/dsp/PitchMap.h:18:28
	vcvt.f64.f32	d16, s2
	.loc	17 18 31                @ /root/Bela/projects/NIEMO/dsp/PitchMap.h:18:31
	vadd.f64	d16, d16, d16
	vmul.f64	d16, d17, d16
	.loc	17 18 18                @ /root/Bela/projects/NIEMO/dsp/PitchMap.h:18:18
	vmul.f64	d16, d16, d16
	.loc	17 18 40                @ /root/Bela/projects/NIEMO/dsp/PitchMap.h:18:40
	vldr	d17, .LCPI11_1
	vmul.f64	d16, d16, d17
	.loc	17 18 15                @ /root/Bela/projects/NIEMO/dsp/PitchMap.h:18:15
	vcvt.f64.f32	d17, s4
	vadd.f64	d16, d16, d17
	vcvt.f32.f64	s0, d16
	vstr	s0, [r4, #20]
	.loc	17 19 31 is_stmt 1      @ /root/Bela/projects/NIEMO/dsp/PitchMap.h:19:31
	str	r0, [r4, #36]
.Ltmp769:
	.loc	72 561 2                @ /usr/bin/../lib/gcc/arm-linux-gnueabihf/6.3.0/../../../../include/c++/6.3.0/ostream:561:2
	mov	r0, r5
	bl	_ZSt16__ostream_insertIcSt11char_traitsIcEERSt13basic_ostreamIT_T0_ES6_PKS3_i
.Ltmp770:
	.loc	17 21 48                @ /root/Bela/projects/NIEMO/dsp/PitchMap.h:21:48
	vldr	s0, [r4, #4]
.Ltmp771:
	@DEBUG_VALUE: operator<<:__f <- %S0
	.loc	72 228 9                @ /usr/bin/../lib/gcc/arm-linux-gnueabihf/6.3.0/../../../../include/c++/6.3.0/ostream:228:9
	mov	r0, r5
	.loc	72 228 39 is_stmt 0     @ /usr/bin/../lib/gcc/arm-linux-gnueabihf/6.3.0/../../../../include/c++/6.3.0/ostream:228:39
	vcvt.f64.f32	d0, s0
.Ltmp772:
	.loc	72 228 9                @ /usr/bin/../lib/gcc/arm-linux-gnueabihf/6.3.0/../../../../include/c++/6.3.0/ostream:228:9
	bl	_ZNSo9_M_insertIdEERSoT_
.Ltmp773:
	.loc	72 561 2 is_stmt 1      @ /usr/bin/../lib/gcc/arm-linux-gnueabihf/6.3.0/../../../../include/c++/6.3.0/ostream:561:2
	movw	r1, :lower16:.L.str.26
	mov	r2, #18
	movt	r1, :upper16:.L.str.26
.Ltmp774:
	@DEBUG_VALUE: operator<<<std::char_traits<char> >:__s <- %R1
	.loc	72 228 9                @ /usr/bin/../lib/gcc/arm-linux-gnueabihf/6.3.0/../../../../include/c++/6.3.0/ostream:228:9
	mov	r5, r0
.Ltmp775:
	@DEBUG_VALUE: operator<<<std::char_traits<char> >:__out <- %R5
	@DEBUG_VALUE: operator<<:this <- %R5
	.loc	72 561 2                @ /usr/bin/../lib/gcc/arm-linux-gnueabihf/6.3.0/../../../../include/c++/6.3.0/ostream:561:2
	bl	_ZSt16__ostream_insertIcSt11char_traitsIcEERSt13basic_ostreamIT_T0_ES6_PKS3_i
.Ltmp776:
	.loc	17 21 81                @ /root/Bela/projects/NIEMO/dsp/PitchMap.h:21:81
	vldr	s0, [r4, #20]
.Ltmp777:
	@DEBUG_VALUE: operator<<:__f <- %S0
	.loc	72 228 9                @ /usr/bin/../lib/gcc/arm-linux-gnueabihf/6.3.0/../../../../include/c++/6.3.0/ostream:228:9
	mov	r0, r5
	.loc	72 228 39 is_stmt 0     @ /usr/bin/../lib/gcc/arm-linux-gnueabihf/6.3.0/../../../../include/c++/6.3.0/ostream:228:39
	vcvt.f64.f32	d0, s0
.Ltmp778:
	.loc	72 228 9                @ /usr/bin/../lib/gcc/arm-linux-gnueabihf/6.3.0/../../../../include/c++/6.3.0/ostream:228:9
	bl	_ZNSo9_M_insertIdEERSoT_
	mov	r4, r0
.Ltmp779:
	@DEBUG_VALUE: endl<char, std::char_traits<char> >:__os <- %R4
	@DEBUG_VALUE: operator<<:this <- %R4
	.loc	72 591 29 is_stmt 1     @ /usr/bin/../lib/gcc/arm-linux-gnueabihf/6.3.0/../../../../include/c++/6.3.0/ostream:591:29
	ldr	r0, [r4]
	ldr	r0, [r0, #-12]
	add	r0, r4, r0
.Ltmp780:
	@DEBUG_VALUE: widen:__c <- 10
	.file	73 "/usr/bin/../lib/gcc/arm-linux-gnueabihf/6.3.0/../../../../include/c++/6.3.0/bits" "basic_ios.h"
	.loc	73 450 30               @ /usr/bin/../lib/gcc/arm-linux-gnueabihf/6.3.0/../../../../include/c++/6.3.0/bits/basic_ios.h:450:30
	ldr	r5, [r0, #124]
.Ltmp781:
	@DEBUG_VALUE: __check_facet<std::ctype<char> >:__f <- %R5
	@DEBUG_VALUE: widen:this <- %R5
	.loc	73 49 11                @ /usr/bin/../lib/gcc/arm-linux-gnueabihf/6.3.0/../../../../include/c++/6.3.0/bits/basic_ios.h:49:11
	cmp	r5, #0
	beq	.LBB11_7
.Ltmp782:
@ BB#2:                                 @ %_ZSt13__check_facetISt5ctypeIcEERKT_PS3_.exit
	@DEBUG_VALUE: widen:this <- %R5
	@DEBUG_VALUE: __check_facet<std::ctype<char> >:__f <- %R5
	@DEBUG_VALUE: operator<<:this <- %R4
	@DEBUG_VALUE: endl<char, std::char_traits<char> >:__os <- %R4
	@DEBUG_VALUE: widen:__c <- 10
	.file	74 "/usr/bin/../lib/gcc/arm-linux-gnueabihf/6.3.0/../../../../include/c++/6.3.0/bits" "locale_facets.h"
	.loc	74 874 6                @ /usr/bin/../lib/gcc/arm-linux-gnueabihf/6.3.0/../../../../include/c++/6.3.0/bits/locale_facets.h:874:6
	ldrb	r0, [r5, #28]
.Ltmp783:
	.loc	74 874 6 is_stmt 0      @ /usr/bin/../lib/gcc/arm-linux-gnueabihf/6.3.0/../../../../include/c++/6.3.0/bits/locale_facets.h:874:6
	cmp	r0, #0
	beq	.LBB11_5
.Ltmp784:
@ BB#3:
	@DEBUG_VALUE: widen:this <- %R5
	@DEBUG_VALUE: __check_facet<std::ctype<char> >:__f <- %R5
	@DEBUG_VALUE: operator<<:this <- %R4
	@DEBUG_VALUE: endl<char, std::char_traits<char> >:__os <- %R4
	.loc	74 875 11 is_stmt 1     @ /usr/bin/../lib/gcc/arm-linux-gnueabihf/6.3.0/../../../../include/c++/6.3.0/bits/locale_facets.h:875:11
	ldrb	r1, [r5, #39]
	b	.LBB11_6
.Ltmp785:
.LBB11_4:
	@DEBUG_VALUE: setF0EmptyString:this <- %R4
	.loc	17 25 13                @ /root/Bela/projects/NIEMO/dsp/PitchMap.h:25:13
	cmp	r0, #16
	.loc	17 32 2                 @ /root/Bela/projects/NIEMO/dsp/PitchMap.h:32:2
	popne	{r4, r5, r11, pc}
.Ltmp786:
	.loc	17 27 35                @ /root/Bela/projects/NIEMO/dsp/PitchMap.h:27:35
	vldr	s0, .LCPI11_0
.Ltmp787:
	.loc	72 561 2                @ /usr/bin/../lib/gcc/arm-linux-gnueabihf/6.3.0/../../../../include/c++/6.3.0/ostream:561:2
	movw	r5, :lower16:_ZSt4cout
.Ltmp788:
	.loc	17 27 29                @ /root/Bela/projects/NIEMO/dsp/PitchMap.h:27:29
	vldr	s2, [r4, #4]
.Ltmp789:
	.loc	72 561 2                @ /usr/bin/../lib/gcc/arm-linux-gnueabihf/6.3.0/../../../../include/c++/6.3.0/ostream:561:2
	movw	r1, :lower16:.L.str.27
.Ltmp790:
	.loc	17 29 31                @ /root/Bela/projects/NIEMO/dsp/PitchMap.h:29:31
	mov	r0, #17
.Ltmp791:
	.loc	72 561 2                @ /usr/bin/../lib/gcc/arm-linux-gnueabihf/6.3.0/../../../../include/c++/6.3.0/ostream:561:2
	movt	r5, :upper16:_ZSt4cout
.Ltmp792:
	@DEBUG_VALUE: operator<<:this <- %R5
	@DEBUG_VALUE: operator<<<std::char_traits<char> >:__out <- %R5
	.loc	17 27 35                @ /root/Bela/projects/NIEMO/dsp/PitchMap.h:27:35
	vmul.f32	d1, d1, d0
.Ltmp793:
	.loc	72 561 2                @ /usr/bin/../lib/gcc/arm-linux-gnueabihf/6.3.0/../../../../include/c++/6.3.0/ostream:561:2
	movt	r1, :upper16:.L.str.27
.Ltmp794:
	@DEBUG_VALUE: operator<<<std::char_traits<char> >:__s <- %R1
	mov	r2, #21
.Ltmp795:
	.loc	17 27 27                @ /root/Bela/projects/NIEMO/dsp/PitchMap.h:27:27
	vstr	s2, [r4]
	.loc	17 28 17                @ /root/Bela/projects/NIEMO/dsp/PitchMap.h:28:17
	vldr	s2, [r4, #20]
	.loc	17 28 19 is_stmt 0      @ /root/Bela/projects/NIEMO/dsp/PitchMap.h:28:19
	vmul.f32	d0, d1, d0
	.loc	17 28 15                @ /root/Bela/projects/NIEMO/dsp/PitchMap.h:28:15
	vstr	s0, [r4, #20]
	.loc	17 29 31 is_stmt 1      @ /root/Bela/projects/NIEMO/dsp/PitchMap.h:29:31
	str	r0, [r4, #36]
.Ltmp796:
	.loc	72 561 2                @ /usr/bin/../lib/gcc/arm-linux-gnueabihf/6.3.0/../../../../include/c++/6.3.0/ostream:561:2
	mov	r0, r5
	bl	_ZSt16__ostream_insertIcSt11char_traitsIcEERSt13basic_ostreamIT_T0_ES6_PKS3_i
.Ltmp797:
	.loc	17 30 53                @ /root/Bela/projects/NIEMO/dsp/PitchMap.h:30:53
	vldr	s0, [r4]
.Ltmp798:
	@DEBUG_VALUE: operator<<:__f <- %S0
	.loc	72 228 9                @ /usr/bin/../lib/gcc/arm-linux-gnueabihf/6.3.0/../../../../include/c++/6.3.0/ostream:228:9
	mov	r0, r5
	.loc	72 228 39 is_stmt 0     @ /usr/bin/../lib/gcc/arm-linux-gnueabihf/6.3.0/../../../../include/c++/6.3.0/ostream:228:39
	vcvt.f64.f32	d0, s0
.Ltmp799:
	.loc	72 228 9                @ /usr/bin/../lib/gcc/arm-linux-gnueabihf/6.3.0/../../../../include/c++/6.3.0/ostream:228:9
	bl	_ZNSo9_M_insertIdEERSoT_
.Ltmp800:
	.loc	72 561 2 is_stmt 1      @ /usr/bin/../lib/gcc/arm-linux-gnueabihf/6.3.0/../../../../include/c++/6.3.0/ostream:561:2
	movw	r1, :lower16:.L.str.28
	mov	r2, #15
	movt	r1, :upper16:.L.str.28
.Ltmp801:
	@DEBUG_VALUE: operator<<<std::char_traits<char> >:__s <- %R1
	.loc	72 228 9                @ /usr/bin/../lib/gcc/arm-linux-gnueabihf/6.3.0/../../../../include/c++/6.3.0/ostream:228:9
	mov	r5, r0
.Ltmp802:
	@DEBUG_VALUE: operator<<<std::char_traits<char> >:__out <- %R5
	@DEBUG_VALUE: operator<<:this <- %R5
	.loc	72 561 2                @ /usr/bin/../lib/gcc/arm-linux-gnueabihf/6.3.0/../../../../include/c++/6.3.0/ostream:561:2
	bl	_ZSt16__ostream_insertIcSt11char_traitsIcEERSt13basic_ostreamIT_T0_ES6_PKS3_i
.Ltmp803:
	.loc	17 30 91                @ /root/Bela/projects/NIEMO/dsp/PitchMap.h:30:91
	vldr	s0, [r4, #20]
.Ltmp804:
	@DEBUG_VALUE: operator<<:__f <- %S0
	.loc	72 228 9                @ /usr/bin/../lib/gcc/arm-linux-gnueabihf/6.3.0/../../../../include/c++/6.3.0/ostream:228:9
	mov	r0, r5
	.loc	72 228 39 is_stmt 0     @ /usr/bin/../lib/gcc/arm-linux-gnueabihf/6.3.0/../../../../include/c++/6.3.0/ostream:228:39
	vcvt.f64.f32	d0, s0
.Ltmp805:
	.loc	72 228 9                @ /usr/bin/../lib/gcc/arm-linux-gnueabihf/6.3.0/../../../../include/c++/6.3.0/ostream:228:9
	bl	_ZNSo9_M_insertIdEERSoT_
.Ltmp806:
	@DEBUG_VALUE: operator<<<std::char_traits<char> >:__s <- %R1
	@DEBUG_VALUE: operator<<<std::char_traits<char> >:__out <- %R0
	.loc	72 561 2 is_stmt 1      @ /usr/bin/../lib/gcc/arm-linux-gnueabihf/6.3.0/../../../../include/c++/6.3.0/ostream:561:2
	movw	r1, :lower16:.L.str.29
.Ltmp807:
	mov	r2, #3
	movt	r1, :upper16:.L.str.29
	pop	{r4, r5, r11, lr}
.Ltmp808:
	b	_ZSt16__ostream_insertIcSt11char_traitsIcEERSt13basic_ostreamIT_T0_ES6_PKS3_i
.Ltmp809:
.LBB11_5:
	@DEBUG_VALUE: widen:this <- %R5
	@DEBUG_VALUE: __check_facet<std::ctype<char> >:__f <- %R5
	@DEBUG_VALUE: operator<<:this <- %R4
	@DEBUG_VALUE: endl<char, std::char_traits<char> >:__os <- %R4
	.loc	74 876 8                @ /usr/bin/../lib/gcc/arm-linux-gnueabihf/6.3.0/../../../../include/c++/6.3.0/bits/locale_facets.h:876:8
	mov	r0, r5
	bl	_ZNKSt5ctypeIcE13_M_widen_initEv
	.loc	74 877 15               @ /usr/bin/../lib/gcc/arm-linux-gnueabihf/6.3.0/../../../../include/c++/6.3.0/bits/locale_facets.h:877:15
	ldr	r0, [r5]
	mov	r1, #10
	ldr	r2, [r0, #24]
	mov	r0, r5
	blx	r2
	mov	r1, r0
.Ltmp810:
.LBB11_6:                               @ %_ZNKSt5ctypeIcE5widenEc.exit
	@DEBUG_VALUE: widen:this <- %R5
	@DEBUG_VALUE: __check_facet<std::ctype<char> >:__f <- %R5
	@DEBUG_VALUE: operator<<:this <- %R4
	@DEBUG_VALUE: endl<char, std::char_traits<char> >:__os <- %R4
	.loc	72 591 25 discriminator 1 @ /usr/bin/../lib/gcc/arm-linux-gnueabihf/6.3.0/../../../../include/c++/6.3.0/ostream:591:25
	mov	r0, r4
	bl	_ZNSo3putEc
.Ltmp811:
	@DEBUG_VALUE: flush<char, std::char_traits<char> >:__os <- %R0
	.loc	72 613 19               @ /usr/bin/../lib/gcc/arm-linux-gnueabihf/6.3.0/../../../../include/c++/6.3.0/ostream:613:19
	pop	{r4, r5, r11, lr}
.Ltmp812:
	b	_ZNSo5flushEv
.Ltmp813:
.LBB11_7:
	@DEBUG_VALUE: widen:this <- %R5
	@DEBUG_VALUE: __check_facet<std::ctype<char> >:__f <- %R5
	@DEBUG_VALUE: operator<<:this <- %R4
	@DEBUG_VALUE: endl<char, std::char_traits<char> >:__os <- %R4
	.loc	73 50 2                 @ /usr/bin/../lib/gcc/arm-linux-gnueabihf/6.3.0/../../../../include/c++/6.3.0/bits/basic_ios.h:50:2
	mov	lr, pc
	b	_ZSt16__throw_bad_castv
.Ltmp814:
	.p2align	3
@ BB#8:
.LCPI11_1:
	.long	1073741824              @ double 3.2218993874266744E-4
	.long	1060445555
.LCPI11_0:
	.long	1031798784              @ float 0.0625
.Lfunc_end11:
	.size	_ZN11PitchMapper16setF0EmptyStringEf, .Lfunc_end11-_ZN11PitchMapper16setF0EmptyStringEf
	.cfi_endproc
	.fnend

	.text
	.globl	_Z15updateStringGUIPv
	.p2align	2
	.type	_Z15updateStringGUIPv,%function
_Z15updateStringGUIPv:                  @ @_Z15updateStringGUIPv
.Lfunc_begin12:
	.loc	20 90 0                 @ /root/Bela/projects/NIEMO/render.cpp:90:0
	.fnstart
	.cfi_startproc
@ BB#0:
	.save	{r4, r5, r6, r7, r8, r9, r11, lr}
	push	{r4, r5, r6, r7, r8, r9, r11, lr}
.Ltmp815:
	.cfi_def_cfa_offset 32
.Ltmp816:
	.cfi_offset lr, -4
.Ltmp817:
	.cfi_offset r11, -8
.Ltmp818:
	.cfi_offset r9, -12
.Ltmp819:
	.cfi_offset r8, -16
.Ltmp820:
	.cfi_offset r7, -20
.Ltmp821:
	.cfi_offset r6, -24
.Ltmp822:
	.cfi_offset r5, -28
.Ltmp823:
	.cfi_offset r4, -32
	.setfp	r11, sp, #24
	add	r11, sp, #24
.Ltmp824:
	.cfi_def_cfa r11, 8
	.pad	#16
	sub	sp, sp, #16
	@DEBUG_VALUE: updateStringGUI:arg <- %R0
.Ltmp825:
	.file	75 "/usr/bin/../lib/gcc/arm-linux-gnueabihf/6.3.0/../../../../include/c++/6.3.0" "typeinfo"
	.loc	75 100 14 prologue_end  @ /usr/bin/../lib/gcc/arm-linux-gnueabihf/6.3.0/../../../../include/c++/6.3.0/typeinfo:100:14
	movw	r0, :lower16:_ZTIi
.Ltmp826:
	.loc	21 41 25                @ /root/Bela/projects/NIEMO/dsp/DynamicStiffString.h:41:25
	movw	r7, :lower16:string2
.Ltmp827:
	.loc	75 100 14               @ /usr/bin/../lib/gcc/arm-linux-gnueabihf/6.3.0/../../../../include/c++/6.3.0/typeinfo:100:14
	movt	r0, :upper16:_ZTIi
.Ltmp828:
	.loc	21 41 25                @ /root/Bela/projects/NIEMO/dsp/DynamicStiffString.h:41:25
	movt	r7, :upper16:string2
.Ltmp829:
	.loc	75 100 14               @ /usr/bin/../lib/gcc/arm-linux-gnueabihf/6.3.0/../../../../include/c++/6.3.0/typeinfo:100:14
	ldr	r0, [r0, #4]
	add	r3, sp, #12
.Ltmp830:
	.loc	21 41 25                @ /root/Bela/projects/NIEMO/dsp/DynamicStiffString.h:41:25
	ldr	r1, [r7, #116]
.Ltmp831:
	@DEBUG_VALUE: sendBuffer<int>:bufferId <- 0
	@DEBUG_VALUE: sendBuffer<int>:value <- %R1
	mov	r8, #4
.Ltmp832:
	.loc	20 91 6 discriminator 1 @ /root/Bela/projects/NIEMO/render.cpp:91:6
	str	r1, [sp, #12]
	mov	r4, #0
.Ltmp833:
	.loc	75 100 14               @ /usr/bin/../lib/gcc/arm-linux-gnueabihf/6.3.0/../../../../include/c++/6.3.0/typeinfo:100:14
	mov	r1, r0
.Ltmp834:
	ldrb	r2, [r1], #1
.Ltmp835:
	.loc	36 175 9                @ ./libraries/Gui/Gui.h:175:9
	str	r8, [sp]
.Ltmp836:
	.loc	75 100 14               @ /usr/bin/../lib/gcc/arm-linux-gnueabihf/6.3.0/../../../../include/c++/6.3.0/typeinfo:100:14
	cmp	r2, #42
.Ltmp837:
	.loc	36 175 9                @ ./libraries/Gui/Gui.h:175:9
	mov	r2, #0
.Ltmp838:
	.loc	75 100 14               @ /usr/bin/../lib/gcc/arm-linux-gnueabihf/6.3.0/../../../../include/c++/6.3.0/typeinfo:100:14
	movne	r1, r0
.Ltmp839:
	@DEBUG_VALUE: sendBuffer<int>:type <- %R1
	.loc	36 175 9                @ ./libraries/Gui/Gui.h:175:9
	movw	r0, :lower16:gui
	movt	r0, :upper16:gui
.Ltmp840:
	@DEBUG_VALUE: sendBuffer<int>:this <- %R0
	bl	_ZN3Gui12doSendBufferEPKcjPKvj
.Ltmp841:
	.loc	21 41 25                @ /root/Bela/projects/NIEMO/dsp/DynamicStiffString.h:41:25
	ldr	r0, [r7, #116]
.Ltmp842:
	.loc	20 92 2 discriminator 1 @ /root/Bela/projects/NIEMO/render.cpp:92:2
	cmp	r0, #1
.Ltmp843:
	@DEBUG_VALUE: getN:this <- %R7
	@DEBUG_VALUE: getN:this <- %R7
	@DEBUG_VALUE: i <- 0
	blt	.LBB12_3
.Ltmp844:
@ BB#1:                                 @ %.lr.ph
	@DEBUG_VALUE: getN:this <- %R7
	@DEBUG_VALUE: getN:this <- %R7
	.loc	75 100 14               @ /usr/bin/../lib/gcc/arm-linux-gnueabihf/6.3.0/../../../../include/c++/6.3.0/typeinfo:100:14
	movw	r0, :lower16:_ZTIf
.Ltmp845:
	.loc	36 175 9                @ ./libraries/Gui/Gui.h:175:9
	movw	r9, :lower16:gui
.Ltmp846:
	.loc	75 100 14               @ /usr/bin/../lib/gcc/arm-linux-gnueabihf/6.3.0/../../../../include/c++/6.3.0/typeinfo:100:14
	movt	r0, :upper16:_ZTIf
	add	r6, sp, #8
	ldr	r5, [r0, #4]
.Ltmp847:
	.loc	36 175 9                @ ./libraries/Gui/Gui.h:175:9
	movt	r9, :upper16:gui
.Ltmp848:
.LBB12_2:                               @ =>This Inner Loop Header: Depth=1
	@DEBUG_VALUE: getN:this <- %R7
	@DEBUG_VALUE: getState:loc <- %R4
	@DEBUG_VALUE: getState:timeIdx <- 0
	@DEBUG_VALUE: operator[]:__n <- 0
	.loc	13 781 32               @ /usr/bin/../lib/gcc/arm-linux-gnueabihf/6.3.0/../../../../include/c++/6.3.0/bits/stl_vector.h:781:32
	ldr	r0, [r7, #196]
.Ltmp849:
	.loc	75 100 14               @ /usr/bin/../lib/gcc/arm-linux-gnueabihf/6.3.0/../../../../include/c++/6.3.0/typeinfo:100:14
	mov	r1, r5
.Ltmp850:
	.loc	36 175 9                @ ./libraries/Gui/Gui.h:175:9
	mov	r3, r6
.Ltmp851:
	.loc	21 44 51                @ /root/Bela/projects/NIEMO/dsp/DynamicStiffString.h:44:51
	ldr	r0, [r0]
	ldr	r0, [r0, r4, lsl #2]
.Ltmp852:
	.loc	20 93 20                @ /root/Bela/projects/NIEMO/render.cpp:93:20
	add	r4, r4, #1
.Ltmp853:
	@DEBUG_VALUE: sendBuffer<float>:this <- %R9
	@DEBUG_VALUE: sendBuffer<float>:bufferId <- %R4
	@DEBUG_VALUE: i <- %R4
	.loc	20 93 7 is_stmt 0 discriminator 1 @ /root/Bela/projects/NIEMO/render.cpp:93:7
	str	r0, [sp, #8]
.Ltmp854:
	.loc	75 100 14 is_stmt 1     @ /usr/bin/../lib/gcc/arm-linux-gnueabihf/6.3.0/../../../../include/c++/6.3.0/typeinfo:100:14
	ldrb	r0, [r5]
.Ltmp855:
	.loc	36 175 9                @ ./libraries/Gui/Gui.h:175:9
	mov	r2, r4
	str	r8, [sp]
.Ltmp856:
	.loc	75 100 14               @ /usr/bin/../lib/gcc/arm-linux-gnueabihf/6.3.0/../../../../include/c++/6.3.0/typeinfo:100:14
	cmp	r0, #42
.Ltmp857:
	.loc	36 175 9                @ ./libraries/Gui/Gui.h:175:9
	mov	r0, r9
.Ltmp858:
	.loc	75 100 14               @ /usr/bin/../lib/gcc/arm-linux-gnueabihf/6.3.0/../../../../include/c++/6.3.0/typeinfo:100:14
	addeq	r1, r1, #1
.Ltmp859:
	@DEBUG_VALUE: sendBuffer<float>:type <- %R1
	.loc	36 175 9                @ ./libraries/Gui/Gui.h:175:9
	bl	_ZN3Gui12doSendBufferEPKcjPKvj
.Ltmp860:
	.loc	21 41 25                @ /root/Bela/projects/NIEMO/dsp/DynamicStiffString.h:41:25
	ldr	r0, [r7, #116]
.Ltmp861:
	.loc	20 92 2 discriminator 1 @ /root/Bela/projects/NIEMO/render.cpp:92:2
	cmp	r4, r0
.Ltmp862:
	@DEBUG_VALUE: getState:this <- %R7
	@DEBUG_VALUE: getN:this <- %R7
	blt	.LBB12_2
.Ltmp863:
.LBB12_3:                               @ %._crit_edge
	@DEBUG_VALUE: getN:this <- %R7
	.loc	20 95 1                 @ /root/Bela/projects/NIEMO/render.cpp:95:1
	sub	sp, r11, #24
	pop	{r4, r5, r6, r7, r8, r9, r11, pc}
.Ltmp864:
.Lfunc_end12:
	.size	_Z15updateStringGUIPv, .Lfunc_end12-_Z15updateStringGUIPv
	.cfi_endproc
	.fnend

	.globl	_Z7dbg_logPv
	.p2align	2
	.type	_Z7dbg_logPv,%function
_Z7dbg_logPv:                           @ @_Z7dbg_logPv
.Lfunc_begin13:
	.loc	20 98 0                 @ /root/Bela/projects/NIEMO/render.cpp:98:0
	.fnstart
	.cfi_startproc
@ BB#0:
	.save	{r4, r10, r11, lr}
	push	{r4, r10, r11, lr}
.Ltmp865:
	.cfi_def_cfa_offset 16
.Ltmp866:
	.cfi_offset lr, -4
.Ltmp867:
	.cfi_offset r11, -8
.Ltmp868:
	.cfi_offset r10, -12
.Ltmp869:
	.cfi_offset r4, -16
	.setfp	r11, sp, #8
	add	r11, sp, #8
.Ltmp870:
	.cfi_def_cfa r11, 8
	@DEBUG_VALUE: dbg_log:arg <- %R0
.Ltmp871:
	.loc	72 561 2 prologue_end   @ /usr/bin/../lib/gcc/arm-linux-gnueabihf/6.3.0/../../../../include/c++/6.3.0/ostream:561:2
	movw	r4, :lower16:_ZSt4cout
	movw	r1, :lower16:.L.str.19
	movt	r4, :upper16:_ZSt4cout
.Ltmp872:
	@DEBUG_VALUE: operator<<<std::char_traits<char> >:__out <- %R4
	@DEBUG_VALUE: operator<<<std::char_traits<char> >:__out <- %R4
	movt	r1, :upper16:.L.str.19
.Ltmp873:
	@DEBUG_VALUE: operator<<<std::char_traits<char> >:__s <- %R1
	mov	r0, r4
.Ltmp874:
	mov	r2, #3
	bl	_ZSt16__ostream_insertIcSt11char_traitsIcEERSt13basic_ostreamIT_T0_ES6_PKS3_i
.Ltmp875:
	@DEBUG_VALUE: operator<<<std::char_traits<char> >:__s <- %R1
	.loc	72 561 2 is_stmt 0      @ /usr/bin/../lib/gcc/arm-linux-gnueabihf/6.3.0/../../../../include/c++/6.3.0/ostream:561:2
	movw	r1, :lower16:.L.str.20
.Ltmp876:
	mov	r0, r4
	movt	r1, :upper16:.L.str.20
	mov	r2, #1
	pop	{r4, r10, r11, lr}
.Ltmp877:
	b	_ZSt16__ostream_insertIcSt11char_traitsIcEERSt13basic_ostreamIT_T0_ES6_PKS3_i
.Ltmp878:
.Lfunc_end13:
	.size	_Z7dbg_logPv, .Lfunc_end13-_Z7dbg_logPv
	.cfi_endproc
	.fnend

	.globl	setup
	.p2align	3
	.type	setup,%function
setup:                                  @ @setup
.Lfunc_begin14:
	.loc	20 105 0 is_stmt 1      @ /root/Bela/projects/NIEMO/render.cpp:105:0
	.fnstart
	.cfi_startproc
@ BB#0:
	.save	{r4, r5, r6, r7, r8, r9, r11, lr}
	push	{r4, r5, r6, r7, r8, r9, r11, lr}
.Ltmp885:
	.cfi_def_cfa_offset 32
.Ltmp886:
	.cfi_offset lr, -4
.Ltmp887:
	.cfi_offset r11, -8
.Ltmp888:
	.cfi_offset r9, -12
.Ltmp889:
	.cfi_offset r8, -16
.Ltmp890:
	.cfi_offset r7, -20
.Ltmp891:
	.cfi_offset r6, -24
.Ltmp892:
	.cfi_offset r5, -28
.Ltmp893:
	.cfi_offset r4, -32
	.setfp	r11, sp, #24
	add	r11, sp, #24
.Ltmp894:
	.cfi_def_cfa r11, 8
	.vsave	{d8, d9, d10, d11}
	vpush	{d8, d9, d10, d11}
.Ltmp895:
	.cfi_offset d11, -40
.Ltmp896:
	.cfi_offset d10, -48
.Ltmp897:
	.cfi_offset d9, -56
.Ltmp898:
	.cfi_offset d8, -64
	.pad	#56
	sub	sp, sp, #56
	@DEBUG_VALUE: setup:context <- %R0
	@DEBUG_VALUE: setup:userData <- %R1
.Ltmp899:
	.loc	20 114 13 prologue_end  @ /root/Bela/projects/NIEMO/render.cpp:114:13
	vldr	s16, .LCPI14_16
	mov	r4, r0
.Ltmp900:
	@DEBUG_VALUE: setup:context <- %R4
	vldr	s18, .LCPI14_17
	movw	r0, :lower16:string1
	vldr	s20, .LCPI14_18
	vmov.f32	s2, s16
	vldr	s22, .LCPI14_19
.Ltmp901:
	@DEBUG_VALUE: setup:sigma1 <- 5.000000e-03
	@DEBUG_VALUE: setup:sigma0 <- 1.000000e-01
	@DEBUG_VALUE: setup:E <- 2.000000e+12
	@DEBUG_VALUE: setup:T <- 1.000000e+02
	@DEBUG_VALUE: setup:rho <- 7.850000e+03
	@DEBUG_VALUE: setup:L <- 8.000000e-01
	@DEBUG_VALUE: setup:r <- 1.200000e-04
	vmov.f32	s3, s18
	vmov.f32	s6, s20
	vldr	s1, .LCPI14_20
	vmov.f32	s7, s22
	vldr	s4, .LCPI14_21
	vldr	s5, .LCPI14_22
	movt	r0, :upper16:string1
	.loc	20 114 36 is_stmt 0     @ /root/Bela/projects/NIEMO/render.cpp:114:36
	vldr	s0, [r4, #32]
	.loc	20 114 13               @ /root/Bela/projects/NIEMO/render.cpp:114:13
	bl	_ZN18DynamicStiffString13prepareToPlayEffffffff
.Ltmp902:
	.loc	20 124 13 is_stmt 1     @ /root/Bela/projects/NIEMO/render.cpp:124:13
	vmov.f32	s2, s16
	movw	r0, :lower16:string2
	vmov.f32	s3, s18
	vldr	s1, .LCPI14_23
	vmov.f32	s6, s20
	vldr	s4, .LCPI14_24
	vmov.f32	s7, s22
	vldr	s5, .LCPI14_25
.Ltmp903:
	@DEBUG_VALUE: setup:E <- 2.000000e+18
	@DEBUG_VALUE: setup:T <- 8.000000e+01
	@DEBUG_VALUE: setup:L <- 1.400000e+00
	.loc	20 124 36 is_stmt 0     @ /root/Bela/projects/NIEMO/render.cpp:124:36
	vldr	s0, [r4, #32]
	.loc	20 124 13               @ /root/Bela/projects/NIEMO/render.cpp:124:13
	movt	r0, :upper16:string2
	bl	_ZN18DynamicStiffString13prepareToPlayEffffffff
	.loc	20 126 45 is_stmt 1     @ /root/Bela/projects/NIEMO/render.cpp:126:45
	vldr	s16, [r4, #32]
.Ltmp904:
	.loc	24 12 23                @ /root/Bela/projects/NIEMO/dsp/StringConnection.h:12:23
	movw	r6, :lower16:.L_MergedGlobals.6
	movt	r6, :upper16:.L_MergedGlobals.6
	.loc	24 13 31                @ /root/Bela/projects/NIEMO/dsp/StringConnection.h:13:31
	vldr	d10, .LCPI14_26
.Ltmp905:
	.loc	20 126 36               @ /root/Bela/projects/NIEMO/render.cpp:126:36
	vcvt.f64.f32	d9, s16
.Ltmp906:
	@DEBUG_VALUE: prepareToPlay:sampleRate <- %D9
	@DEBUG_VALUE: prepareToPlay:sampleRate <- %D9
	@DEBUG_VALUE: prepareToPlay:sampleRate <- %D9
	.loc	24 12 23                @ /root/Bela/projects/NIEMO/dsp/StringConnection.h:12:23
	vstr	d9, [r6, #48]
	.loc	24 13 33                @ /root/Bela/projects/NIEMO/dsp/StringConnection.h:13:33
	ldr	r0, [r6, #40]
.Ltmp907:
	@DEBUG_VALUE: getN:this <- %R0
	vldr	s0, [r0, #116]
	vcvt.f64.s32	d16, s0
	.loc	24 13 31 is_stmt 0      @ /root/Bela/projects/NIEMO/dsp/StringConnection.h:13:31
	vmul.f64	d0, d16, d10
	.loc	24 13 19 discriminator 1 @ /root/Bela/projects/NIEMO/dsp/StringConnection.h:13:19
	bl	floor
.Ltmp908:
	.loc	24 13 17                @ /root/Bela/projects/NIEMO/dsp/StringConnection.h:13:17
	vcvt.s32.f64	s0, d0
	vstr	s0, [r6, #56]
	.loc	24 14 32 is_stmt 1      @ /root/Bela/projects/NIEMO/dsp/StringConnection.h:14:32
	ldr	r0, [r6, #44]
.Ltmp909:
	@DEBUG_VALUE: getN:this <- %R0
	.loc	24 14 30 is_stmt 0      @ /root/Bela/projects/NIEMO/dsp/StringConnection.h:14:30
	vldr	d11, .LCPI14_27
	.loc	24 14 32                @ /root/Bela/projects/NIEMO/dsp/StringConnection.h:14:32
	vldr	s0, [r0, #116]
	vcvt.f64.s32	d16, s0
	.loc	24 14 30                @ /root/Bela/projects/NIEMO/dsp/StringConnection.h:14:30
	vmul.f64	d0, d16, d11
	.loc	24 14 19 discriminator 1 @ /root/Bela/projects/NIEMO/dsp/StringConnection.h:14:19
	bl	floor
.Ltmp910:
	.loc	24 14 17                @ /root/Bela/projects/NIEMO/dsp/StringConnection.h:14:17
	vcvt.s32.f64	s0, d0
.Ltmp911:
	.loc	24 42 49 is_stmt 1      @ /root/Bela/projects/NIEMO/dsp/StringConnection.h:42:49
	mov	r5, #1065353216
.Ltmp912:
	@DEBUG_VALUE: setForce2:force2 <- 1.000000e+00
	@DEBUG_VALUE: setForce1:force1 <- 1.000000e+00
	.loc	24 14 17                @ /root/Bela/projects/NIEMO/dsp/StringConnection.h:14:17
	vstr	s0, [r6, #60]
.Ltmp913:
	.loc	24 42 49                @ /root/Bela/projects/NIEMO/dsp/StringConnection.h:42:49
	str	r5, [r6, #72]
.Ltmp914:
	.loc	24 43 49                @ /root/Bela/projects/NIEMO/dsp/StringConnection.h:43:49
	str	r5, [r6, #76]
.Ltmp915:
	.loc	24 12 23                @ /root/Bela/projects/NIEMO/dsp/StringConnection.h:12:23
	movw	r6, :lower16:.L_MergedGlobals.7
	movt	r6, :upper16:.L_MergedGlobals.7
	vstr	d9, [r6, #56]
	.loc	24 13 33                @ /root/Bela/projects/NIEMO/dsp/StringConnection.h:13:33
	ldr	r0, [r6, #48]
.Ltmp916:
	@DEBUG_VALUE: getN:this <- %R0
	vldr	s0, [r0, #116]
	vcvt.f64.s32	d16, s0
	.loc	24 13 31 is_stmt 0      @ /root/Bela/projects/NIEMO/dsp/StringConnection.h:13:31
	vmul.f64	d0, d16, d10
	.loc	24 13 19 discriminator 1 @ /root/Bela/projects/NIEMO/dsp/StringConnection.h:13:19
	bl	floor
.Ltmp917:
	.loc	24 13 17                @ /root/Bela/projects/NIEMO/dsp/StringConnection.h:13:17
	vcvt.s32.f64	s0, d0
	vstr	s0, [r6, #64]
	.loc	24 14 32 is_stmt 1      @ /root/Bela/projects/NIEMO/dsp/StringConnection.h:14:32
	ldr	r0, [r6, #52]
.Ltmp918:
	@DEBUG_VALUE: getN:this <- %R0
	vldr	s0, [r0, #116]
	vcvt.f64.s32	d16, s0
	.loc	24 14 30 is_stmt 0      @ /root/Bela/projects/NIEMO/dsp/StringConnection.h:14:30
	vmul.f64	d0, d16, d11
	.loc	24 14 19 discriminator 1 @ /root/Bela/projects/NIEMO/dsp/StringConnection.h:14:19
	bl	floor
.Ltmp919:
	.loc	24 14 17                @ /root/Bela/projects/NIEMO/dsp/StringConnection.h:14:17
	vcvt.s32.f64	s0, d0
	vstr	s0, [r6, #68]
.Ltmp920:
	@DEBUG_VALUE: setForce2:force2 <- 1.000000e+00
	@DEBUG_VALUE: setForce1:force1 <- 1.000000e+00
	.loc	24 42 49 is_stmt 1      @ /root/Bela/projects/NIEMO/dsp/StringConnection.h:42:49
	str	r5, [r6, #80]
.Ltmp921:
	.loc	24 43 49                @ /root/Bela/projects/NIEMO/dsp/StringConnection.h:43:49
	str	r5, [r6, #84]
.Ltmp922:
	.loc	24 12 23                @ /root/Bela/projects/NIEMO/dsp/StringConnection.h:12:23
	vstr	d9, [r6, #8]
	.loc	24 13 33                @ /root/Bela/projects/NIEMO/dsp/StringConnection.h:13:33
	ldr	r0, [r6]
.Ltmp923:
	@DEBUG_VALUE: getN:this <- %R0
	vldr	s0, [r0, #116]
	vcvt.f64.s32	d16, s0
	.loc	24 13 31 is_stmt 0      @ /root/Bela/projects/NIEMO/dsp/StringConnection.h:13:31
	vmul.f64	d0, d16, d10
	.loc	24 13 19 discriminator 1 @ /root/Bela/projects/NIEMO/dsp/StringConnection.h:13:19
	bl	floor
.Ltmp924:
	.loc	24 13 17                @ /root/Bela/projects/NIEMO/dsp/StringConnection.h:13:17
	vcvt.s32.f64	s0, d0
	vstr	s0, [r6, #16]
	.loc	24 14 32 is_stmt 1      @ /root/Bela/projects/NIEMO/dsp/StringConnection.h:14:32
	ldr	r0, [r6, #4]
.Ltmp925:
	@DEBUG_VALUE: getN:this <- %R0
	vldr	s0, [r0, #116]
	vcvt.f64.s32	d16, s0
	.loc	24 14 30 is_stmt 0      @ /root/Bela/projects/NIEMO/dsp/StringConnection.h:14:30
	vmul.f64	d0, d16, d11
	.loc	24 14 19 discriminator 1 @ /root/Bela/projects/NIEMO/dsp/StringConnection.h:14:19
	bl	floor
.Ltmp926:
	.loc	24 14 17                @ /root/Bela/projects/NIEMO/dsp/StringConnection.h:14:17
	vcvt.s32.f64	s0, d0
.Ltmp927:
	.loc	20 136 9 is_stmt 1      @ /root/Bela/projects/NIEMO/render.cpp:136:9
	movw	r0, :lower16:yin
	movt	r0, :upper16:yin
	mov	r1, #512
.Ltmp928:
	.loc	24 14 17                @ /root/Bela/projects/NIEMO/dsp/StringConnection.h:14:17
	vstr	s0, [r6, #20]
.Ltmp929:
	@DEBUG_VALUE: setForce2:force2 <- 1.000000e+00
	@DEBUG_VALUE: setForce1:force1 <- 1.000000e+00
	.loc	20 136 9                @ /root/Bela/projects/NIEMO/render.cpp:136:9
	vmov.f32	s0, s16
.Ltmp930:
	.loc	24 42 49                @ /root/Bela/projects/NIEMO/dsp/StringConnection.h:42:49
	str	r5, [r6, #32]
.Ltmp931:
	.loc	24 43 49                @ /root/Bela/projects/NIEMO/dsp/StringConnection.h:43:49
	str	r5, [r6, #36]
.Ltmp932:
	.loc	20 136 9                @ /root/Bela/projects/NIEMO/render.cpp:136:9
	bl	_ZN3Yin10initializeEfi
	.loc	20 137 11               @ /root/Bela/projects/NIEMO/render.cpp:137:11
	movw	r0, :lower16:_Z12getPitchTaskPv
	movw	r2, :lower16:.L.str.21
	movt	r0, :upper16:_Z12getPitchTaskPv
	movt	r2, :upper16:.L.str.21
	mov	r1, #95
	mov	r3, #0
	mov	r5, #0
	bl	Bela_createAuxiliaryTask
	.loc	20 137 9 is_stmt 0      @ /root/Bela/projects/NIEMO/render.cpp:137:9
	movw	r8, :lower16:.L_MergedGlobals
	.loc	20 138 12 is_stmt 1     @ /root/Bela/projects/NIEMO/render.cpp:138:12
	movw	r2, :lower16:.L.str.22
	.loc	20 137 9                @ /root/Bela/projects/NIEMO/render.cpp:137:9
	movt	r8, :upper16:.L_MergedGlobals
	.loc	20 138 12               @ /root/Bela/projects/NIEMO/render.cpp:138:12
	movt	r2, :upper16:.L.str.22
	.loc	20 137 9                @ /root/Bela/projects/NIEMO/render.cpp:137:9
	str	r0, [r8, #104]
	.loc	20 138 12               @ /root/Bela/projects/NIEMO/render.cpp:138:12
	movw	r0, :lower16:_Z7dbg_logPv
	movt	r0, :upper16:_Z7dbg_logPv
	mov	r1, #30
	mov	r3, #0
	bl	Bela_createAuxiliaryTask
	.loc	20 139 24               @ /root/Bela/projects/NIEMO/render.cpp:139:24
	movw	r2, :lower16:.L.str.23
	.loc	20 138 10               @ /root/Bela/projects/NIEMO/render.cpp:138:10
	str	r0, [r8, #116]
	.loc	20 139 24               @ /root/Bela/projects/NIEMO/render.cpp:139:24
	movw	r0, :lower16:_Z15updateStringGUIPv
	movt	r2, :upper16:.L.str.23
	movt	r0, :upper16:_Z15updateStringGUIPv
	mov	r1, #30
	mov	r3, #0
	bl	Bela_createAuxiliaryTask
	.loc	20 139 22 is_stmt 0     @ /root/Bela/projects/NIEMO/render.cpp:139:22
	str	r0, [r8, #120]
.Ltmp933:
	.loc	35 55 8 is_stmt 1       @ ./libraries/Biquad/Biquad.h:55:8
	movw	r0, :lower16:.L_MergedGlobals.8
.Ltmp934:
	.loc	20 140 28               @ /root/Bela/projects/NIEMO/render.cpp:140:28
	vldr	s0, [r4, #32]
.Ltmp935:
	.loc	35 58 5                 @ ./libraries/Biquad/Biquad.h:58:5
	movw	r7, #0
	.loc	35 57 24                @ ./libraries/Biquad/Biquad.h:57:24
	vldr	d17, .LCPI14_12
	.loc	35 59 12                @ ./libraries/Biquad/Biquad.h:59:12
	movw	r9, #0
.Ltmp936:
	.loc	20 140 19               @ /root/Bela/projects/NIEMO/render.cpp:140:19
	vcvt.f64.f32	d16, s0
.Ltmp937:
	.loc	35 55 8                 @ ./libraries/Biquad/Biquad.h:55:8
	movt	r0, :upper16:.L_MergedGlobals.8
	.loc	35 58 5                 @ ./libraries/Biquad/Biquad.h:58:5
	movt	r7, #16404
	.loc	35 59 12                @ ./libraries/Biquad/Biquad.h:59:12
	movt	r9, #49136
	.loc	35 55 8                 @ ./libraries/Biquad/Biquad.h:55:8
	str	r5, [r0, #72]
	.loc	35 57 24                @ ./libraries/Biquad/Biquad.h:57:24
	vdiv.f64	d17, d17, d16
	.loc	35 56 6                 @ ./libraries/Biquad/Biquad.h:56:6
	vstr	d16, [r0, #64]
	.loc	35 57 6                 @ ./libraries/Biquad/Biquad.h:57:6
	vstr	d17, [r0, #40]
	.loc	35 58 5                 @ ./libraries/Biquad/Biquad.h:58:5
	str	r7, [r0, #52]
	str	r5, [r0, #48]
	.loc	35 59 12                @ ./libraries/Biquad/Biquad.h:59:12
	str	r9, [r0, #60]
	str	r5, [r0, #56]
	.loc	35 60 3                 @ ./libraries/Biquad/Biquad.h:60:3
	bl	_ZN12BiquadCoeffTIdE4calcEv
.Ltmp938:
	.loc	20 141 28               @ /root/Bela/projects/NIEMO/render.cpp:141:28
	vldr	s0, [r4, #32]
.Ltmp939:
	.loc	35 55 8                 @ ./libraries/Biquad/Biquad.h:55:8
	movw	r0, :lower16:.L_MergedGlobals.9
	.loc	35 57 24                @ ./libraries/Biquad/Biquad.h:57:24
	vldr	d17, .LCPI14_13
	.loc	35 55 8                 @ ./libraries/Biquad/Biquad.h:55:8
	movt	r0, :upper16:.L_MergedGlobals.9
.Ltmp940:
	.loc	20 141 19               @ /root/Bela/projects/NIEMO/render.cpp:141:19
	vcvt.f64.f32	d16, s0
.Ltmp941:
	.loc	35 55 8                 @ ./libraries/Biquad/Biquad.h:55:8
	mov	r6, #1
	str	r6, [r0, #72]
	.loc	35 57 24                @ ./libraries/Biquad/Biquad.h:57:24
	vdiv.f64	d17, d17, d16
	.loc	35 56 6                 @ ./libraries/Biquad/Biquad.h:56:6
	vstr	d16, [r0, #64]
	.loc	35 57 6                 @ ./libraries/Biquad/Biquad.h:57:6
	vstr	d17, [r0, #40]
	.loc	35 58 5                 @ ./libraries/Biquad/Biquad.h:58:5
	str	r7, [r0, #52]
	str	r5, [r0, #48]
	.loc	35 59 12                @ ./libraries/Biquad/Biquad.h:59:12
	str	r9, [r0, #60]
	str	r5, [r0, #56]
	.loc	35 60 3                 @ ./libraries/Biquad/Biquad.h:60:3
	bl	_ZN12BiquadCoeffTIdE4calcEv
.Ltmp942:
	.loc	20 142 27               @ /root/Bela/projects/NIEMO/render.cpp:142:27
	vldr	s0, [r4, #32]
.Ltmp943:
	.loc	35 55 8                 @ ./libraries/Biquad/Biquad.h:55:8
	movw	r0, :lower16:.L_MergedGlobals.10
	.loc	35 57 24                @ ./libraries/Biquad/Biquad.h:57:24
	vldr	d17, .LCPI14_14
	.loc	35 58 5                 @ ./libraries/Biquad/Biquad.h:58:5
	movw	r1, #0
.Ltmp944:
	.loc	20 142 18               @ /root/Bela/projects/NIEMO/render.cpp:142:18
	vcvt.f64.f32	d16, s0
.Ltmp945:
	.loc	35 55 8                 @ ./libraries/Biquad/Biquad.h:55:8
	movt	r0, :upper16:.L_MergedGlobals.10
	.loc	35 58 5                 @ ./libraries/Biquad/Biquad.h:58:5
	movt	r1, #16368
	add	r2, r0, #52
	.loc	35 55 8                 @ ./libraries/Biquad/Biquad.h:55:8
	str	r6, [r0, #72]
	.loc	35 57 24                @ ./libraries/Biquad/Biquad.h:57:24
	vdiv.f64	d17, d17, d16
	.loc	35 56 6                 @ ./libraries/Biquad/Biquad.h:56:6
	vstr	d16, [r0, #64]
	.loc	35 57 6                 @ ./libraries/Biquad/Biquad.h:57:6
	vstr	d17, [r0, #40]
	.loc	35 58 5                 @ ./libraries/Biquad/Biquad.h:58:5
	str	r5, [r0, #48]
	stm	r2, {r1, r5, r9}
