	.text
	.syntax unified
	.eabi_attribute	67, "2.09"	@ Tag_conformance
	.cpu	cortex-a8
	.eabi_attribute	6, 10	@ Tag_CPU_arch
	.eabi_attribute	7, 65	@ Tag_CPU_arch_profile
	.eabi_attribute	8, 1	@ Tag_ARM_ISA_use
	.eabi_attribute	9, 2	@ Tag_THUMB_ISA_use
	.fpu	neon
	.eabi_attribute	17, 1	@ Tag_ABI_PCS_GOT_use
	.eabi_attribute	20, 2	@ Tag_ABI_FP_denormal
	.eabi_attribute	23, 1	@ Tag_ABI_FP_number_model
	.eabi_attribute	34, 1	@ Tag_CPU_unaligned_access
	.eabi_attribute	24, 1	@ Tag_ABI_align_needed
	.eabi_attribute	25, 1	@ Tag_ABI_align_preserved
	.eabi_attribute	28, 1	@ Tag_ABI_VFP_args
	.eabi_attribute	38, 1	@ Tag_ABI_FP_16bit_format
	.eabi_attribute	18, 4	@ Tag_ABI_PCS_wchar_t
	.eabi_attribute	26, 2	@ Tag_ABI_enum_size
	.eabi_attribute	14, 0	@ Tag_ABI_PCS_R9_use
	.eabi_attribute	68, 1	@ Tag_Virtualization_use
	.file	"/root/Bela/projects/NIEMO/build/dsp/DynamicStiffString.bc"
	.file	1 "/usr/bin/../lib/gcc/arm-linux-gnueabihf/6.3.0/../../../../include/arm-linux-gnueabihf/c++/6.3.0/bits" "c++config.h"
	.file	2 "/usr/bin/../lib/gcc/arm-linux-gnueabihf/6.3.0/../../../../include/arm-linux-gnueabihf/c++/6.3.0/bits" "atomic_word.h"
	.file	3 "/usr/bin/../lib/gcc/arm-linux-gnueabihf/6.3.0/../../../../include/c++/6.3.0/bits" "ios_base.h"
	.file	4 "/usr/bin/../lib/gcc/arm-linux-gnueabihf/6.3.0/../../../../include/c++/6.3.0" "iostream"
	.file	5 "/usr/bin/../lib/gcc/arm-linux-gnueabihf/6.3.0/../../../../include/c++/6.3.0/bits" "cpp_type_traits.h"
	.file	6 "/usr/bin/../lib/gcc/arm-linux-gnueabihf/6.3.0/../../../../include/c++/6.3.0/bits" "stl_bvector.h"
	.file	7 "/usr/bin/../lib/gcc/arm-linux-gnueabihf/6.3.0/../../../../include/c++/6.3.0/bits" "alloc_traits.h"
	.file	8 "/usr/bin/../lib/gcc/arm-linux-gnueabihf/6.3.0/../../../../include/c++/6.3.0/ext" "new_allocator.h"
	.file	9 "/usr/bin/../lib/gcc/arm-linux-gnueabihf/6.3.0/../../../../include/arm-linux-gnueabihf/c++/6.3.0/bits" "c++allocator.h"
	.file	10 "/usr/bin/../lib/gcc/arm-linux-gnueabihf/6.3.0/../../../../include/c++/6.3.0/bits" "allocator.h"
	.file	11 "/usr/bin/../lib/gcc/arm-linux-gnueabihf/6.3.0/../../../../include/c++/6.3.0/ext" "alloc_traits.h"
	.file	12 "/usr/bin/../lib/gcc/arm-linux-gnueabihf/6.3.0/../../../../include/c++/6.3.0/bits" "stl_vector.h"
	.file	13 "/usr/bin/../lib/gcc/arm-linux-gnueabihf/6.3.0/../../../../include/c++/6.3.0/bits" "stl_iterator.h"
	.file	14 "/usr/bin/../lib/gcc/arm-linux-gnueabihf/6.3.0/../../../../include/c++/6.3.0/bits" "stl_iterator_base_types.h"
	.file	15 "/usr/bin/../lib/gcc/arm-linux-gnueabihf/6.3.0/../../../../include/c++/6.3.0" "type_traits"
	.file	16 "/root/Bela/projects/NIEMO/dsp" "DynamicStiffString.h"
	.file	17 "/usr/bin/../lib/gcc/arm-linux-gnueabihf/6.3.0/../../../../include/c++/6.3.0" "initializer_list"
	.file	18 "/usr/bin/../lib/gcc/arm-linux-gnueabihf/6.3.0/../../../../include/c++/6.3.0/ext" "numeric_traits.h"
	.file	19 "/usr/bin/../lib/gcc/arm-linux-gnueabihf/6.3.0/../../../../include/c++/6.3.0/debug" "debug.h"
	.file	20 "/usr/bin/../lib/gcc/arm-linux-gnueabihf/6.3.0/../../../../include/c++/6.3.0/bits" "exception_ptr.h"
	.file	21 "/usr/include" "wchar.h"
	.file	22 "/usr/lib/llvm-3.9/bin/../lib/clang/3.9.1/include" "stddef.h"
	.file	23 "/usr/include" "libio.h"
	.file	24 "/usr/include/arm-linux-gnueabihf/bits" "types.h"
	.file	25 "/usr/include" "stdio.h"
	.file	26 "/usr/lib/llvm-3.9/bin/../lib/clang/3.9.1/include" "stdarg.h"
	.file	27 "/usr/include" "stdint.h"
	.file	28 "/usr/include" "locale.h"
	.file	29 "/usr/include" "ctype.h"
	.file	30 "/usr/include" "stdlib.h"
	.file	31 "/usr/include/arm-linux-gnueabihf/bits" "stdlib-float.h"
	.file	32 "/usr/include/arm-linux-gnueabihf/bits" "stdlib-bsearch.h"
	.file	33 "/usr/bin/../lib/gcc/arm-linux-gnueabihf/6.3.0/../../../../include/c++/6.3.0" "cstdlib"
	.file	34 "/usr/include" "_G_config.h"
	.file	35 "/usr/include/arm-linux-gnueabihf/bits" "stdio.h"
	.file	36 "/usr/include/arm-linux-gnueabihf/bits" "math-finite.h"
	.file	37 "/usr/include/arm-linux-gnueabihf/bits" "mathcalls.h"
	.file	38 "/usr/include/arm-linux-gnueabihf/bits" "mathdef.h"
	.file	39 "/usr/include" "wctype.h"
	.globl	_ZN18DynamicStiffString13prepareToPlayEffffffff
	.p2align	3
	.type	_ZN18DynamicStiffString13prepareToPlayEffffffff,%function
_ZN18DynamicStiffString13prepareToPlayEffffffff: @ @_ZN18DynamicStiffString13prepareToPlayEffffffff
.Lfunc_begin0:
	.file	40 "/root/Bela/projects/NIEMO/dsp" "DynamicStiffString.cpp"
	.loc	40 20 0                 @ /root/Bela/projects/NIEMO/dsp/DynamicStiffString.cpp:20:0
	.fnstart
	.cfi_startproc
@ BB#0:
	.save	{r4, r5, r6, r7, r8, r9, r11, lr}
	push	{r4, r5, r6, r7, r8, r9, r11, lr}
.Ltmp22:
	.cfi_def_cfa_offset 32
.Ltmp23:
	.cfi_offset lr, -4
.Ltmp24:
	.cfi_offset r11, -8
.Ltmp25:
	.cfi_offset r9, -12
.Ltmp26:
	.cfi_offset r8, -16
.Ltmp27:
	.cfi_offset r7, -20
.Ltmp28:
	.cfi_offset r6, -24
.Ltmp29:
	.cfi_offset r5, -28
.Ltmp30:
	.cfi_offset r4, -32
	.setfp	r11, sp, #24
	add	r11, sp, #24
.Ltmp31:
	.cfi_def_cfa r11, 8
	.pad	#48
	sub	sp, sp, #48
	@DEBUG_VALUE: prepareToPlay:this <- %R0
	@DEBUG_VALUE: prepareToPlay:sampleRate <- %S0
	@DEBUG_VALUE: prepareToPlay:L <- %S1
	@DEBUG_VALUE: prepareToPlay:rho <- %S2
	@DEBUG_VALUE: prepareToPlay:r <- %S3
	@DEBUG_VALUE: prepareToPlay:T <- %S4
	@DEBUG_VALUE: prepareToPlay:E <- %S5
	@DEBUG_VALUE: prepareToPlay:sigma0 <- %S6
	@DEBUG_VALUE: prepareToPlay:sigma1 <- %S7
.Ltmp32:
	.loc	40 25 40 prologue_end   @ /root/Bela/projects/NIEMO/dsp/DynamicStiffString.cpp:25:40
	vcvt.f64.f32	d16, s3
	mov	r4, r0
.Ltmp33:
	@DEBUG_VALUE: prepareToPlay:this <- %R4
	.loc	40 31 16                @ /root/Bela/projects/NIEMO/dsp/DynamicStiffString.cpp:31:16
	movw	r0, #0
	mov	r9, r4
	movt	r0, #17096
.Ltmp34:
	.file	41 "/usr/bin/../lib/gcc/arm-linux-gnueabihf/6.3.0/../../../../include/c++/6.3.0/bits" "vector.tcc"
	.loc	41 74 58                @ /usr/bin/../lib/gcc/arm-linux-gnueabihf/6.3.0/../../../../include/c++/6.3.0/bits/vector.tcc:74:58
	mov	r5, r4
.Ltmp35:
	.loc	40 25 42                @ /root/Bela/projects/NIEMO/dsp/DynamicStiffString.cpp:25:42
	vmul.f64	d16, d16, d16
	.loc	40 28 54                @ /root/Bela/projects/NIEMO/dsp/DynamicStiffString.cpp:28:54
	vmul.f64	d17, d16, d16
	.loc	40 21 15                @ /root/Bela/projects/NIEMO/dsp/DynamicStiffString.cpp:21:15
	vmov.f32	d5, #1.000000e+00
	.loc	40 25 42                @ /root/Bela/projects/NIEMO/dsp/DynamicStiffString.cpp:25:42
	vldr	d18, .LCPI0_4
	.loc	40 28 54                @ /root/Bela/projects/NIEMO/dsp/DynamicStiffString.cpp:28:54
	vldr	d19, .LCPI0_5
	.loc	40 25 42                @ /root/Bela/projects/NIEMO/dsp/DynamicStiffString.cpp:25:42
	vmul.f64	d16, d16, d18
	.loc	40 21 15                @ /root/Bela/projects/NIEMO/dsp/DynamicStiffString.cpp:21:15
	vdiv.f32	s0, s10, s0
.Ltmp36:
	.loc	40 28 54                @ /root/Bela/projects/NIEMO/dsp/DynamicStiffString.cpp:28:54
	vmul.f64	d17, d17, d19
	.loc	40 25 15                @ /root/Bela/projects/NIEMO/dsp/DynamicStiffString.cpp:25:15
	vcvt.f32.f64	s10, d16
	vmov.f64	d4, d1
.Ltmp37:
	@DEBUG_VALUE: prepareToPlay:rho <- %S8
	.loc	40 28 15                @ /root/Bela/projects/NIEMO/dsp/DynamicStiffString.cpp:28:15
	vcvt.f32.f64	s2, d17
	vstr	s1, [r11, #-28]
	vstr	s8, [r11, #-32]
	vstr	s3, [sp, #36]
	vstr	s4, [sp, #32]
	vstr	s5, [sp, #28]
	vstr	s6, [sp, #24]
	vstr	s7, [sp, #20]
	.loc	40 21 13                @ /root/Bela/projects/NIEMO/dsp/DynamicStiffString.cpp:21:13
	vstr	s0, [r4, #56]
	.loc	40 22 13                @ /root/Bela/projects/NIEMO/dsp/DynamicStiffString.cpp:22:13
	vstr	s1, [r4]
	.loc	40 32 20                @ /root/Bela/projects/NIEMO/dsp/DynamicStiffString.cpp:32:20
	vmul.f32	d0, d5, d4
.Ltmp38:
	.loc	40 23 15                @ /root/Bela/projects/NIEMO/dsp/DynamicStiffString.cpp:23:15
	vstr	s8, [r4, #4]
	.loc	40 24 13                @ /root/Bela/projects/NIEMO/dsp/DynamicStiffString.cpp:24:13
	vstr	s3, [r4, #8]
	.loc	40 25 13                @ /root/Bela/projects/NIEMO/dsp/DynamicStiffString.cpp:25:13
	vstr	s10, [r4, #12]
	.loc	40 26 13                @ /root/Bela/projects/NIEMO/dsp/DynamicStiffString.cpp:26:13
	vstr	s4, [r4, #16]
	.loc	40 27 13                @ /root/Bela/projects/NIEMO/dsp/DynamicStiffString.cpp:27:13
	vstr	s5, [r4, #20]
	.loc	40 28 13                @ /root/Bela/projects/NIEMO/dsp/DynamicStiffString.cpp:28:13
	vstr	s2, [r4, #24]
	.loc	40 29 18                @ /root/Bela/projects/NIEMO/dsp/DynamicStiffString.cpp:29:18
	vstr	s6, [r4, #36]
	.loc	40 30 18                @ /root/Bela/projects/NIEMO/dsp/DynamicStiffString.cpp:30:18
	vstr	s7, [r4, #40]
	.loc	40 31 16                @ /root/Bela/projects/NIEMO/dsp/DynamicStiffString.cpp:31:16
	str	r0, [r9, #60]!
	.loc	40 32 14                @ /root/Bela/projects/NIEMO/dsp/DynamicStiffString.cpp:32:14
	vstr	s0, [r4, #64]
.Ltmp39:
	.loc	41 74 58                @ /usr/bin/../lib/gcc/arm-linux-gnueabihf/6.3.0/../../../../include/c++/6.3.0/bits/vector.tcc:74:58
	ldr	r7, [r5, #68]!
.Ltmp40:
	@DEBUG_VALUE: capacity:this <- %R5
	@DEBUG_VALUE: reserve:this <- %R5
	@DEBUG_VALUE: size:this <- %R5
	@DEBUG_VALUE: _M_allocate_and_copy<std::move_iterator<float **> >:this <- %R5
	@DEBUG_VALUE: size:this <- %R5
	@DEBUG_VALUE: size:this <- %R5
	@DEBUG_VALUE: operator[]:this <- %R5
	@DEBUG_VALUE: size:this <- %R5
	@DEBUG_VALUE: reserve:__n <- 8
	.loc	12 736 40               @ /usr/bin/../lib/gcc/arm-linux-gnueabihf/6.3.0/../../../../include/c++/6.3.0/bits/stl_vector.h:736:40
	ldr	r0, [r5, #8]
	.loc	12 737 5                @ /usr/bin/../lib/gcc/arm-linux-gnueabihf/6.3.0/../../../../include/c++/6.3.0/bits/stl_vector.h:737:5
	sub	r0, r0, r7
	asr	r0, r0, #2
.Ltmp41:
	.loc	41 70 11                @ /usr/bin/../lib/gcc/arm-linux-gnueabihf/6.3.0/../../../../include/c++/6.3.0/bits/vector.tcc:70:11
	cmp	r0, #7
	bhi	.LBB0_6
.Ltmp42:
@ BB#1:
	@DEBUG_VALUE: size:this <- %R5
	@DEBUG_VALUE: operator[]:this <- %R5
	@DEBUG_VALUE: size:this <- %R5
	@DEBUG_VALUE: size:this <- %R5
	@DEBUG_VALUE: _M_allocate_and_copy<std::move_iterator<float **> >:this <- %R5
	@DEBUG_VALUE: size:this <- %R5
	@DEBUG_VALUE: reserve:this <- %R5
	@DEBUG_VALUE: capacity:this <- %R5
	@DEBUG_VALUE: prepareToPlay:this <- %R4
	@DEBUG_VALUE: prepareToPlay:sigma1 <- %S7
	@DEBUG_VALUE: prepareToPlay:sigma0 <- %S6
	@DEBUG_VALUE: prepareToPlay:E <- %S5
	@DEBUG_VALUE: prepareToPlay:T <- %S4
	@DEBUG_VALUE: prepareToPlay:r <- %S3
	.loc	12 656 40               @ /usr/bin/../lib/gcc/arm-linux-gnueabihf/6.3.0/../../../../include/c++/6.3.0/bits/stl_vector.h:656:40
	ldr	r0, [r4, #72]
	.loc	12 656 50 is_stmt 0     @ /usr/bin/../lib/gcc/arm-linux-gnueabihf/6.3.0/../../../../include/c++/6.3.0/bits/stl_vector.h:656:50
	sub	r8, r0, r7
.Ltmp43:
	@DEBUG_VALUE: allocate:__n <- 8
	@DEBUG_VALUE: allocate:__n <- 8
	@DEBUG_VALUE: _M_allocate:__n <- 8
	@DEBUG_VALUE: _M_allocate_and_copy<std::move_iterator<float **> >:__n <- 8
	.loc	8 104 27 is_stmt 1      @ /usr/bin/../lib/gcc/arm-linux-gnueabihf/6.3.0/../../../../include/c++/6.3.0/ext/new_allocator.h:104:27
	mov	r0, #32
	bl	_Znwj
.Ltmp44:
	mov	r6, r0
.Ltmp45:
	@DEBUG_VALUE: __copy_move_a<true, float **, float **>:__simple <- 1
	@DEBUG_VALUE: uninitialized_copy<std::move_iterator<float **>, float **>:__assignable <- 1
	.file	42 "/usr/bin/../lib/gcc/arm-linux-gnueabihf/6.3.0/../../../../include/c++/6.3.0/bits" "stl_algobase.h"
	.loc	42 367 8                @ /usr/bin/../lib/gcc/arm-linux-gnueabihf/6.3.0/../../../../include/c++/6.3.0/bits/stl_algobase.h:367:8
	cmp	r8, #0
	beq	.LBB0_3
.Ltmp46:
@ BB#2:
	@DEBUG_VALUE: size:this <- %R5
	@DEBUG_VALUE: operator[]:this <- %R5
	@DEBUG_VALUE: size:this <- %R5
	@DEBUG_VALUE: size:this <- %R5
	@DEBUG_VALUE: _M_allocate_and_copy<std::move_iterator<float **> >:this <- %R5
	@DEBUG_VALUE: size:this <- %R5
	@DEBUG_VALUE: reserve:this <- %R5
	@DEBUG_VALUE: capacity:this <- %R5
	@DEBUG_VALUE: prepareToPlay:this <- %R4
	.loc	42 368 6                @ /usr/bin/../lib/gcc/arm-linux-gnueabihf/6.3.0/../../../../include/c++/6.3.0/bits/stl_algobase.h:368:6
	mov	r0, r6
	mov	r1, r7
	mov	r2, r8
	bl	memmove
.Ltmp47:
.LBB0_3:                                @ %_ZNSt6vectorIPfSaIS0_EE20_M_allocate_and_copyISt13move_iteratorIPS0_EEES5_jT_S7_.exit.i
	@DEBUG_VALUE: size:this <- %R5
	@DEBUG_VALUE: operator[]:this <- %R5
	@DEBUG_VALUE: size:this <- %R5
	@DEBUG_VALUE: size:this <- %R5
	@DEBUG_VALUE: _M_allocate_and_copy<std::move_iterator<float **> >:this <- %R5
	@DEBUG_VALUE: size:this <- %R5
	@DEBUG_VALUE: reserve:this <- %R5
	@DEBUG_VALUE: capacity:this <- %R5
	@DEBUG_VALUE: prepareToPlay:this <- %R4
	.loc	41 78 32                @ /usr/bin/../lib/gcc/arm-linux-gnueabihf/6.3.0/../../../../include/c++/6.3.0/bits/vector.tcc:78:32
	ldr	r0, [r5]
.Ltmp48:
	@DEBUG_VALUE: _M_deallocate:__p <- %R0
	@DEBUG_VALUE: deallocate:__p <- %R0
	@DEBUG_VALUE: deallocate:__p <- %R0
	.loc	12 656 50               @ /usr/bin/../lib/gcc/arm-linux-gnueabihf/6.3.0/../../../../include/c++/6.3.0/bits/stl_vector.h:656:50
	asr	r7, r8, #2
.Ltmp49:
	@DEBUG_VALUE: __old_size <- %R7
	.loc	12 177 6                @ /usr/bin/../lib/gcc/arm-linux-gnueabihf/6.3.0/../../../../include/c++/6.3.0/bits/stl_vector.h:177:6
	cmp	r0, #0
	beq	.LBB0_5
.Ltmp50:
@ BB#4:
	@DEBUG_VALUE: __old_size <- %R7
	@DEBUG_VALUE: deallocate:__p <- %R0
	@DEBUG_VALUE: deallocate:__p <- %R0
	@DEBUG_VALUE: _M_deallocate:__p <- %R0
	@DEBUG_VALUE: size:this <- %R5
	@DEBUG_VALUE: operator[]:this <- %R5
	@DEBUG_VALUE: size:this <- %R5
	@DEBUG_VALUE: size:this <- %R5
	@DEBUG_VALUE: _M_allocate_and_copy<std::move_iterator<float **> >:this <- %R5
	@DEBUG_VALUE: size:this <- %R5
	@DEBUG_VALUE: reserve:this <- %R5
	@DEBUG_VALUE: capacity:this <- %R5
	@DEBUG_VALUE: prepareToPlay:this <- %R4
	.loc	8 110 9                 @ /usr/bin/../lib/gcc/arm-linux-gnueabihf/6.3.0/../../../../include/c++/6.3.0/ext/new_allocator.h:110:9
	bl	_ZdlPv
.Ltmp51:
.LBB0_5:                                @ %_ZNSt12_Vector_baseIPfSaIS0_EE13_M_deallocateEPS0_j.exit.i
	@DEBUG_VALUE: __old_size <- %R7
	@DEBUG_VALUE: size:this <- %R5
	@DEBUG_VALUE: operator[]:this <- %R5
	@DEBUG_VALUE: size:this <- %R5
	@DEBUG_VALUE: size:this <- %R5
	@DEBUG_VALUE: _M_allocate_and_copy<std::move_iterator<float **> >:this <- %R5
	@DEBUG_VALUE: size:this <- %R5
	@DEBUG_VALUE: reserve:this <- %R5
	@DEBUG_VALUE: capacity:this <- %R5
	@DEBUG_VALUE: prepareToPlay:this <- %R4
	.loc	41 82 36                @ /usr/bin/../lib/gcc/arm-linux-gnueabihf/6.3.0/../../../../include/c++/6.3.0/bits/vector.tcc:82:36
	add	r0, r6, r7, lsl #2
	.loc	41 81 27                @ /usr/bin/../lib/gcc/arm-linux-gnueabihf/6.3.0/../../../../include/c++/6.3.0/bits/vector.tcc:81:27
	str	r6, [r4, #68]
	.loc	41 83 61                @ /usr/bin/../lib/gcc/arm-linux-gnueabihf/6.3.0/../../../../include/c++/6.3.0/bits/vector.tcc:83:61
	add	r1, r6, #32
	.loc	41 82 28                @ /usr/bin/../lib/gcc/arm-linux-gnueabihf/6.3.0/../../../../include/c++/6.3.0/bits/vector.tcc:82:28
	str	r0, [r4, #72]
	.loc	41 83 36                @ /usr/bin/../lib/gcc/arm-linux-gnueabihf/6.3.0/../../../../include/c++/6.3.0/bits/vector.tcc:83:36
	str	r1, [r4, #76]
.Ltmp52:
.LBB0_6:                                @ %_ZNSt6vectorIPfSaIS0_EE7reserveEj.exit
	@DEBUG_VALUE: size:this <- %R5
	@DEBUG_VALUE: operator[]:this <- %R5
	@DEBUG_VALUE: size:this <- %R5
	@DEBUG_VALUE: size:this <- %R5
	@DEBUG_VALUE: _M_allocate_and_copy<std::move_iterator<float **> >:this <- %R5
	@DEBUG_VALUE: size:this <- %R5
	@DEBUG_VALUE: reserve:this <- %R5
	@DEBUG_VALUE: capacity:this <- %R5
	@DEBUG_VALUE: prepareToPlay:this <- %R4
	sub	r0, r11, #28
	add	r1, sp, #8
	.loc	40 35 30                @ /root/Bela/projects/NIEMO/dsp/DynamicStiffString.cpp:35:30
	str	r0, [sp, #8]
	.loc	40 35 19 is_stmt 0 discriminator 1 @ /root/Bela/projects/NIEMO/dsp/DynamicStiffString.cpp:35:19
	mov	r0, r5
	bl	_ZNSt6vectorIPfSaIS0_EE9push_backEOS0_
	sub	r0, r11, #32
	add	r1, sp, #8
	.loc	40 36 30 is_stmt 1      @ /root/Bela/projects/NIEMO/dsp/DynamicStiffString.cpp:36:30
	str	r0, [sp, #8]
	.loc	40 36 19 is_stmt 0 discriminator 1 @ /root/Bela/projects/NIEMO/dsp/DynamicStiffString.cpp:36:19
	mov	r0, r5
	bl	_ZNSt6vectorIPfSaIS0_EE9push_backEOS0_
	add	r0, sp, #36
	add	r1, sp, #8
	.loc	40 37 30 is_stmt 1      @ /root/Bela/projects/NIEMO/dsp/DynamicStiffString.cpp:37:30
	str	r0, [sp, #8]
	.loc	40 37 19 is_stmt 0 discriminator 1 @ /root/Bela/projects/NIEMO/dsp/DynamicStiffString.cpp:37:19
	mov	r0, r5
	bl	_ZNSt6vectorIPfSaIS0_EE9push_backEOS0_
	add	r0, sp, #32
	add	r1, sp, #8
	.loc	40 38 30 is_stmt 1      @ /root/Bela/projects/NIEMO/dsp/DynamicStiffString.cpp:38:30
	str	r0, [sp, #8]
	.loc	40 38 19 is_stmt 0 discriminator 1 @ /root/Bela/projects/NIEMO/dsp/DynamicStiffString.cpp:38:19
	mov	r0, r5
	bl	_ZNSt6vectorIPfSaIS0_EE9push_backEOS0_
	add	r0, sp, #28
	add	r1, sp, #8
	.loc	40 39 30 is_stmt 1      @ /root/Bela/projects/NIEMO/dsp/DynamicStiffString.cpp:39:30
	str	r0, [sp, #8]
	.loc	40 39 19 is_stmt 0 discriminator 1 @ /root/Bela/projects/NIEMO/dsp/DynamicStiffString.cpp:39:19
	mov	r0, r5
	bl	_ZNSt6vectorIPfSaIS0_EE9push_backEOS0_
	add	r0, sp, #24
	add	r1, sp, #8
	.loc	40 40 30 is_stmt 1      @ /root/Bela/projects/NIEMO/dsp/DynamicStiffString.cpp:40:30
	str	r0, [sp, #8]
	.loc	40 40 19 is_stmt 0 discriminator 1 @ /root/Bela/projects/NIEMO/dsp/DynamicStiffString.cpp:40:19
	mov	r0, r5
	bl	_ZNSt6vectorIPfSaIS0_EE9push_backEOS0_
	add	r0, sp, #20
	add	r1, sp, #8
	.loc	40 41 30 is_stmt 1      @ /root/Bela/projects/NIEMO/dsp/DynamicStiffString.cpp:41:30
	str	r0, [sp, #8]
	.loc	40 41 19 is_stmt 0 discriminator 1 @ /root/Bela/projects/NIEMO/dsp/DynamicStiffString.cpp:41:19
	mov	r0, r5
	bl	_ZNSt6vectorIPfSaIS0_EE9push_backEOS0_
	add	r1, sp, #8
	.loc	40 42 19 is_stmt 1 discriminator 1 @ /root/Bela/projects/NIEMO/dsp/DynamicStiffString.cpp:42:19
	mov	r0, r5
	.loc	40 42 30 is_stmt 0      @ /root/Bela/projects/NIEMO/dsp/DynamicStiffString.cpp:42:30
	str	r9, [sp, #8]
	.loc	40 42 19 discriminator 1 @ /root/Bela/projects/NIEMO/dsp/DynamicStiffString.cpp:42:19
	bl	_ZNSt6vectorIPfSaIS0_EE9push_backEOS0_
	mov	r1, #0
.Ltmp53:
	.loc	12 656 66 is_stmt 1     @ /usr/bin/../lib/gcc/arm-linux-gnueabihf/6.3.0/../../../../include/c++/6.3.0/bits/stl_vector.h:656:66
	ldr	r0, [r4, #68]
	.loc	12 656 40 is_stmt 0     @ /usr/bin/../lib/gcc/arm-linux-gnueabihf/6.3.0/../../../../include/c++/6.3.0/bits/stl_vector.h:656:40
	ldr	r12, [r4, #72]
.Ltmp54:
	.loc	12 656 66               @ /usr/bin/../lib/gcc/arm-linux-gnueabihf/6.3.0/../../../../include/c++/6.3.0/bits/stl_vector.h:656:66
	mov	r5, r4
.Ltmp55:
	.loc	40 45 52 is_stmt 1      @ /root/Bela/projects/NIEMO/dsp/DynamicStiffString.cpp:45:52
	str	r1, [sp, #8]
.Ltmp56:
	.loc	12 656 66               @ /usr/bin/../lib/gcc/arm-linux-gnueabihf/6.3.0/../../../../include/c++/6.3.0/bits/stl_vector.h:656:66
	ldr	r3, [r5, #80]!
.Ltmp57:
	.loc	12 656 50 is_stmt 0     @ /usr/bin/../lib/gcc/arm-linux-gnueabihf/6.3.0/../../../../include/c++/6.3.0/bits/stl_vector.h:656:50
	sub	r7, r12, r0
.Ltmp58:
	.loc	12 656 40               @ /usr/bin/../lib/gcc/arm-linux-gnueabihf/6.3.0/../../../../include/c++/6.3.0/bits/stl_vector.h:656:40
	ldr	r1, [r5, #4]
.Ltmp59:
	.loc	12 656 50               @ /usr/bin/../lib/gcc/arm-linux-gnueabihf/6.3.0/../../../../include/c++/6.3.0/bits/stl_vector.h:656:50
	asr	r7, r7, #2
.Ltmp60:
	@DEBUG_VALUE: resize:__new_size <- %R7
	.loc	12 656 50               @ /usr/bin/../lib/gcc/arm-linux-gnueabihf/6.3.0/../../../../include/c++/6.3.0/bits/stl_vector.h:656:50
	sub	r2, r1, r3
	asr	r6, r2, #2
.Ltmp61:
	.loc	12 696 6 is_stmt 1      @ /usr/bin/../lib/gcc/arm-linux-gnueabihf/6.3.0/../../../../include/c++/6.3.0/bits/stl_vector.h:696:6
	cmp	r7, r2, asr #2
.Ltmp62:
	@DEBUG_VALUE: resize:this <- %R5
	@DEBUG_VALUE: size:this <- %R5
	@DEBUG_VALUE: size:this <- %R5
	@DEBUG_VALUE: insert:this <- %R5
	@DEBUG_VALUE: _M_erase_at_end:this <- %R5
	@DEBUG_VALUE: operator[]:this <- %R5
	bls	.LBB0_8
.Ltmp63:
@ BB#7:
	@DEBUG_VALUE: operator[]:this <- %R5
	@DEBUG_VALUE: _M_erase_at_end:this <- %R5
	@DEBUG_VALUE: insert:this <- %R5
	@DEBUG_VALUE: size:this <- %R5
	@DEBUG_VALUE: size:this <- %R5
	@DEBUG_VALUE: resize:this <- %R5
	@DEBUG_VALUE: resize:__new_size <- %R7
	@DEBUG_VALUE: prepareToPlay:this <- %R4
	.loc	12 697 29               @ /usr/bin/../lib/gcc/arm-linux-gnueabihf/6.3.0/../../../../include/c++/6.3.0/bits/stl_vector.h:697:29
	sub	r2, r7, r6
.Ltmp64:
	@DEBUG_VALUE: insert:__n <- %R2
	add	r3, sp, #8
.Ltmp65:
	@DEBUG_VALUE: insert:__x <- %R3
	.loc	12 1055 2 discriminator 2 @ /usr/bin/../lib/gcc/arm-linux-gnueabihf/6.3.0/../../../../include/c++/6.3.0/bits/stl_vector.h:1055:2
	mov	r0, r5
	bl	_ZNSt6vectorIfSaIfEE14_M_fill_insertEN9__gnu_cxx17__normal_iteratorIPfS1_EEjRKf
.Ltmp66:
	.loc	12 656 66               @ /usr/bin/../lib/gcc/arm-linux-gnueabihf/6.3.0/../../../../include/c++/6.3.0/bits/stl_vector.h:656:66
	ldr	r0, [r4, #68]
	.loc	12 656 40 is_stmt 0     @ /usr/bin/../lib/gcc/arm-linux-gnueabihf/6.3.0/../../../../include/c++/6.3.0/bits/stl_vector.h:656:40
	ldr	r12, [r4, #72]
	b	.LBB0_9
.Ltmp67:
.LBB0_8:
	@DEBUG_VALUE: operator[]:this <- %R5
	@DEBUG_VALUE: _M_erase_at_end:this <- %R5
	@DEBUG_VALUE: insert:this <- %R5
	@DEBUG_VALUE: size:this <- %R5
	@DEBUG_VALUE: size:this <- %R5
	@DEBUG_VALUE: resize:this <- %R5
	@DEBUG_VALUE: resize:__new_size <- %R7
	@DEBUG_VALUE: prepareToPlay:this <- %R4
	.loc	12 698 11 is_stmt 1     @ /usr/bin/../lib/gcc/arm-linux-gnueabihf/6.3.0/../../../../include/c++/6.3.0/bits/stl_vector.h:698:11
	cmp	r7, r6
.Ltmp68:
	.loc	12 699 43               @ /usr/bin/../lib/gcc/arm-linux-gnueabihf/6.3.0/../../../../include/c++/6.3.0/bits/stl_vector.h:699:43
	addlo	r1, r3, r7, lsl #2
.Ltmp69:
	@DEBUG_VALUE: _M_erase_at_end:__pos <- %R1
	.loc	12 1437 26              @ /usr/bin/../lib/gcc/arm-linux-gnueabihf/6.3.0/../../../../include/c++/6.3.0/bits/stl_vector.h:1437:26
	strlo	r1, [r4, #84]
.Ltmp70:
.LBB0_9:                                @ %_ZNSt6vectorIfSaIfEE6resizeEjRKf.exit
	@DEBUG_VALUE: operator[]:this <- %R5
	@DEBUG_VALUE: _M_erase_at_end:this <- %R5
	@DEBUG_VALUE: insert:this <- %R5
	@DEBUG_VALUE: size:this <- %R5
	@DEBUG_VALUE: size:this <- %R5
	@DEBUG_VALUE: resize:this <- %R5
	@DEBUG_VALUE: resize:__new_size <- %R7
	@DEBUG_VALUE: prepareToPlay:this <- %R4
	@DEBUG_VALUE: i <- 0
	mov	r3, #0
.Ltmp71:
	.loc	40 46 5 discriminator 1 @ /root/Bela/projects/NIEMO/dsp/DynamicStiffString.cpp:46:5
	cmp	r12, r0
	beq	.LBB0_12
.Ltmp72:
@ BB#10:                                @ %.lr.ph
	@DEBUG_VALUE: operator[]:this <- %R5
	@DEBUG_VALUE: _M_erase_at_end:this <- %R5
	@DEBUG_VALUE: insert:this <- %R5
	@DEBUG_VALUE: size:this <- %R5
	@DEBUG_VALUE: size:this <- %R5
	@DEBUG_VALUE: resize:this <- %R5
	@DEBUG_VALUE: resize:__new_size <- %R7
	@DEBUG_VALUE: prepareToPlay:this <- %R4
	.loc	12 656 50               @ /usr/bin/../lib/gcc/arm-linux-gnueabihf/6.3.0/../../../../include/c++/6.3.0/bits/stl_vector.h:656:50
	sub	r2, r12, r0
.Ltmp73:
	.loc	12 781 32               @ /usr/bin/../lib/gcc/arm-linux-gnueabihf/6.3.0/../../../../include/c++/6.3.0/bits/stl_vector.h:781:32
	ldr	r1, [r5]
.Ltmp74:
	.loc	12 656 50               @ /usr/bin/../lib/gcc/arm-linux-gnueabihf/6.3.0/../../../../include/c++/6.3.0/bits/stl_vector.h:656:50
	asr	r3, r2, #2
	mov	r2, #0
.Ltmp75:
.LBB0_11:                               @ =>This Inner Loop Header: Depth=1
	@DEBUG_VALUE: operator[]:__n <- %R2
	.loc	40 47 32                @ /root/Bela/projects/NIEMO/dsp/DynamicStiffString.cpp:47:32
	ldr	r7, [r0, r2, lsl #2]
	.loc	40 47 31 is_stmt 0      @ /root/Bela/projects/NIEMO/dsp/DynamicStiffString.cpp:47:31
	ldr	r7, [r7]
	.loc	40 47 29                @ /root/Bela/projects/NIEMO/dsp/DynamicStiffString.cpp:47:29
	str	r7, [r1, r2, lsl #2]
	.loc	40 46 47 is_stmt 1 discriminator 3 @ /root/Bela/projects/NIEMO/dsp/DynamicStiffString.cpp:46:47
	add	r2, r2, #1
.Ltmp76:
	@DEBUG_VALUE: i <- %R2
	.loc	40 46 5 is_stmt 0 discriminator 1 @ /root/Bela/projects/NIEMO/dsp/DynamicStiffString.cpp:46:5
	cmp	r2, r3
	blo	.LBB0_11
.Ltmp77:
.LBB0_12:                               @ %._crit_edge
	@DEBUG_VALUE: resize:__x [bit_piece offset=0 size=1] <- 0
	.loc	6 313 30 is_stmt 1      @ /usr/bin/../lib/gcc/arm-linux-gnueabihf/6.3.0/../../../../include/c++/6.3.0/bits/stl_bvector.h:313:30
	mov	r0, r4
	ldr	r1, [r0, #92]!
.Ltmp78:
	.loc	6 313 30 is_stmt 0      @ /usr/bin/../lib/gcc/arm-linux-gnueabihf/6.3.0/../../../../include/c++/6.3.0/bits/stl_bvector.h:313:30
	mov	r2, r0
	ldr	r7, [r2, #8]!
.Ltmp79:
	.loc	6 313 40                @ /usr/bin/../lib/gcc/arm-linux-gnueabihf/6.3.0/../../../../include/c++/6.3.0/bits/stl_bvector.h:313:40
	ldr	r6, [r0, #4]
.Ltmp80:
	.loc	6 313 40                @ /usr/bin/../lib/gcc/arm-linux-gnueabihf/6.3.0/../../../../include/c++/6.3.0/bits/stl_bvector.h:313:40
	ldr	r5, [r0, #12]
.Ltmp81:
	.loc	6 210 42 is_stmt 1      @ /usr/bin/../lib/gcc/arm-linux-gnueabihf/6.3.0/../../../../include/c++/6.3.0/bits/stl_bvector.h:210:42
	sub	r7, r7, r1
	.loc	6 211 6                 @ /usr/bin/../lib/gcc/arm-linux-gnueabihf/6.3.0/../../../../include/c++/6.3.0/bits/stl_bvector.h:211:6
	sub	r5, r5, r6
	.loc	6 211 22 is_stmt 0      @ /usr/bin/../lib/gcc/arm-linux-gnueabihf/6.3.0/../../../../include/c++/6.3.0/bits/stl_bvector.h:211:22
	add	r7, r5, r7, lsl #3
.Ltmp82:
	.loc	6 1031 11 is_stmt 1     @ /usr/bin/../lib/gcc/arm-linux-gnueabihf/6.3.0/../../../../include/c++/6.3.0/bits/stl_bvector.h:1031:11
	cmp	r3, r7
.Ltmp83:
	@DEBUG_VALUE: end:this <- %R0
	@DEBUG_VALUE: size:this <- %R0
	@DEBUG_VALUE: resize:this <- %R0
	@DEBUG_VALUE: begin:this <- %R0
	@DEBUG_VALUE: _M_erase_at_end:this <- %R0
	@DEBUG_VALUE: end:this <- %R0
	@DEBUG_VALUE: size:this <- %R0
	@DEBUG_VALUE: end:this <- %R0
	@DEBUG_VALUE: begin:this <- %R0
	@DEBUG_VALUE: insert:this <- %R0
	@DEBUG_VALUE: _Bit_const_iterator:__x <- %R2
	@DEBUG_VALUE: _Bit_const_iterator:__x <- %R2
	bhs	.LBB0_14
.Ltmp84:
@ BB#13:
	@DEBUG_VALUE: _Bit_const_iterator:__x <- %R2
	@DEBUG_VALUE: _Bit_const_iterator:__x <- %R2
	@DEBUG_VALUE: insert:this <- %R0
	@DEBUG_VALUE: begin:this <- %R0
	@DEBUG_VALUE: end:this <- %R0
	@DEBUG_VALUE: size:this <- %R0
	@DEBUG_VALUE: end:this <- %R0
	@DEBUG_VALUE: _M_erase_at_end:this <- %R0
	@DEBUG_VALUE: begin:this <- %R0
	@DEBUG_VALUE: resize:this <- %R0
	@DEBUG_VALUE: size:this <- %R0
	@DEBUG_VALUE: end:this <- %R0
	.loc	6 168 33                @ /usr/bin/../lib/gcc/arm-linux-gnueabihf/6.3.0/../../../../include/c++/6.3.0/bits/stl_bvector.h:168:33
	add	r0, r6, r3
.Ltmp85:
	@DEBUG_VALUE: _M_incr:__n <- %R0
	.loc	6 169 19                @ /usr/bin/../lib/gcc/arm-linux-gnueabihf/6.3.0/../../../../include/c++/6.3.0/bits/stl_bvector.h:169:19
	asr	r2, r0, #31
.Ltmp86:
	add	r2, r0, r2, lsr #27
	asr	r3, r2, #5
	bfc	r2, #0, #5
	.loc	6 170 17                @ /usr/bin/../lib/gcc/arm-linux-gnueabihf/6.3.0/../../../../include/c++/6.3.0/bits/stl_bvector.h:170:17
	sub	r0, r0, r2
.Ltmp87:
	.loc	6 169 12                @ /usr/bin/../lib/gcc/arm-linux-gnueabihf/6.3.0/../../../../include/c++/6.3.0/bits/stl_bvector.h:169:12
	add	r1, r1, r3, lsl #2
	.loc	6 171 11                @ /usr/bin/../lib/gcc/arm-linux-gnueabihf/6.3.0/../../../../include/c++/6.3.0/bits/stl_bvector.h:171:11
	cmp	r0, #0
	sublt	r1, r1, #4
.Ltmp88:
	@DEBUG_VALUE: _M_erase_at_end:__pos [bit_piece offset=0 size=32] <- %R1
	@DEBUG_VALUE: _M_incr:__n <- undef
	addlt	r0, r0, #32
.Ltmp89:
	@DEBUG_VALUE: _M_erase_at_end:__pos [bit_piece offset=32 size=32] <- %R0
	.loc	6 1248 31               @ /usr/bin/../lib/gcc/arm-linux-gnueabihf/6.3.0/../../../../include/c++/6.3.0/bits/stl_bvector.h:1248:31
	str	r1, [r4, #100]
	str	r0, [r4, #104]
	b	.LBB0_15
.Ltmp90:
.LBB0_14:
	@DEBUG_VALUE: _Bit_const_iterator:__x <- %R2
	@DEBUG_VALUE: _Bit_const_iterator:__x <- %R2
	@DEBUG_VALUE: insert:this <- %R0
	@DEBUG_VALUE: begin:this <- %R0
	@DEBUG_VALUE: end:this <- %R0
	@DEBUG_VALUE: size:this <- %R0
	@DEBUG_VALUE: end:this <- %R0
	@DEBUG_VALUE: _M_erase_at_end:this <- %R0
	@DEBUG_VALUE: begin:this <- %R0
	@DEBUG_VALUE: resize:this <- %R0
	@DEBUG_VALUE: size:this <- %R0
	@DEBUG_VALUE: end:this <- %R0
	.loc	6 788 14                @ /usr/bin/../lib/gcc/arm-linux-gnueabihf/6.3.0/../../../../include/c++/6.3.0/bits/stl_bvector.h:788:14
	ldm	r2, {r1, r2}
.Ltmp91:
	.loc	6 1034 34               @ /usr/bin/../lib/gcc/arm-linux-gnueabihf/6.3.0/../../../../include/c++/6.3.0/bits/stl_bvector.h:1034:34
	sub	r3, r3, r7
.Ltmp92:
	@DEBUG_VALUE: insert:__n <- %R3
	mov	r6, #0
.Ltmp93:
	.loc	6 993 7 discriminator 1 @ /usr/bin/../lib/gcc/arm-linux-gnueabihf/6.3.0/../../../../include/c++/6.3.0/bits/stl_bvector.h:993:7
	str	r6, [sp]
	bl	_ZNSt6vectorIbSaIbEE14_M_fill_insertESt13_Bit_iteratorjb
.Ltmp94:
.LBB0_15:                               @ %_ZNSt6vectorIbSaIbEE6resizeEjb.exit
	.loc	40 51 37                @ /root/Bela/projects/NIEMO/dsp/DynamicStiffString.cpp:51:37
	vldr	s0, [r11, #-32]
.Ltmp95:
	@DEBUG_VALUE: prepareToPlay:rho <- %S0
	.loc	40 51 49 is_stmt 0      @ /root/Bela/projects/NIEMO/dsp/DynamicStiffString.cpp:51:49
	vldr	s2, [sp, #36]
.Ltmp96:
	@DEBUG_VALUE: prepareToPlay:r <- %S2
	.loc	40 51 37                @ /root/Bela/projects/NIEMO/dsp/DynamicStiffString.cpp:51:37
	vcvt.f64.f32	d16, s0
	.loc	40 51 49                @ /root/Bela/projects/NIEMO/dsp/DynamicStiffString.cpp:51:49
	vcvt.f64.f32	d18, s2
	.loc	40 51 51                @ /root/Bela/projects/NIEMO/dsp/DynamicStiffString.cpp:51:51
	vldr	d17, .LCPI0_6
	.loc	40 51 26                @ /root/Bela/projects/NIEMO/dsp/DynamicStiffString.cpp:51:26
	vldr	s4, [sp, #32]
.Ltmp97:
	@DEBUG_VALUE: prepareToPlay:T <- %S4
	.loc	40 51 51                @ /root/Bela/projects/NIEMO/dsp/DynamicStiffString.cpp:51:51
	vmul.f64	d16, d16, d17
	.loc	40 51 61                @ /root/Bela/projects/NIEMO/dsp/DynamicStiffString.cpp:51:61
	vmul.f64	d17, d18, d18
	.loc	40 51 26                @ /root/Bela/projects/NIEMO/dsp/DynamicStiffString.cpp:51:26
	vcvt.f64.f32	d19, s4
	.loc	40 51 24                @ /root/Bela/projects/NIEMO/dsp/DynamicStiffString.cpp:51:24
	vmov.f64	d20, #5.000000e-01
	vmul.f64	d18, d19, d20
	.loc	40 51 61                @ /root/Bela/projects/NIEMO/dsp/DynamicStiffString.cpp:51:61
	vmul.f64	d16, d17, d16
	.loc	40 51 28                @ /root/Bela/projects/NIEMO/dsp/DynamicStiffString.cpp:51:28
	vdiv.f64	d16, d18, d16
	.loc	40 53 32 is_stmt 1      @ /root/Bela/projects/NIEMO/dsp/DynamicStiffString.cpp:53:32
	vldr	s0, [r4, #56]
.Ltmp98:
	.loc	40 51 20                @ /root/Bela/projects/NIEMO/dsp/DynamicStiffString.cpp:51:20
	vcvt.f32.f64	s2, d16
.Ltmp99:
	@DEBUG_VALUE: prepareToPlay:cSqMin <- %S2
	.loc	40 53 56                @ /root/Bela/projects/NIEMO/dsp/DynamicStiffString.cpp:53:56
	vcvt.f64.f32	d17, s0
	.loc	40 53 54 is_stmt 0      @ /root/Bela/projects/NIEMO/dsp/DynamicStiffString.cpp:53:54
	vldr	d18, .LCPI0_3
	vmul.f64	d16, d17, d18
	.loc	40 53 34                @ /root/Bela/projects/NIEMO/dsp/DynamicStiffString.cpp:53:34
	vmul.f32	d17, d0, d0
	vmul.f32	d0, d17, d1
	.loc	40 53 23                @ /root/Bela/projects/NIEMO/dsp/DynamicStiffString.cpp:53:23
	vcvt.f64.f32	d17, s0
	.loc	40 53 38                @ /root/Bela/projects/NIEMO/dsp/DynamicStiffString.cpp:53:38
	vadd.f64	d16, d17, d16
	.loc	40 53 18 discriminator 1 @ /root/Bela/projects/NIEMO/dsp/DynamicStiffString.cpp:53:18
	vsqrt.f64	d16, d16
	.loc	40 54 25 is_stmt 1      @ /root/Bela/projects/NIEMO/dsp/DynamicStiffString.cpp:54:25
	vldr	s0, [r11, #-28]
.Ltmp100:
	@DEBUG_VALUE: prepareToPlay:L <- %S0
	vcvt.f64.f32	d17, s0
	.loc	40 53 18                @ /root/Bela/projects/NIEMO/dsp/DynamicStiffString.cpp:53:18
	vcvt.f32.f64	s0, d16
.Ltmp101:
	@DEBUG_VALUE: prepareToPlay:hMin <- %S0
	.loc	40 54 23                @ /root/Bela/projects/NIEMO/dsp/DynamicStiffString.cpp:54:23
	vadd.f64	d16, d17, d17
	.loc	40 54 29 is_stmt 0      @ /root/Bela/projects/NIEMO/dsp/DynamicStiffString.cpp:54:29
	vcvt.f64.f32	d17, s0
	.loc	40 54 27                @ /root/Bela/projects/NIEMO/dsp/DynamicStiffString.cpp:54:27
	vdiv.f64	d0, d16, d17
.Ltmp102:
	.loc	40 54 12                @ /root/Bela/projects/NIEMO/dsp/DynamicStiffString.cpp:54:12
	bl	floor
.Ltmp103:
	.loc	40 54 10                @ /root/Bela/projects/NIEMO/dsp/DynamicStiffString.cpp:54:10
	vcvt.s32.f64	s2, d0
	mov	r6, #0
	.loc	40 54 12                @ /root/Bela/projects/NIEMO/dsp/DynamicStiffString.cpp:54:12
	vcvt.s32.f64	s0, d0
	vmov	r1, s0
	.loc	40 54 10                @ /root/Bela/projects/NIEMO/dsp/DynamicStiffString.cpp:54:10
	vstr	s2, [r4, #120]
	.loc	40 63 24 is_stmt 1      @ /root/Bela/projects/NIEMO/dsp/DynamicStiffString.cpp:63:24
	ldr	r0, [r4, #132]
.Ltmp104:
	.loc	12 91 25                @ /usr/bin/../lib/gcc/arm-linux-gnueabihf/6.3.0/../../../../include/c++/6.3.0/bits/stl_vector.h:91:25
	str	r6, [sp, #8]
	.loc	12 91 37 is_stmt 0      @ /usr/bin/../lib/gcc/arm-linux-gnueabihf/6.3.0/../../../../include/c++/6.3.0/bits/stl_vector.h:91:37
	str	r6, [sp, #12]
	.loc	12 91 50                @ /usr/bin/../lib/gcc/arm-linux-gnueabihf/6.3.0/../../../../include/c++/6.3.0/bits/stl_vector.h:91:50
	str	r6, [sp, #16]
.Ltmp105:
	.loc	40 63 22 is_stmt 1      @ /root/Bela/projects/NIEMO/dsp/DynamicStiffString.cpp:63:22
	sub	r0, r1, r0
.Ltmp106:
	@DEBUG_VALUE: prepareToPlay:MvMax <- %R0
	.loc	40 67 65                @ /root/Bela/projects/NIEMO/dsp/DynamicStiffString.cpp:67:65
	adds	r7, r0, #1
.Ltmp107:
	@DEBUG_VALUE: vector:__n <- %R7
	@DEBUG_VALUE: _Vector_base:__n <- %R7
	@DEBUG_VALUE: _M_create_storage:__n <- %R7
	@DEBUG_VALUE: _M_allocate:__n <- %R7
	@DEBUG_VALUE: allocate:__n <- %R7
	@DEBUG_VALUE: allocate:__n <- %R7
	@DEBUG_VALUE: _M_fill_initialize:__n <- %R7
	@DEBUG_VALUE: __uninitialized_fill_n_a<float *, unsigned int, float, float>:__n <- %R7
	@DEBUG_VALUE: uninitialized_fill_n<float *, unsigned int, float>:__n <- %R7
	@DEBUG_VALUE: __uninit_fill_n<float *, unsigned int, float>:__n <- %R7
	@DEBUG_VALUE: fill_n<float *, unsigned int, float>:__n <- %R7
	@DEBUG_VALUE: __fill_n_a<float *, unsigned int, float>:__n <- %R7
	@DEBUG_VALUE: __niter <- %R7
	beq	.LBB0_22
.Ltmp108:
@ BB#16:
	@DEBUG_VALUE: __niter <- %R7
	@DEBUG_VALUE: __fill_n_a<float *, unsigned int, float>:__n <- %R7
	@DEBUG_VALUE: fill_n<float *, unsigned int, float>:__n <- %R7
	@DEBUG_VALUE: __uninit_fill_n<float *, unsigned int, float>:__n <- %R7
	@DEBUG_VALUE: uninitialized_fill_n<float *, unsigned int, float>:__n <- %R7
	@DEBUG_VALUE: __uninitialized_fill_n_a<float *, unsigned int, float, float>:__n <- %R7
	@DEBUG_VALUE: _M_fill_initialize:__n <- %R7
	@DEBUG_VALUE: allocate:__n <- %R7
	@DEBUG_VALUE: allocate:__n <- %R7
	@DEBUG_VALUE: _M_allocate:__n <- %R7
	@DEBUG_VALUE: _M_create_storage:__n <- %R7
	@DEBUG_VALUE: _Vector_base:__n <- %R7
	@DEBUG_VALUE: vector:__n <- %R7
	@DEBUG_VALUE: prepareToPlay:MvMax <- %R0
	.loc	8 101 6                 @ /usr/bin/../lib/gcc/arm-linux-gnueabihf/6.3.0/../../../../include/c++/6.3.0/ext/new_allocator.h:101:6
	cmp	r7, #1073741824
	bhs	.LBB0_60
.Ltmp109:
@ BB#17:                                @ %.lr.ph.i.i.i.i.i.i.preheader.i
	@DEBUG_VALUE: __niter <- %R7
	@DEBUG_VALUE: __fill_n_a<float *, unsigned int, float>:__n <- %R7
	@DEBUG_VALUE: fill_n<float *, unsigned int, float>:__n <- %R7
	@DEBUG_VALUE: __uninit_fill_n<float *, unsigned int, float>:__n <- %R7
	@DEBUG_VALUE: uninitialized_fill_n<float *, unsigned int, float>:__n <- %R7
	@DEBUG_VALUE: __uninitialized_fill_n_a<float *, unsigned int, float, float>:__n <- %R7
	@DEBUG_VALUE: _M_fill_initialize:__n <- %R7
	@DEBUG_VALUE: allocate:__n <- %R7
	@DEBUG_VALUE: allocate:__n <- %R7
	@DEBUG_VALUE: _M_allocate:__n <- %R7
	@DEBUG_VALUE: _M_create_storage:__n <- %R7
	@DEBUG_VALUE: _Vector_base:__n <- %R7
	@DEBUG_VALUE: vector:__n <- %R7
	@DEBUG_VALUE: prepareToPlay:MvMax <- %R0
	.loc	8 104 46                @ /usr/bin/../lib/gcc/arm-linux-gnueabihf/6.3.0/../../../../include/c++/6.3.0/ext/new_allocator.h:104:46
	lsl	r5, r7, #2
	.loc	8 104 27 is_stmt 0      @ /usr/bin/../lib/gcc/arm-linux-gnueabihf/6.3.0/../../../../include/c++/6.3.0/ext/new_allocator.h:104:27
.Ltmp0:
	mov	r0, r5
.Ltmp110:
	bl	_Znwj
.Ltmp1:
.Ltmp111:
@ BB#18:                                @ %.noexc51
	@DEBUG_VALUE: __niter <- %R7
	@DEBUG_VALUE: __fill_n_a<float *, unsigned int, float>:__n <- %R7
	@DEBUG_VALUE: fill_n<float *, unsigned int, float>:__n <- %R7
	@DEBUG_VALUE: __uninit_fill_n<float *, unsigned int, float>:__n <- %R7
	@DEBUG_VALUE: uninitialized_fill_n<float *, unsigned int, float>:__n <- %R7
	@DEBUG_VALUE: __uninitialized_fill_n_a<float *, unsigned int, float, float>:__n <- %R7
	@DEBUG_VALUE: _M_fill_initialize:__n <- %R7
	@DEBUG_VALUE: allocate:__n <- %R7
	@DEBUG_VALUE: allocate:__n <- %R7
	@DEBUG_VALUE: _M_allocate:__n <- %R7
	@DEBUG_VALUE: _M_create_storage:__n <- %R7
	@DEBUG_VALUE: _Vector_base:__n <- %R7
	@DEBUG_VALUE: vector:__n <- %R7
	@DEBUG_VALUE: __fill_n_a<float *, unsigned int, float>:__first <- %R0
	@DEBUG_VALUE: fill_n<float *, unsigned int, float>:__first <- %R0
	@DEBUG_VALUE: __uninit_fill_n<float *, unsigned int, float>:__first <- %R0
	@DEBUG_VALUE: uninitialized_fill_n<float *, unsigned int, float>:__first <- %R0
	@DEBUG_VALUE: __uninitialized_fill_n_a<float *, unsigned int, float, float>:__first <- %R0
	.loc	42 754 11 is_stmt 1     @ /usr/bin/../lib/gcc/arm-linux-gnueabihf/6.3.0/../../../../include/c++/6.3.0/bits/stl_algobase.h:754:11
	mov	r1, #0
	mov	r2, r5
.Ltmp112:
	.loc	12 185 25               @ /usr/bin/../lib/gcc/arm-linux-gnueabihf/6.3.0/../../../../include/c++/6.3.0/bits/stl_vector.h:185:25
	str	r0, [sp, #8]
	.loc	12 187 59               @ /usr/bin/../lib/gcc/arm-linux-gnueabihf/6.3.0/../../../../include/c++/6.3.0/bits/stl_vector.h:187:59
	add	r6, r0, r7, lsl #2
	.loc	12 186 26               @ /usr/bin/../lib/gcc/arm-linux-gnueabihf/6.3.0/../../../../include/c++/6.3.0/bits/stl_vector.h:186:26
	str	r0, [sp, #12]
	.loc	12 187 34               @ /usr/bin/../lib/gcc/arm-linux-gnueabihf/6.3.0/../../../../include/c++/6.3.0/bits/stl_vector.h:187:34
	str	r6, [sp, #16]
.Ltmp113:
	@DEBUG_VALUE: uninitialized_fill_n<float *, unsigned int, float>:__assignable <- 1
	.loc	42 754 11               @ /usr/bin/../lib/gcc/arm-linux-gnueabihf/6.3.0/../../../../include/c++/6.3.0/bits/stl_algobase.h:754:11
	bl	memset
.Ltmp114:
	b	.LBB0_23
.Ltmp115:
	.p2align	3
@ BB#19:
.LCPI0_4:
	.long	1413754136              @ double 3.1415926535897931
	.long	1074340347
	.p2align	3
@ BB#20:
.LCPI0_5:
	.long	1413754136              @ double 0.78539816339744828
	.long	1072243195
	.p2align	3
@ BB#21:
.LCPI0_6:
	.long	1413754136              @ double 25.132741228718345
	.long	1077486075
.LBB0_22:                               @ %_ZNSt12_Vector_baseIfSaIfEEC2EjRKS0_.exit.thread.i
.Ltmp116:
	@DEBUG_VALUE: __niter <- %R7
	@DEBUG_VALUE: __fill_n_a<float *, unsigned int, float>:__n <- %R7
	@DEBUG_VALUE: fill_n<float *, unsigned int, float>:__n <- %R7
	@DEBUG_VALUE: __uninit_fill_n<float *, unsigned int, float>:__n <- %R7
	@DEBUG_VALUE: uninitialized_fill_n<float *, unsigned int, float>:__n <- %R7
	@DEBUG_VALUE: __uninitialized_fill_n_a<float *, unsigned int, float, float>:__n <- %R7
	@DEBUG_VALUE: _M_fill_initialize:__n <- %R7
	@DEBUG_VALUE: allocate:__n <- %R7
	@DEBUG_VALUE: allocate:__n <- %R7
	@DEBUG_VALUE: _M_allocate:__n <- %R7
	@DEBUG_VALUE: _M_create_storage:__n <- %R7
	@DEBUG_VALUE: _Vector_base:__n <- %R7
	@DEBUG_VALUE: vector:__n <- %R7
	@DEBUG_VALUE: prepareToPlay:MvMax <- %R0
	.loc	12 185 25               @ /usr/bin/../lib/gcc/arm-linux-gnueabihf/6.3.0/../../../../include/c++/6.3.0/bits/stl_vector.h:185:25
	str	r6, [sp, #8]
	.loc	12 186 26               @ /usr/bin/../lib/gcc/arm-linux-gnueabihf/6.3.0/../../../../include/c++/6.3.0/bits/stl_vector.h:186:26
	str	r6, [sp, #12]
	@DEBUG_VALUE: uninitialized_fill_n<float *, unsigned int, float>:__assignable <- 1
	.loc	12 187 34               @ /usr/bin/../lib/gcc/arm-linux-gnueabihf/6.3.0/../../../../include/c++/6.3.0/bits/stl_vector.h:187:34
	str	r6, [sp, #16]
.Ltmp117:
.LBB0_23:                               @ %.loopexit120
	@DEBUG_VALUE: __niter <- %R7
	@DEBUG_VALUE: __fill_n_a<float *, unsigned int, float>:__n <- %R7
	@DEBUG_VALUE: fill_n<float *, unsigned int, float>:__n <- %R7
	@DEBUG_VALUE: __uninit_fill_n<float *, unsigned int, float>:__n <- %R7
	@DEBUG_VALUE: uninitialized_fill_n<float *, unsigned int, float>:__n <- %R7
	@DEBUG_VALUE: __uninitialized_fill_n_a<float *, unsigned int, float, float>:__n <- %R7
	@DEBUG_VALUE: _M_fill_initialize:__n <- %R7
	@DEBUG_VALUE: allocate:__n <- %R7
	@DEBUG_VALUE: allocate:__n <- %R7
	@DEBUG_VALUE: _M_allocate:__n <- %R7
	@DEBUG_VALUE: _M_create_storage:__n <- %R7
	@DEBUG_VALUE: _Vector_base:__n <- %R7
	@DEBUG_VALUE: vector:__n <- %R7
	@DEBUG_VALUE: vector:__n <- 3
	@DEBUG_VALUE: _Vector_base:__n <- 3
	@DEBUG_VALUE: _M_create_storage:__n <- 3
	@DEBUG_VALUE: _M_allocate:__n <- 3
	@DEBUG_VALUE: allocate:__n <- 3
	@DEBUG_VALUE: allocate:__n <- 3
	.loc	12 1298 26              @ /usr/bin/../lib/gcc/arm-linux-gnueabihf/6.3.0/../../../../include/c++/6.3.0/bits/stl_vector.h:1298:26
	str	r6, [sp, #12]
.Ltmp118:
	.loc	8 104 27                @ /usr/bin/../lib/gcc/arm-linux-gnueabihf/6.3.0/../../../../include/c++/6.3.0/ext/new_allocator.h:104:27
.Ltmp5:
	mov	r0, #36
	bl	_Znwj
	mov	r6, r0
.Ltmp6:
.Ltmp119:
@ BB#24:                                @ %.noexc55
	@DEBUG_VALUE: __niter <- %R7
	@DEBUG_VALUE: __fill_n_a<float *, unsigned int, float>:__n <- %R7
	@DEBUG_VALUE: fill_n<float *, unsigned int, float>:__n <- %R7
	@DEBUG_VALUE: __uninit_fill_n<float *, unsigned int, float>:__n <- %R7
	@DEBUG_VALUE: uninitialized_fill_n<float *, unsigned int, float>:__n <- %R7
	@DEBUG_VALUE: __uninitialized_fill_n_a<float *, unsigned int, float, float>:__n <- %R7
	@DEBUG_VALUE: _M_fill_initialize:__n <- %R7
	@DEBUG_VALUE: allocate:__n <- %R7
	@DEBUG_VALUE: allocate:__n <- %R7
	@DEBUG_VALUE: _M_allocate:__n <- %R7
	@DEBUG_VALUE: _M_create_storage:__n <- %R7
	@DEBUG_VALUE: _Vector_base:__n <- %R7
	@DEBUG_VALUE: vector:__n <- %R7
	.file	43 "/usr/bin/../lib/gcc/arm-linux-gnueabihf/6.3.0/../../../../include/c++/6.3.0/bits" "stl_uninitialized.h"
	.loc	43 246 14               @ /usr/bin/../lib/gcc/arm-linux-gnueabihf/6.3.0/../../../../include/c++/6.3.0/bits/stl_uninitialized.h:246:14
.Ltmp8:
.Ltmp120:
	@DEBUG_VALUE: uninitialized_fill_n<std::vector<float, std::allocator<float> > *, unsigned int, std::vector<float, std::allocator<float> > >:__assignable <- 1
	add	r2, sp, #8
.Ltmp121:
	@DEBUG_VALUE: __uninitialized_fill_n_a<std::vector<float, std::allocator<float> > *, unsigned int, std::vector<float, std::allocator<float> >, std::vector<float, std::allocator<float> > >:__first <- %R6
	@DEBUG_VALUE: uninitialized_fill_n<std::vector<float, std::allocator<float> > *, unsigned int, std::vector<float, std::allocator<float> > >:__first <- %R6
	@DEBUG_VALUE: uninitialized_fill_n<std::vector<float, std::allocator<float> > *, unsigned int, std::vector<float, std::allocator<float> > >:__x <- %R2
	@DEBUG_VALUE: uninitialized_fill_n<std::vector<float, std::allocator<float> > *, unsigned int, std::vector<float, std::allocator<float> > >:__n <- 3
	@DEBUG_VALUE: __uninitialized_fill_n_a<std::vector<float, std::allocator<float> > *, unsigned int, std::vector<float, std::allocator<float> >, std::vector<float, std::allocator<float> > >:__n <- 3
	@DEBUG_VALUE: _M_fill_initialize:__n <- 3
	mov	r0, r6
	mov	r1, #3
	bl	_ZNSt22__uninitialized_fill_nILb0EE15__uninit_fill_nIPSt6vectorIfSaIfEEjS4_EET_S6_T0_RKT1_
.Ltmp122:
.Ltmp9:
.Ltmp123:
@ BB#25:
	@DEBUG_VALUE: uninitialized_fill_n<std::vector<float, std::allocator<float> > *, unsigned int, std::vector<float, std::allocator<float> > >:__first <- %R6
	@DEBUG_VALUE: __uninitialized_fill_n_a<std::vector<float, std::allocator<float> > *, unsigned int, std::vector<float, std::allocator<float> >, std::vector<float, std::allocator<float> > >:__first <- %R6
	@DEBUG_VALUE: __niter <- %R7
	@DEBUG_VALUE: __fill_n_a<float *, unsigned int, float>:__n <- %R7
	@DEBUG_VALUE: fill_n<float *, unsigned int, float>:__n <- %R7
	@DEBUG_VALUE: __uninit_fill_n<float *, unsigned int, float>:__n <- %R7
	@DEBUG_VALUE: uninitialized_fill_n<float *, unsigned int, float>:__n <- %R7
	@DEBUG_VALUE: __uninitialized_fill_n_a<float *, unsigned int, float, float>:__n <- %R7
	@DEBUG_VALUE: _M_fill_initialize:__n <- %R7
	@DEBUG_VALUE: allocate:__n <- %R7
	@DEBUG_VALUE: allocate:__n <- %R7
	@DEBUG_VALUE: _M_allocate:__n <- %R7
	@DEBUG_VALUE: _M_create_storage:__n <- %R7
	@DEBUG_VALUE: _Vector_base:__n <- %R7
	@DEBUG_VALUE: vector:__n <- %R7
	@DEBUG_VALUE: operator=:__move_storage <- 1
	@DEBUG_VALUE: deallocate:__p <- %R5
	@DEBUG_VALUE: deallocate:__p <- %R5
	@DEBUG_VALUE: _M_deallocate:__p <- %R5
	@DEBUG_VALUE: __destroy<std::vector<float, std::allocator<float> > *>:__first <- %R5
	@DEBUG_VALUE: _Destroy<std::vector<float, std::allocator<float> > *>:__first <- %R5
	@DEBUG_VALUE: _Destroy<std::vector<float, std::allocator<float> > *, std::vector<float, std::allocator<float> > >:__first <- %R5
	@DEBUG_VALUE: __destroy<std::vector<float, std::allocator<float> > *>:__last <- %R7
	@DEBUG_VALUE: _Destroy<std::vector<float, std::allocator<float> > *>:__last <- %R7
	@DEBUG_VALUE: _Destroy<std::vector<float, std::allocator<float> > *, std::vector<float, std::allocator<float> > >:__last <- %R7
	.file	44 "/usr/bin/../lib/gcc/arm-linux-gnueabihf/6.3.0/../../../../include/c++/6.3.0/bits" "move.h"
	.loc	44 190 19               @ /usr/bin/../lib/gcc/arm-linux-gnueabihf/6.3.0/../../../../include/c++/6.3.0/bits/move.h:190:19
	ldr	r5, [r4, #172]
.Ltmp124:
	.loc	12 187 59               @ /usr/bin/../lib/gcc/arm-linux-gnueabihf/6.3.0/../../../../include/c++/6.3.0/bits/stl_vector.h:187:59
	add	r1, r6, #36
.Ltmp125:
	.loc	44 190 19               @ /usr/bin/../lib/gcc/arm-linux-gnueabihf/6.3.0/../../../../include/c++/6.3.0/bits/move.h:190:19
	ldr	r7, [r4, #176]
.Ltmp126:
	.loc	44 191 11               @ /usr/bin/../lib/gcc/arm-linux-gnueabihf/6.3.0/../../../../include/c++/6.3.0/bits/move.h:191:11
	str	r6, [r4, #172]
.Ltmp127:
	.loc	44 191 11 is_stmt 0     @ /usr/bin/../lib/gcc/arm-linux-gnueabihf/6.3.0/../../../../include/c++/6.3.0/bits/move.h:191:11
	str	r0, [r4, #176]
.Ltmp128:
	.file	45 "/usr/bin/../lib/gcc/arm-linux-gnueabihf/6.3.0/../../../../include/c++/6.3.0/bits" "stl_construct.h"
	.loc	45 102 4 is_stmt 1 discriminator 1 @ /usr/bin/../lib/gcc/arm-linux-gnueabihf/6.3.0/../../../../include/c++/6.3.0/bits/stl_construct.h:102:4
	cmp	r5, r7
.Ltmp129:
	.loc	44 191 11               @ /usr/bin/../lib/gcc/arm-linux-gnueabihf/6.3.0/../../../../include/c++/6.3.0/bits/move.h:191:11
	str	r1, [r4, #180]
	beq	.LBB0_30
.Ltmp130:
@ BB#26:                                @ %.lr.ph.i.i.i.i.i.i.preheader
	@DEBUG_VALUE: uninitialized_fill_n<std::vector<float, std::allocator<float> > *, unsigned int, std::vector<float, std::allocator<float> > >:__first <- %R6
	@DEBUG_VALUE: __uninitialized_fill_n_a<std::vector<float, std::allocator<float> > *, unsigned int, std::vector<float, std::allocator<float> >, std::vector<float, std::allocator<float> > >:__first <- %R6
	.loc	45 126 7                @ /usr/bin/../lib/gcc/arm-linux-gnueabihf/6.3.0/../../../../include/c++/6.3.0/bits/stl_construct.h:126:7
	mov	r6, r5
.Ltmp131:
.LBB0_27:                               @ %.lr.ph.i.i.i.i.i.i
                                        @ =>This Inner Loop Header: Depth=1
	@DEBUG_VALUE: __addressof<std::vector<float, std::allocator<float> > >:__r <- %R6
	.loc	12 160 37               @ /usr/bin/../lib/gcc/arm-linux-gnueabihf/6.3.0/../../../../include/c++/6.3.0/bits/stl_vector.h:160:37
	ldr	r0, [r6]
.Ltmp132:
	@DEBUG_VALUE: _M_deallocate:__p <- %R0
	@DEBUG_VALUE: deallocate:__p <- %R0
	@DEBUG_VALUE: deallocate:__p <- %R0
	.loc	12 177 6                @ /usr/bin/../lib/gcc/arm-linux-gnueabihf/6.3.0/../../../../include/c++/6.3.0/bits/stl_vector.h:177:6
	cmp	r0, #0
	beq	.LBB0_29
.Ltmp133:
@ BB#28:                                @   in Loop: Header=BB0_27 Depth=1
	@DEBUG_VALUE: deallocate:__p <- %R0
	@DEBUG_VALUE: deallocate:__p <- %R0
	@DEBUG_VALUE: _M_deallocate:__p <- %R0
	@DEBUG_VALUE: __addressof<std::vector<float, std::allocator<float> > >:__r <- %R6
	.loc	8 110 9                 @ /usr/bin/../lib/gcc/arm-linux-gnueabihf/6.3.0/../../../../include/c++/6.3.0/ext/new_allocator.h:110:9
	bl	_ZdlPv
.Ltmp134:
.LBB0_29:                               @ %_ZSt8_DestroyISt6vectorIfSaIfEEEvPT_.exit.i.i.i.i.i.i
                                        @   in Loop: Header=BB0_27 Depth=1
	@DEBUG_VALUE: __addressof<std::vector<float, std::allocator<float> > >:__r <- %R6
	.loc	45 102 30 discriminator 2 @ /usr/bin/../lib/gcc/arm-linux-gnueabihf/6.3.0/../../../../include/c++/6.3.0/bits/stl_construct.h:102:30
	add	r6, r6, #12
.Ltmp135:
	@DEBUG_VALUE: __destroy<std::vector<float, std::allocator<float> > *>:__first <- %R6
	.loc	45 102 4 is_stmt 0 discriminator 1 @ /usr/bin/../lib/gcc/arm-linux-gnueabihf/6.3.0/../../../../include/c++/6.3.0/bits/stl_construct.h:102:4
	cmp	r7, r6
	bne	.LBB0_27
.Ltmp136:
.LBB0_30:                               @ %_ZSt8_DestroyIPSt6vectorIfSaIfEES2_EvT_S4_RSaIT0_E.exit.i.i.i
	.loc	12 177 6 is_stmt 1      @ /usr/bin/../lib/gcc/arm-linux-gnueabihf/6.3.0/../../../../include/c++/6.3.0/bits/stl_vector.h:177:6
	cmp	r5, #0
	beq	.LBB0_32
@ BB#31:
.Ltmp137:
	.loc	8 110 9                 @ /usr/bin/../lib/gcc/arm-linux-gnueabihf/6.3.0/../../../../include/c++/6.3.0/ext/new_allocator.h:110:9
	mov	r0, r5
	bl	_ZdlPv
.Ltmp138:
.LBB0_32:                               @ %_ZNSt6vectorIS_IfSaIfEESaIS1_EED2Ev.exit
	.loc	12 160 37               @ /usr/bin/../lib/gcc/arm-linux-gnueabihf/6.3.0/../../../../include/c++/6.3.0/bits/stl_vector.h:160:37
	ldr	r0, [sp, #8]
.Ltmp139:
	@DEBUG_VALUE: _M_deallocate:__p <- %R0
	@DEBUG_VALUE: deallocate:__p <- %R0
	@DEBUG_VALUE: deallocate:__p <- %R0
	.loc	12 177 6                @ /usr/bin/../lib/gcc/arm-linux-gnueabihf/6.3.0/../../../../include/c++/6.3.0/bits/stl_vector.h:177:6
	cmp	r0, #0
	beq	.LBB0_34
.Ltmp140:
@ BB#33:
	@DEBUG_VALUE: deallocate:__p <- %R0
	@DEBUG_VALUE: deallocate:__p <- %R0
	@DEBUG_VALUE: _M_deallocate:__p <- %R0
	.loc	8 110 9                 @ /usr/bin/../lib/gcc/arm-linux-gnueabihf/6.3.0/../../../../include/c++/6.3.0/ext/new_allocator.h:110:9
	bl	_ZdlPv
.Ltmp141:
.LBB0_34:                               @ %_ZNSt6vectorIfSaIfEED2Ev.exit57
	.loc	40 70 60                @ /root/Bela/projects/NIEMO/dsp/DynamicStiffString.cpp:70:60
	ldr	r6, [r4, #132]
	mov	r5, #0
.Ltmp142:
	.loc	12 91 25                @ /usr/bin/../lib/gcc/arm-linux-gnueabihf/6.3.0/../../../../include/c++/6.3.0/bits/stl_vector.h:91:25
	str	r5, [sp, #8]
.Ltmp143:
	.loc	40 70 62                @ /root/Bela/projects/NIEMO/dsp/DynamicStiffString.cpp:70:62
	adds	r7, r6, #1
.Ltmp144:
	@DEBUG_VALUE: vector:__n <- %R7
	@DEBUG_VALUE: _Vector_base:__n <- %R7
	@DEBUG_VALUE: _M_create_storage:__n <- %R7
	@DEBUG_VALUE: _M_allocate:__n <- %R7
	@DEBUG_VALUE: allocate:__n <- %R7
	@DEBUG_VALUE: allocate:__n <- %R7
	@DEBUG_VALUE: _M_fill_initialize:__n <- %R7
	@DEBUG_VALUE: __uninitialized_fill_n_a<float *, unsigned int, float, float>:__n <- %R7
	@DEBUG_VALUE: uninitialized_fill_n<float *, unsigned int, float>:__n <- %R7
	@DEBUG_VALUE: __uninit_fill_n<float *, unsigned int, float>:__n <- %R7
	@DEBUG_VALUE: fill_n<float *, unsigned int, float>:__n <- %R7
	@DEBUG_VALUE: __fill_n_a<float *, unsigned int, float>:__n <- %R7
	@DEBUG_VALUE: __niter <- %R7
	.loc	12 91 37                @ /usr/bin/../lib/gcc/arm-linux-gnueabihf/6.3.0/../../../../include/c++/6.3.0/bits/stl_vector.h:91:37
	str	r5, [sp, #12]
	.loc	12 91 50 is_stmt 0      @ /usr/bin/../lib/gcc/arm-linux-gnueabihf/6.3.0/../../../../include/c++/6.3.0/bits/stl_vector.h:91:50
	str	r5, [sp, #16]
	beq	.LBB0_38
.Ltmp145:
@ BB#35:
	@DEBUG_VALUE: __niter <- %R7
	@DEBUG_VALUE: __fill_n_a<float *, unsigned int, float>:__n <- %R7
	@DEBUG_VALUE: fill_n<float *, unsigned int, float>:__n <- %R7
	@DEBUG_VALUE: __uninit_fill_n<float *, unsigned int, float>:__n <- %R7
	@DEBUG_VALUE: uninitialized_fill_n<float *, unsigned int, float>:__n <- %R7
	@DEBUG_VALUE: __uninitialized_fill_n_a<float *, unsigned int, float, float>:__n <- %R7
	@DEBUG_VALUE: _M_fill_initialize:__n <- %R7
	@DEBUG_VALUE: allocate:__n <- %R7
	@DEBUG_VALUE: allocate:__n <- %R7
	@DEBUG_VALUE: _M_allocate:__n <- %R7
	@DEBUG_VALUE: _M_create_storage:__n <- %R7
	@DEBUG_VALUE: _Vector_base:__n <- %R7
	@DEBUG_VALUE: vector:__n <- %R7
	.loc	8 101 6 is_stmt 1       @ /usr/bin/../lib/gcc/arm-linux-gnueabihf/6.3.0/../../../../include/c++/6.3.0/ext/new_allocator.h:101:6
	cmp	r7, #1073741824
	bhs	.LBB0_62
.Ltmp146:
@ BB#36:                                @ %.lr.ph.i.i.i.i.i.i.preheader.i60
	@DEBUG_VALUE: __niter <- %R7
	@DEBUG_VALUE: __fill_n_a<float *, unsigned int, float>:__n <- %R7
	@DEBUG_VALUE: fill_n<float *, unsigned int, float>:__n <- %R7
	@DEBUG_VALUE: __uninit_fill_n<float *, unsigned int, float>:__n <- %R7
	@DEBUG_VALUE: uninitialized_fill_n<float *, unsigned int, float>:__n <- %R7
	@DEBUG_VALUE: __uninitialized_fill_n_a<float *, unsigned int, float, float>:__n <- %R7
	@DEBUG_VALUE: _M_fill_initialize:__n <- %R7
	@DEBUG_VALUE: allocate:__n <- %R7
	@DEBUG_VALUE: allocate:__n <- %R7
	@DEBUG_VALUE: _M_allocate:__n <- %R7
	@DEBUG_VALUE: _M_create_storage:__n <- %R7
	@DEBUG_VALUE: _Vector_base:__n <- %R7
	@DEBUG_VALUE: vector:__n <- %R7
	.loc	8 104 27                @ /usr/bin/../lib/gcc/arm-linux-gnueabihf/6.3.0/../../../../include/c++/6.3.0/ext/new_allocator.h:104:27
.Ltmp11:
	.loc	8 104 46 is_stmt 0      @ /usr/bin/../lib/gcc/arm-linux-gnueabihf/6.3.0/../../../../include/c++/6.3.0/ext/new_allocator.h:104:46
	lsl	r0, r7, #2
	.loc	8 104 27                @ /usr/bin/../lib/gcc/arm-linux-gnueabihf/6.3.0/../../../../include/c++/6.3.0/ext/new_allocator.h:104:27
	bl	_Znwj
	mov	r5, r0
.Ltmp12:
.Ltmp147:
@ BB#37:                                @ %.noexc66
	@DEBUG_VALUE: __niter <- %R7
	@DEBUG_VALUE: __fill_n_a<float *, unsigned int, float>:__n <- %R7
	@DEBUG_VALUE: fill_n<float *, unsigned int, float>:__n <- %R7
	@DEBUG_VALUE: __uninit_fill_n<float *, unsigned int, float>:__n <- %R7
	@DEBUG_VALUE: uninitialized_fill_n<float *, unsigned int, float>:__n <- %R7
	@DEBUG_VALUE: __uninitialized_fill_n_a<float *, unsigned int, float, float>:__n <- %R7
	@DEBUG_VALUE: _M_fill_initialize:__n <- %R7
	@DEBUG_VALUE: allocate:__n <- %R7
	@DEBUG_VALUE: allocate:__n <- %R7
	@DEBUG_VALUE: _M_allocate:__n <- %R7
	@DEBUG_VALUE: _M_create_storage:__n <- %R7
	@DEBUG_VALUE: _Vector_base:__n <- %R7
	@DEBUG_VALUE: vector:__n <- %R7
	@DEBUG_VALUE: __fill_n_a<float *, unsigned int, float>:__first <- %R5
	@DEBUG_VALUE: fill_n<float *, unsigned int, float>:__first <- %R5
	@DEBUG_VALUE: __uninit_fill_n<float *, unsigned int, float>:__first <- %R5
	@DEBUG_VALUE: uninitialized_fill_n<float *, unsigned int, float>:__first <- %R5
	@DEBUG_VALUE: __uninitialized_fill_n_a<float *, unsigned int, float, float>:__first <- %R5
	.loc	12 186 26 is_stmt 1     @ /usr/bin/../lib/gcc/arm-linux-gnueabihf/6.3.0/../../../../include/c++/6.3.0/bits/stl_vector.h:186:26
	mov	r0, #4
.Ltmp148:
	.loc	42 754 11               @ /usr/bin/../lib/gcc/arm-linux-gnueabihf/6.3.0/../../../../include/c++/6.3.0/bits/stl_algobase.h:754:11
	add	r2, r0, r6, lsl #2
	mov	r0, r5
	mov	r1, #0
.Ltmp149:
	.loc	12 185 25               @ /usr/bin/../lib/gcc/arm-linux-gnueabihf/6.3.0/../../../../include/c++/6.3.0/bits/stl_vector.h:185:25
	str	r5, [sp, #8]
	.loc	12 187 59               @ /usr/bin/../lib/gcc/arm-linux-gnueabihf/6.3.0/../../../../include/c++/6.3.0/bits/stl_vector.h:187:59
	add	r7, r5, r7, lsl #2
.Ltmp150:
	@DEBUG_VALUE: uninitialized_fill_n<float *, unsigned int, float>:__assignable <- 1
	.loc	12 186 26               @ /usr/bin/../lib/gcc/arm-linux-gnueabihf/6.3.0/../../../../include/c++/6.3.0/bits/stl_vector.h:186:26
	str	r5, [sp, #12]
	.loc	12 187 34               @ /usr/bin/../lib/gcc/arm-linux-gnueabihf/6.3.0/../../../../include/c++/6.3.0/bits/stl_vector.h:187:34
	str	r7, [sp, #16]
.Ltmp151:
	.loc	42 754 11               @ /usr/bin/../lib/gcc/arm-linux-gnueabihf/6.3.0/../../../../include/c++/6.3.0/bits/stl_algobase.h:754:11
	bl	memset
	b	.LBB0_39
.Ltmp152:
.LBB0_38:                               @ %_ZNSt12_Vector_baseIfSaIfEEC2EjRKS0_.exit.thread.i58
	@DEBUG_VALUE: __niter <- %R7
	@DEBUG_VALUE: __fill_n_a<float *, unsigned int, float>:__n <- %R7
	@DEBUG_VALUE: fill_n<float *, unsigned int, float>:__n <- %R7
	@DEBUG_VALUE: __uninit_fill_n<float *, unsigned int, float>:__n <- %R7
	@DEBUG_VALUE: uninitialized_fill_n<float *, unsigned int, float>:__n <- %R7
	@DEBUG_VALUE: __uninitialized_fill_n_a<float *, unsigned int, float, float>:__n <- %R7
	@DEBUG_VALUE: _M_fill_initialize:__n <- %R7
	@DEBUG_VALUE: allocate:__n <- %R7
	@DEBUG_VALUE: allocate:__n <- %R7
	@DEBUG_VALUE: _M_allocate:__n <- %R7
	@DEBUG_VALUE: _M_create_storage:__n <- %R7
	@DEBUG_VALUE: _Vector_base:__n <- %R7
	@DEBUG_VALUE: vector:__n <- %R7
	.loc	12 185 25               @ /usr/bin/../lib/gcc/arm-linux-gnueabihf/6.3.0/../../../../include/c++/6.3.0/bits/stl_vector.h:185:25
	str	r5, [sp, #8]
.Ltmp153:
	.loc	42 789 18 discriminator 1 @ /usr/bin/../lib/gcc/arm-linux-gnueabihf/6.3.0/../../../../include/c++/6.3.0/bits/stl_algobase.h:789:18
	mov	r7, #0
.Ltmp154:
	.loc	12 186 26               @ /usr/bin/../lib/gcc/arm-linux-gnueabihf/6.3.0/../../../../include/c++/6.3.0/bits/stl_vector.h:186:26
	str	r5, [sp, #12]
	@DEBUG_VALUE: uninitialized_fill_n<float *, unsigned int, float>:__assignable <- 1
	.loc	12 187 34               @ /usr/bin/../lib/gcc/arm-linux-gnueabihf/6.3.0/../../../../include/c++/6.3.0/bits/stl_vector.h:187:34
	str	r5, [sp, #16]
.Ltmp155:
.LBB0_39:                               @ %.loopexit
	@DEBUG_VALUE: vector:__n <- 3
	@DEBUG_VALUE: _Vector_base:__n <- 3
	@DEBUG_VALUE: _M_create_storage:__n <- 3
	@DEBUG_VALUE: _M_allocate:__n <- 3
	@DEBUG_VALUE: allocate:__n <- 3
	@DEBUG_VALUE: allocate:__n <- 3
	.loc	12 1298 26              @ /usr/bin/../lib/gcc/arm-linux-gnueabihf/6.3.0/../../../../include/c++/6.3.0/bits/stl_vector.h:1298:26
	str	r7, [sp, #12]
.Ltmp156:
	.loc	8 104 27                @ /usr/bin/../lib/gcc/arm-linux-gnueabihf/6.3.0/../../../../include/c++/6.3.0/ext/new_allocator.h:104:27
.Ltmp16:
	mov	r0, #36
	bl	_Znwj
	mov	r6, r0
.Ltmp17:
.Ltmp157:
@ BB#40:                                @ %.noexc69
	.loc	43 246 14               @ /usr/bin/../lib/gcc/arm-linux-gnueabihf/6.3.0/../../../../include/c++/6.3.0/bits/stl_uninitialized.h:246:14
.Ltmp19:
.Ltmp158:
	@DEBUG_VALUE: uninitialized_fill_n<std::vector<float, std::allocator<float> > *, unsigned int, std::vector<float, std::allocator<float> > >:__assignable <- 1
	add	r2, sp, #8
.Ltmp159:
	@DEBUG_VALUE: __uninitialized_fill_n_a<std::vector<float, std::allocator<float> > *, unsigned int, std::vector<float, std::allocator<float> >, std::vector<float, std::allocator<float> > >:__first <- %R6
	@DEBUG_VALUE: uninitialized_fill_n<std::vector<float, std::allocator<float> > *, unsigned int, std::vector<float, std::allocator<float> > >:__first <- %R6
	@DEBUG_VALUE: uninitialized_fill_n<std::vector<float, std::allocator<float> > *, unsigned int, std::vector<float, std::allocator<float> > >:__x <- %R2
	@DEBUG_VALUE: uninitialized_fill_n<std::vector<float, std::allocator<float> > *, unsigned int, std::vector<float, std::allocator<float> > >:__n <- 3
	@DEBUG_VALUE: __uninitialized_fill_n_a<std::vector<float, std::allocator<float> > *, unsigned int, std::vector<float, std::allocator<float> >, std::vector<float, std::allocator<float> > >:__n <- 3
	@DEBUG_VALUE: _M_fill_initialize:__n <- 3
	mov	r0, r6
	mov	r1, #3
	bl	_ZNSt22__uninitialized_fill_nILb0EE15__uninit_fill_nIPSt6vectorIfSaIfEEjS4_EET_S6_T0_RKT1_
.Ltmp160:
.Ltmp20:
.Ltmp161:
@ BB#41:
	@DEBUG_VALUE: uninitialized_fill_n<std::vector<float, std::allocator<float> > *, unsigned int, std::vector<float, std::allocator<float> > >:__first <- %R6
	@DEBUG_VALUE: __uninitialized_fill_n_a<std::vector<float, std::allocator<float> > *, unsigned int, std::vector<float, std::allocator<float> >, std::vector<float, std::allocator<float> > >:__first <- %R6
	@DEBUG_VALUE: operator=:__move_storage <- 1
	@DEBUG_VALUE: deallocate:__p <- %R5
	@DEBUG_VALUE: deallocate:__p <- %R5
	@DEBUG_VALUE: _M_deallocate:__p <- %R5
	@DEBUG_VALUE: __destroy<std::vector<float, std::allocator<float> > *>:__first <- %R5
	@DEBUG_VALUE: _Destroy<std::vector<float, std::allocator<float> > *>:__first <- %R5
	@DEBUG_VALUE: _Destroy<std::vector<float, std::allocator<float> > *, std::vector<float, std::allocator<float> > >:__first <- %R5
	@DEBUG_VALUE: __destroy<std::vector<float, std::allocator<float> > *>:__last <- %R7
	@DEBUG_VALUE: _Destroy<std::vector<float, std::allocator<float> > *>:__last <- %R7
	@DEBUG_VALUE: _Destroy<std::vector<float, std::allocator<float> > *, std::vector<float, std::allocator<float> > >:__last <- %R7
	.loc	44 190 19               @ /usr/bin/../lib/gcc/arm-linux-gnueabihf/6.3.0/../../../../include/c++/6.3.0/bits/move.h:190:19
	ldr	r5, [r4, #184]
.Ltmp162:
	.loc	12 187 59               @ /usr/bin/../lib/gcc/arm-linux-gnueabihf/6.3.0/../../../../include/c++/6.3.0/bits/stl_vector.h:187:59
	add	r1, r6, #36
.Ltmp163:
	.loc	44 190 19               @ /usr/bin/../lib/gcc/arm-linux-gnueabihf/6.3.0/../../../../include/c++/6.3.0/bits/move.h:190:19
	ldr	r7, [r4, #188]
.Ltmp164:
	.loc	44 191 11               @ /usr/bin/../lib/gcc/arm-linux-gnueabihf/6.3.0/../../../../include/c++/6.3.0/bits/move.h:191:11
	str	r6, [r4, #184]
.Ltmp165:
	.loc	44 191 11 is_stmt 0     @ /usr/bin/../lib/gcc/arm-linux-gnueabihf/6.3.0/../../../../include/c++/6.3.0/bits/move.h:191:11
	str	r0, [r4, #188]
.Ltmp166:
	.loc	45 102 4 is_stmt 1 discriminator 1 @ /usr/bin/../lib/gcc/arm-linux-gnueabihf/6.3.0/../../../../include/c++/6.3.0/bits/stl_construct.h:102:4
	cmp	r5, r7
.Ltmp167:
	.loc	44 191 11               @ /usr/bin/../lib/gcc/arm-linux-gnueabihf/6.3.0/../../../../include/c++/6.3.0/bits/move.h:191:11
	str	r1, [r4, #192]
	beq	.LBB0_46
.Ltmp168:
@ BB#42:                                @ %.lr.ph.i.i.i.i.i.i74.preheader
	@DEBUG_VALUE: uninitialized_fill_n<std::vector<float, std::allocator<float> > *, unsigned int, std::vector<float, std::allocator<float> > >:__first <- %R6
	@DEBUG_VALUE: __uninitialized_fill_n_a<std::vector<float, std::allocator<float> > *, unsigned int, std::vector<float, std::allocator<float> >, std::vector<float, std::allocator<float> > >:__first <- %R6
	.loc	45 126 7                @ /usr/bin/../lib/gcc/arm-linux-gnueabihf/6.3.0/../../../../include/c++/6.3.0/bits/stl_construct.h:126:7
	mov	r6, r5
.Ltmp169:
.LBB0_43:                               @ %.lr.ph.i.i.i.i.i.i74
                                        @ =>This Inner Loop Header: Depth=1
	@DEBUG_VALUE: __addressof<std::vector<float, std::allocator<float> > >:__r <- %R6
	.loc	12 160 37               @ /usr/bin/../lib/gcc/arm-linux-gnueabihf/6.3.0/../../../../include/c++/6.3.0/bits/stl_vector.h:160:37
	ldr	r0, [r6]
.Ltmp170:
	@DEBUG_VALUE: _M_deallocate:__p <- %R0
	@DEBUG_VALUE: deallocate:__p <- %R0
	@DEBUG_VALUE: deallocate:__p <- %R0
	.loc	12 177 6                @ /usr/bin/../lib/gcc/arm-linux-gnueabihf/6.3.0/../../../../include/c++/6.3.0/bits/stl_vector.h:177:6
	cmp	r0, #0
	beq	.LBB0_45
.Ltmp171:
@ BB#44:                                @   in Loop: Header=BB0_43 Depth=1
	@DEBUG_VALUE: deallocate:__p <- %R0
	@DEBUG_VALUE: deallocate:__p <- %R0
	@DEBUG_VALUE: _M_deallocate:__p <- %R0
	@DEBUG_VALUE: __addressof<std::vector<float, std::allocator<float> > >:__r <- %R6
	.loc	8 110 9                 @ /usr/bin/../lib/gcc/arm-linux-gnueabihf/6.3.0/../../../../include/c++/6.3.0/ext/new_allocator.h:110:9
	bl	_ZdlPv
.Ltmp172:
.LBB0_45:                               @ %_ZSt8_DestroyISt6vectorIfSaIfEEEvPT_.exit.i.i.i.i.i.i75
                                        @   in Loop: Header=BB0_43 Depth=1
	@DEBUG_VALUE: __addressof<std::vector<float, std::allocator<float> > >:__r <- %R6
	.loc	45 102 30 discriminator 2 @ /usr/bin/../lib/gcc/arm-linux-gnueabihf/6.3.0/../../../../include/c++/6.3.0/bits/stl_construct.h:102:30
	add	r6, r6, #12
.Ltmp173:
	@DEBUG_VALUE: __destroy<std::vector<float, std::allocator<float> > *>:__first <- %R6
	.loc	45 102 4 is_stmt 0 discriminator 1 @ /usr/bin/../lib/gcc/arm-linux-gnueabihf/6.3.0/../../../../include/c++/6.3.0/bits/stl_construct.h:102:4
	cmp	r7, r6
	bne	.LBB0_43
.Ltmp174:
.LBB0_46:                               @ %_ZSt8_DestroyIPSt6vectorIfSaIfEES2_EvT_S4_RSaIT0_E.exit.i.i.i76
	.loc	12 177 6 is_stmt 1      @ /usr/bin/../lib/gcc/arm-linux-gnueabihf/6.3.0/../../../../include/c++/6.3.0/bits/stl_vector.h:177:6
	cmp	r5, #0
	beq	.LBB0_48
@ BB#47:
.Ltmp175:
	.loc	8 110 9                 @ /usr/bin/../lib/gcc/arm-linux-gnueabihf/6.3.0/../../../../include/c++/6.3.0/ext/new_allocator.h:110:9
	mov	r0, r5
	bl	_ZdlPv
.Ltmp176:
.LBB0_48:                               @ %_ZNSt6vectorIS_IfSaIfEESaIS1_EED2Ev.exit85
	.loc	12 160 37               @ /usr/bin/../lib/gcc/arm-linux-gnueabihf/6.3.0/../../../../include/c++/6.3.0/bits/stl_vector.h:160:37
	ldr	r0, [sp, #8]
.Ltmp177:
	@DEBUG_VALUE: _M_deallocate:__p <- %R0
	@DEBUG_VALUE: deallocate:__p <- %R0
	@DEBUG_VALUE: deallocate:__p <- %R0
	.loc	12 177 6                @ /usr/bin/../lib/gcc/arm-linux-gnueabihf/6.3.0/../../../../include/c++/6.3.0/bits/stl_vector.h:177:6
	cmp	r0, #0
	beq	.LBB0_50
.Ltmp178:
@ BB#49:
	@DEBUG_VALUE: deallocate:__p <- %R0
	@DEBUG_VALUE: deallocate:__p <- %R0
	@DEBUG_VALUE: _M_deallocate:__p <- %R0
	.loc	8 110 9                 @ /usr/bin/../lib/gcc/arm-linux-gnueabihf/6.3.0/../../../../include/c++/6.3.0/ext/new_allocator.h:110:9
	bl	_ZdlPv
.Ltmp179:
.LBB0_50:                               @ %_ZNSt6vectorIfSaIfEED2Ev.exit86
	mov	r0, #0
	.loc	40 81 18                @ /root/Bela/projects/NIEMO/dsp/DynamicStiffString.cpp:81:18
	str	r0, [sp, #8]
.Ltmp180:
	.loc	12 656 66               @ /usr/bin/../lib/gcc/arm-linux-gnueabihf/6.3.0/../../../../include/c++/6.3.0/bits/stl_vector.h:656:66
	mov	r0, r4
	ldr	r2, [r0, #196]!
.Ltmp181:
	@DEBUG_VALUE: resize:__new_size <- 3
	.loc	12 656 40 is_stmt 0     @ /usr/bin/../lib/gcc/arm-linux-gnueabihf/6.3.0/../../../../include/c++/6.3.0/bits/stl_vector.h:656:40
	ldr	r1, [r0, #4]
	.loc	12 656 50               @ /usr/bin/../lib/gcc/arm-linux-gnueabihf/6.3.0/../../../../include/c++/6.3.0/bits/stl_vector.h:656:50
	sub	r3, r1, r2
	asr	r3, r3, #2
.Ltmp182:
	.loc	12 696 6 is_stmt 1      @ /usr/bin/../lib/gcc/arm-linux-gnueabihf/6.3.0/../../../../include/c++/6.3.0/bits/stl_vector.h:696:6
	cmp	r3, #2
.Ltmp183:
	@DEBUG_VALUE: resize:this <- %R0
	@DEBUG_VALUE: size:this <- %R0
	@DEBUG_VALUE: size:this <- %R0
	@DEBUG_VALUE: insert:this <- %R0
	@DEBUG_VALUE: _M_erase_at_end:this <- %R0
	@DEBUG_VALUE: operator[]:this <- %R0
	bhi	.LBB0_52
.Ltmp184:
@ BB#51:
	@DEBUG_VALUE: operator[]:this <- %R0
	@DEBUG_VALUE: _M_erase_at_end:this <- %R0
	@DEBUG_VALUE: insert:this <- %R0
	@DEBUG_VALUE: size:this <- %R0
	@DEBUG_VALUE: size:this <- %R0
	@DEBUG_VALUE: resize:this <- %R0
	.loc	12 697 29               @ /usr/bin/../lib/gcc/arm-linux-gnueabihf/6.3.0/../../../../include/c++/6.3.0/bits/stl_vector.h:697:29
	rsb	r2, r3, #3
.Ltmp185:
	@DEBUG_VALUE: insert:__n <- %R2
	add	r3, sp, #8
.Ltmp186:
	@DEBUG_VALUE: insert:__x <- %R3
	.loc	12 1055 2 discriminator 2 @ /usr/bin/../lib/gcc/arm-linux-gnueabihf/6.3.0/../../../../include/c++/6.3.0/bits/stl_vector.h:1055:2
	bl	_ZNSt6vectorIPfSaIS0_EE14_M_fill_insertEN9__gnu_cxx17__normal_iteratorIPS0_S2_EEjRKS0_
.Ltmp187:
	b	.LBB0_53
.Ltmp188:
.LBB0_52:
	@DEBUG_VALUE: operator[]:this <- %R0
	@DEBUG_VALUE: _M_erase_at_end:this <- %R0
	@DEBUG_VALUE: insert:this <- %R0
	@DEBUG_VALUE: size:this <- %R0
	@DEBUG_VALUE: size:this <- %R0
	@DEBUG_VALUE: resize:this <- %R0
	.loc	12 698 11               @ /usr/bin/../lib/gcc/arm-linux-gnueabihf/6.3.0/../../../../include/c++/6.3.0/bits/stl_vector.h:698:11
	cmp	r3, #3
.Ltmp189:
	.loc	12 699 43               @ /usr/bin/../lib/gcc/arm-linux-gnueabihf/6.3.0/../../../../include/c++/6.3.0/bits/stl_vector.h:699:43
	addne	r0, r2, #12
.Ltmp190:
	@DEBUG_VALUE: _M_erase_at_end:__pos <- %R0
	.loc	12 1437 26              @ /usr/bin/../lib/gcc/arm-linux-gnueabihf/6.3.0/../../../../include/c++/6.3.0/bits/stl_vector.h:1437:26
	strne	r0, [r4, #200]
.Ltmp191:
.LBB0_53:                               @ %_ZNSt6vectorIPfSaIS0_EE6resizeEjRKS0_.exit88
	mov	r0, #0
	.loc	40 82 18                @ /root/Bela/projects/NIEMO/dsp/DynamicStiffString.cpp:82:18
	str	r0, [sp, #8]
.Ltmp192:
	.loc	12 656 66               @ /usr/bin/../lib/gcc/arm-linux-gnueabihf/6.3.0/../../../../include/c++/6.3.0/bits/stl_vector.h:656:66
	mov	r0, r4
	ldr	r2, [r0, #208]!
.Ltmp193:
	@DEBUG_VALUE: resize:__new_size <- 3
	.loc	12 656 40 is_stmt 0     @ /usr/bin/../lib/gcc/arm-linux-gnueabihf/6.3.0/../../../../include/c++/6.3.0/bits/stl_vector.h:656:40
	ldr	r1, [r0, #4]
	.loc	12 656 50               @ /usr/bin/../lib/gcc/arm-linux-gnueabihf/6.3.0/../../../../include/c++/6.3.0/bits/stl_vector.h:656:50
	sub	r3, r1, r2
	asr	r3, r3, #2
.Ltmp194:
	.loc	12 696 6 is_stmt 1      @ /usr/bin/../lib/gcc/arm-linux-gnueabihf/6.3.0/../../../../include/c++/6.3.0/bits/stl_vector.h:696:6
	cmp	r3, #2
.Ltmp195:
	@DEBUG_VALUE: resize:this <- %R0
	@DEBUG_VALUE: size:this <- %R0
	@DEBUG_VALUE: size:this <- %R0
	@DEBUG_VALUE: insert:this <- %R0
	@DEBUG_VALUE: _M_erase_at_end:this <- %R0
	@DEBUG_VALUE: operator[]:this <- %R0
	bhi	.LBB0_55
.Ltmp196:
@ BB#54:
	@DEBUG_VALUE: operator[]:this <- %R0
	@DEBUG_VALUE: _M_erase_at_end:this <- %R0
	@DEBUG_VALUE: insert:this <- %R0
	@DEBUG_VALUE: size:this <- %R0
	@DEBUG_VALUE: size:this <- %R0
	@DEBUG_VALUE: resize:this <- %R0
	.loc	12 697 29               @ /usr/bin/../lib/gcc/arm-linux-gnueabihf/6.3.0/../../../../include/c++/6.3.0/bits/stl_vector.h:697:29
	rsb	r2, r3, #3
.Ltmp197:
	@DEBUG_VALUE: insert:__n <- %R2
	add	r3, sp, #8
.Ltmp198:
	@DEBUG_VALUE: insert:__x <- %R3
	.loc	12 1055 2 discriminator 2 @ /usr/bin/../lib/gcc/arm-linux-gnueabihf/6.3.0/../../../../include/c++/6.3.0/bits/stl_vector.h:1055:2
	bl	_ZNSt6vectorIPfSaIS0_EE14_M_fill_insertEN9__gnu_cxx17__normal_iteratorIPS0_S2_EEjRKS0_
.Ltmp199:
	b	.LBB0_56
.Ltmp200:
.LBB0_55:
	@DEBUG_VALUE: operator[]:this <- %R0
	@DEBUG_VALUE: _M_erase_at_end:this <- %R0
	@DEBUG_VALUE: insert:this <- %R0
	@DEBUG_VALUE: size:this <- %R0
	@DEBUG_VALUE: size:this <- %R0
	@DEBUG_VALUE: resize:this <- %R0
	.loc	12 698 11               @ /usr/bin/../lib/gcc/arm-linux-gnueabihf/6.3.0/../../../../include/c++/6.3.0/bits/stl_vector.h:698:11
	cmp	r3, #3
.Ltmp201:
	.loc	12 699 43               @ /usr/bin/../lib/gcc/arm-linux-gnueabihf/6.3.0/../../../../include/c++/6.3.0/bits/stl_vector.h:699:43
	addne	r0, r2, #12
.Ltmp202:
	@DEBUG_VALUE: _M_erase_at_end:__pos <- %R0
	.loc	12 1437 26              @ /usr/bin/../lib/gcc/arm-linux-gnueabihf/6.3.0/../../../../include/c++/6.3.0/bits/stl_vector.h:1437:26
	strne	r0, [r4, #212]
.Ltmp203:
.LBB0_56:                               @ %_ZNSt6vectorIPfSaIS0_EE6resizeEjRKS0_.exit
	@DEBUG_VALUE: i <- 0
	@DEBUG_VALUE: operator[]:__n <- 0
	.loc	12 781 32               @ /usr/bin/../lib/gcc/arm-linux-gnueabihf/6.3.0/../../../../include/c++/6.3.0/bits/stl_vector.h:781:32
	ldr	r0, [r4, #172]
.Ltmp204:
	@DEBUG_VALUE: operator[]:__n <- 0
	.loc	12 781 32 is_stmt 0     @ /usr/bin/../lib/gcc/arm-linux-gnueabihf/6.3.0/../../../../include/c++/6.3.0/bits/stl_vector.h:781:32
	ldr	r1, [r4, #196]
.Ltmp205:
	@DEBUG_VALUE: operator[]:__n <- 0
	.loc	12 781 32               @ /usr/bin/../lib/gcc/arm-linux-gnueabihf/6.3.0/../../../../include/c++/6.3.0/bits/stl_vector.h:781:32
	ldr	r0, [r0]
.Ltmp206:
	.loc	40 87 14 is_stmt 1      @ /root/Bela/projects/NIEMO/dsp/DynamicStiffString.cpp:87:14
	str	r0, [r1]
.Ltmp207:
	@DEBUG_VALUE: operator[]:__n <- 0
	.loc	12 781 32               @ /usr/bin/../lib/gcc/arm-linux-gnueabihf/6.3.0/../../../../include/c++/6.3.0/bits/stl_vector.h:781:32
	ldr	r0, [r4, #184]
.Ltmp208:
	@DEBUG_VALUE: operator[]:__n <- 0
	.loc	12 781 32 is_stmt 0     @ /usr/bin/../lib/gcc/arm-linux-gnueabihf/6.3.0/../../../../include/c++/6.3.0/bits/stl_vector.h:781:32
	ldr	r1, [r4, #208]
.Ltmp209:
	@DEBUG_VALUE: operator[]:__n <- 0
	.loc	12 781 32               @ /usr/bin/../lib/gcc/arm-linux-gnueabihf/6.3.0/../../../../include/c++/6.3.0/bits/stl_vector.h:781:32
	ldr	r0, [r0]
.Ltmp210:
	.loc	40 88 14 is_stmt 1      @ /root/Bela/projects/NIEMO/dsp/DynamicStiffString.cpp:88:14
	str	r0, [r1]
.Ltmp211:
	@DEBUG_VALUE: i <- 1
	.loc	12 781 32               @ /usr/bin/../lib/gcc/arm-linux-gnueabihf/6.3.0/../../../../include/c++/6.3.0/bits/stl_vector.h:781:32
	ldr	r0, [r4, #172]
.Ltmp212:
	.loc	12 781 32 is_stmt 0     @ /usr/bin/../lib/gcc/arm-linux-gnueabihf/6.3.0/../../../../include/c++/6.3.0/bits/stl_vector.h:781:32
	ldr	r1, [r4, #196]
.Ltmp213:
	.loc	12 781 32               @ /usr/bin/../lib/gcc/arm-linux-gnueabihf/6.3.0/../../../../include/c++/6.3.0/bits/stl_vector.h:781:32
	ldr	r0, [r0, #12]
.Ltmp214:
	.loc	40 87 14 is_stmt 1      @ /root/Bela/projects/NIEMO/dsp/DynamicStiffString.cpp:87:14
	str	r0, [r1, #4]
.Ltmp215:
	.loc	12 781 32               @ /usr/bin/../lib/gcc/arm-linux-gnueabihf/6.3.0/../../../../include/c++/6.3.0/bits/stl_vector.h:781:32
	ldr	r0, [r4, #184]
.Ltmp216:
	.loc	12 781 32 is_stmt 0     @ /usr/bin/../lib/gcc/arm-linux-gnueabihf/6.3.0/../../../../include/c++/6.3.0/bits/stl_vector.h:781:32
	ldr	r1, [r4, #208]
.Ltmp217:
	.loc	12 781 32               @ /usr/bin/../lib/gcc/arm-linux-gnueabihf/6.3.0/../../../../include/c++/6.3.0/bits/stl_vector.h:781:32
	ldr	r0, [r0, #12]
.Ltmp218:
	.loc	40 88 14 is_stmt 1      @ /root/Bela/projects/NIEMO/dsp/DynamicStiffString.cpp:88:14
	str	r0, [r1, #4]
.Ltmp219:
	.loc	12 781 32               @ /usr/bin/../lib/gcc/arm-linux-gnueabihf/6.3.0/../../../../include/c++/6.3.0/bits/stl_vector.h:781:32
	ldr	r0, [r4, #172]
.Ltmp220:
	.loc	12 781 32 is_stmt 0     @ /usr/bin/../lib/gcc/arm-linux-gnueabihf/6.3.0/../../../../include/c++/6.3.0/bits/stl_vector.h:781:32
	ldr	r1, [r4, #196]
.Ltmp221:
	.loc	12 781 32               @ /usr/bin/../lib/gcc/arm-linux-gnueabihf/6.3.0/../../../../include/c++/6.3.0/bits/stl_vector.h:781:32
	ldr	r0, [r0, #24]
.Ltmp222:
	.loc	40 87 14 is_stmt 1      @ /root/Bela/projects/NIEMO/dsp/DynamicStiffString.cpp:87:14
	str	r0, [r1, #8]
.Ltmp223:
	.loc	12 781 32               @ /usr/bin/../lib/gcc/arm-linux-gnueabihf/6.3.0/../../../../include/c++/6.3.0/bits/stl_vector.h:781:32
	ldr	r0, [r4, #184]
.Ltmp224:
	.loc	12 781 32 is_stmt 0     @ /usr/bin/../lib/gcc/arm-linux-gnueabihf/6.3.0/../../../../include/c++/6.3.0/bits/stl_vector.h:781:32
	ldr	r1, [r4, #208]
.Ltmp225:
	.loc	12 781 32               @ /usr/bin/../lib/gcc/arm-linux-gnueabihf/6.3.0/../../../../include/c++/6.3.0/bits/stl_vector.h:781:32
	ldr	r0, [r0, #24]
.Ltmp226:
	.loc	40 88 14 is_stmt 1      @ /root/Bela/projects/NIEMO/dsp/DynamicStiffString.cpp:88:14
	str	r0, [r1, #8]
	mov	r0, #0
.Ltmp227:
	.loc	40 90 24                @ /root/Bela/projects/NIEMO/dsp/DynamicStiffString.cpp:90:24
	str	r0, [sp, #8]
.Ltmp228:
	.loc	12 656 66               @ /usr/bin/../lib/gcc/arm-linux-gnueabihf/6.3.0/../../../../include/c++/6.3.0/bits/stl_vector.h:656:66
	mov	r0, r4
	ldr	r2, [r0, #264]!
.Ltmp229:
	@DEBUG_VALUE: resize:__new_size <- 4
	.loc	12 656 40 is_stmt 0     @ /usr/bin/../lib/gcc/arm-linux-gnueabihf/6.3.0/../../../../include/c++/6.3.0/bits/stl_vector.h:656:40
	ldr	r1, [r0, #4]
	.loc	12 656 50               @ /usr/bin/../lib/gcc/arm-linux-gnueabihf/6.3.0/../../../../include/c++/6.3.0/bits/stl_vector.h:656:50
	sub	r3, r1, r2
	asr	r3, r3, #2
.Ltmp230:
	.loc	12 696 6 is_stmt 1      @ /usr/bin/../lib/gcc/arm-linux-gnueabihf/6.3.0/../../../../include/c++/6.3.0/bits/stl_vector.h:696:6
	cmp	r3, #3
.Ltmp231:
	@DEBUG_VALUE: resize:this <- %R0
	@DEBUG_VALUE: size:this <- %R0
	@DEBUG_VALUE: size:this <- %R0
	@DEBUG_VALUE: insert:this <- %R0
	@DEBUG_VALUE: _M_erase_at_end:this <- %R0
	bhi	.LBB0_58
.Ltmp232:
@ BB#57:
	@DEBUG_VALUE: _M_erase_at_end:this <- %R0
	@DEBUG_VALUE: insert:this <- %R0
	@DEBUG_VALUE: size:this <- %R0
	@DEBUG_VALUE: size:this <- %R0
	@DEBUG_VALUE: resize:this <- %R0
	.loc	12 697 29               @ /usr/bin/../lib/gcc/arm-linux-gnueabihf/6.3.0/../../../../include/c++/6.3.0/bits/stl_vector.h:697:29
	rsb	r2, r3, #4
.Ltmp233:
	@DEBUG_VALUE: insert:__n <- %R2
	add	r3, sp, #8
.Ltmp234:
	@DEBUG_VALUE: insert:__x <- %R3
	.loc	12 1055 2 discriminator 2 @ /usr/bin/../lib/gcc/arm-linux-gnueabihf/6.3.0/../../../../include/c++/6.3.0/bits/stl_vector.h:1055:2
	bl	_ZNSt6vectorIfSaIfEE14_M_fill_insertEN9__gnu_cxx17__normal_iteratorIPfS1_EEjRKf
.Ltmp235:
	b	.LBB0_59
.Ltmp236:
.LBB0_58:
	@DEBUG_VALUE: _M_erase_at_end:this <- %R0
	@DEBUG_VALUE: insert:this <- %R0
	@DEBUG_VALUE: size:this <- %R0
	@DEBUG_VALUE: size:this <- %R0
	@DEBUG_VALUE: resize:this <- %R0
	.loc	12 698 11               @ /usr/bin/../lib/gcc/arm-linux-gnueabihf/6.3.0/../../../../include/c++/6.3.0/bits/stl_vector.h:698:11
	cmp	r3, #4
.Ltmp237:
	.loc	12 699 43               @ /usr/bin/../lib/gcc/arm-linux-gnueabihf/6.3.0/../../../../include/c++/6.3.0/bits/stl_vector.h:699:43
	addne	r0, r2, #16
.Ltmp238:
	@DEBUG_VALUE: _M_erase_at_end:__pos <- %R0
	.loc	12 1437 26              @ /usr/bin/../lib/gcc/arm-linux-gnueabihf/6.3.0/../../../../include/c++/6.3.0/bits/stl_vector.h:1437:26
	strne	r0, [r4, #268]
.Ltmp239:
.LBB0_59:                               @ %_ZNSt6vectorIfSaIfEE6resizeEjRKf.exit53
	.loc	40 92 5                 @ /root/Bela/projects/NIEMO/dsp/DynamicStiffString.cpp:92:5
	mov	r0, r4
	mov	r1, #1
	bl	_ZN18DynamicStiffString19refreshCoefficientsEb
	.loc	40 94 13                @ /root/Bela/projects/NIEMO/dsp/DynamicStiffString.cpp:94:13
	ldr	r0, [r4, #116]
	.loc	40 94 11 is_stmt 0      @ /root/Bela/projects/NIEMO/dsp/DynamicStiffString.cpp:94:11
	str	r0, [r4, #124]
	.loc	40 95 17 is_stmt 1      @ /root/Bela/projects/NIEMO/dsp/DynamicStiffString.cpp:95:17
	ldr	r0, [r4, #136]
	.loc	40 95 15 is_stmt 0      @ /root/Bela/projects/NIEMO/dsp/DynamicStiffString.cpp:95:15
	str	r0, [r4, #140]
	.loc	40 96 1 is_stmt 1 discriminator 4 @ /root/Bela/projects/NIEMO/dsp/DynamicStiffString.cpp:96:1
	sub	sp, r11, #24
	pop	{r4, r5, r6, r7, r8, r9, r11, pc}
.LBB0_60:                               @ %.noexc.i.i
.Ltmp240:
	@DEBUG_VALUE: __niter <- %R7
	@DEBUG_VALUE: __fill_n_a<float *, unsigned int, float>:__n <- %R7
	@DEBUG_VALUE: fill_n<float *, unsigned int, float>:__n <- %R7
	@DEBUG_VALUE: __uninit_fill_n<float *, unsigned int, float>:__n <- %R7
	@DEBUG_VALUE: uninitialized_fill_n<float *, unsigned int, float>:__n <- %R7
	@DEBUG_VALUE: __uninitialized_fill_n_a<float *, unsigned int, float, float>:__n <- %R7
	@DEBUG_VALUE: _M_fill_initialize:__n <- %R7
	@DEBUG_VALUE: allocate:__n <- %R7
	@DEBUG_VALUE: allocate:__n <- %R7
	@DEBUG_VALUE: _M_allocate:__n <- %R7
	@DEBUG_VALUE: _M_create_storage:__n <- %R7
	@DEBUG_VALUE: _Vector_base:__n <- %R7
	@DEBUG_VALUE: vector:__n <- %R7
	@DEBUG_VALUE: prepareToPlay:MvMax <- %R0
	.loc	8 102 4                 @ /usr/bin/../lib/gcc/arm-linux-gnueabihf/6.3.0/../../../../include/c++/6.3.0/ext/new_allocator.h:102:4
.Ltmp2:
	mov	lr, pc
	b	_ZSt17__throw_bad_allocv
.Ltmp241:
.Ltmp3:
.Ltmp242:
@ BB#61:                                @ %.noexc
	@DEBUG_VALUE: __niter <- %R7
	@DEBUG_VALUE: __fill_n_a<float *, unsigned int, float>:__n <- %R7
	@DEBUG_VALUE: fill_n<float *, unsigned int, float>:__n <- %R7
	@DEBUG_VALUE: __uninit_fill_n<float *, unsigned int, float>:__n <- %R7
	@DEBUG_VALUE: uninitialized_fill_n<float *, unsigned int, float>:__n <- %R7
	@DEBUG_VALUE: __uninitialized_fill_n_a<float *, unsigned int, float, float>:__n <- %R7
	@DEBUG_VALUE: _M_fill_initialize:__n <- %R7
	@DEBUG_VALUE: allocate:__n <- %R7
	@DEBUG_VALUE: allocate:__n <- %R7
	@DEBUG_VALUE: _M_allocate:__n <- %R7
	@DEBUG_VALUE: _M_create_storage:__n <- %R7
	@DEBUG_VALUE: _Vector_base:__n <- %R7
	@DEBUG_VALUE: vector:__n <- %R7
.LBB0_62:                               @ %.noexc.i.i59
	@DEBUG_VALUE: __niter <- %R7
	@DEBUG_VALUE: __fill_n_a<float *, unsigned int, float>:__n <- %R7
	@DEBUG_VALUE: fill_n<float *, unsigned int, float>:__n <- %R7
	@DEBUG_VALUE: __uninit_fill_n<float *, unsigned int, float>:__n <- %R7
	@DEBUG_VALUE: uninitialized_fill_n<float *, unsigned int, float>:__n <- %R7
	@DEBUG_VALUE: __uninitialized_fill_n_a<float *, unsigned int, float, float>:__n <- %R7
	@DEBUG_VALUE: _M_fill_initialize:__n <- %R7
	@DEBUG_VALUE: allocate:__n <- %R7
	@DEBUG_VALUE: allocate:__n <- %R7
	@DEBUG_VALUE: _M_allocate:__n <- %R7
	@DEBUG_VALUE: _M_create_storage:__n <- %R7
	@DEBUG_VALUE: _Vector_base:__n <- %R7
	@DEBUG_VALUE: vector:__n <- %R7
	.loc	8 102 4 is_stmt 0       @ /usr/bin/../lib/gcc/arm-linux-gnueabihf/6.3.0/../../../../include/c++/6.3.0/ext/new_allocator.h:102:4
.Ltmp13:
	mov	lr, pc
	b	_ZSt17__throw_bad_allocv
.Ltmp14:
.Ltmp243:
@ BB#63:                                @ %.noexc65
	@DEBUG_VALUE: __niter <- %R7
	@DEBUG_VALUE: __fill_n_a<float *, unsigned int, float>:__n <- %R7
	@DEBUG_VALUE: fill_n<float *, unsigned int, float>:__n <- %R7
	@DEBUG_VALUE: __uninit_fill_n<float *, unsigned int, float>:__n <- %R7
	@DEBUG_VALUE: uninitialized_fill_n<float *, unsigned int, float>:__n <- %R7
	@DEBUG_VALUE: __uninitialized_fill_n_a<float *, unsigned int, float, float>:__n <- %R7
	@DEBUG_VALUE: _M_fill_initialize:__n <- %R7
	@DEBUG_VALUE: allocate:__n <- %R7
	@DEBUG_VALUE: allocate:__n <- %R7
	@DEBUG_VALUE: _M_allocate:__n <- %R7
	@DEBUG_VALUE: _M_create_storage:__n <- %R7
	@DEBUG_VALUE: _Vector_base:__n <- %R7
	@DEBUG_VALUE: vector:__n <- %R7
.LBB0_64:
	@DEBUG_VALUE: __niter <- %R7
	@DEBUG_VALUE: __fill_n_a<float *, unsigned int, float>:__n <- %R7
	@DEBUG_VALUE: fill_n<float *, unsigned int, float>:__n <- %R7
	@DEBUG_VALUE: __uninit_fill_n<float *, unsigned int, float>:__n <- %R7
	@DEBUG_VALUE: uninitialized_fill_n<float *, unsigned int, float>:__n <- %R7
	@DEBUG_VALUE: __uninitialized_fill_n_a<float *, unsigned int, float, float>:__n <- %R7
	@DEBUG_VALUE: _M_fill_initialize:__n <- %R7
	@DEBUG_VALUE: allocate:__n <- %R7
	@DEBUG_VALUE: allocate:__n <- %R7
	@DEBUG_VALUE: _M_allocate:__n <- %R7
	@DEBUG_VALUE: _M_create_storage:__n <- %R7
	@DEBUG_VALUE: _Vector_base:__n <- %R7
	@DEBUG_VALUE: vector:__n <- %R7
.Ltmp15:
	mov	lr, pc
	b	_Unwind_Resume
.Ltmp244:
.LBB0_65:
	@DEBUG_VALUE: __niter <- %R7
	@DEBUG_VALUE: __fill_n_a<float *, unsigned int, float>:__n <- %R7
	@DEBUG_VALUE: fill_n<float *, unsigned int, float>:__n <- %R7
	@DEBUG_VALUE: __uninit_fill_n<float *, unsigned int, float>:__n <- %R7
	@DEBUG_VALUE: uninitialized_fill_n<float *, unsigned int, float>:__n <- %R7
	@DEBUG_VALUE: __uninitialized_fill_n_a<float *, unsigned int, float, float>:__n <- %R7
	@DEBUG_VALUE: _M_fill_initialize:__n <- %R7
	@DEBUG_VALUE: allocate:__n <- %R7
	@DEBUG_VALUE: allocate:__n <- %R7
	@DEBUG_VALUE: _M_allocate:__n <- %R7
	@DEBUG_VALUE: _M_create_storage:__n <- %R7
	@DEBUG_VALUE: _Vector_base:__n <- %R7
	@DEBUG_VALUE: vector:__n <- %R7
.Ltmp4:
	mov	lr, pc
	b	_Unwind_Resume
.Ltmp245:
.LBB0_66:
	@DEBUG_VALUE: uninitialized_fill_n<std::vector<float, std::allocator<float> > *, unsigned int, std::vector<float, std::allocator<float> > >:__first <- %R6
	@DEBUG_VALUE: __uninitialized_fill_n_a<std::vector<float, std::allocator<float> > *, unsigned int, std::vector<float, std::allocator<float> >, std::vector<float, std::allocator<float> > >:__first <- %R6
.Ltmp21:
	mov	r4, r0
.Ltmp246:
	.loc	8 110 9 is_stmt 1       @ /usr/bin/../lib/gcc/arm-linux-gnueabihf/6.3.0/../../../../include/c++/6.3.0/ext/new_allocator.h:110:9
	mov	r0, r6
	bl	_ZdlPv
.Ltmp247:
	.loc	12 160 37               @ /usr/bin/../lib/gcc/arm-linux-gnueabihf/6.3.0/../../../../include/c++/6.3.0/bits/stl_vector.h:160:37
	ldr	r5, [sp, #8]
	b	.LBB0_68
.Ltmp248:
.LBB0_67:
.Ltmp18:
	mov	r4, r0
.LBB0_68:                               @ %.body70
.Ltmp249:
	@DEBUG_VALUE: _M_deallocate:__p <- %R5
	.loc	12 177 6                @ /usr/bin/../lib/gcc/arm-linux-gnueabihf/6.3.0/../../../../include/c++/6.3.0/bits/stl_vector.h:177:6
	cmp	r5, #0
	beq	.LBB0_74
.Ltmp250:
@ BB#69:
	@DEBUG_VALUE: _M_deallocate:__p <- %R5
	.loc	8 110 9                 @ /usr/bin/../lib/gcc/arm-linux-gnueabihf/6.3.0/../../../../include/c++/6.3.0/ext/new_allocator.h:110:9
	mov	r0, r5
	b	.LBB0_73
.Ltmp251:
.LBB0_70:
	@DEBUG_VALUE: uninitialized_fill_n<std::vector<float, std::allocator<float> > *, unsigned int, std::vector<float, std::allocator<float> > >:__first <- %R6
	@DEBUG_VALUE: __uninitialized_fill_n_a<std::vector<float, std::allocator<float> > *, unsigned int, std::vector<float, std::allocator<float> >, std::vector<float, std::allocator<float> > >:__first <- %R6
	@DEBUG_VALUE: __niter <- %R7
	@DEBUG_VALUE: __fill_n_a<float *, unsigned int, float>:__n <- %R7
	@DEBUG_VALUE: fill_n<float *, unsigned int, float>:__n <- %R7
	@DEBUG_VALUE: __uninit_fill_n<float *, unsigned int, float>:__n <- %R7
	@DEBUG_VALUE: uninitialized_fill_n<float *, unsigned int, float>:__n <- %R7
	@DEBUG_VALUE: __uninitialized_fill_n_a<float *, unsigned int, float, float>:__n <- %R7
	@DEBUG_VALUE: _M_fill_initialize:__n <- %R7
	@DEBUG_VALUE: allocate:__n <- %R7
	@DEBUG_VALUE: allocate:__n <- %R7
	@DEBUG_VALUE: _M_allocate:__n <- %R7
	@DEBUG_VALUE: _M_create_storage:__n <- %R7
	@DEBUG_VALUE: _Vector_base:__n <- %R7
	@DEBUG_VALUE: vector:__n <- %R7
.Ltmp10:
	mov	r4, r0
.Ltmp252:
	.loc	8 110 9 is_stmt 0       @ /usr/bin/../lib/gcc/arm-linux-gnueabihf/6.3.0/../../../../include/c++/6.3.0/ext/new_allocator.h:110:9
	mov	r0, r6
	bl	_ZdlPv
	b	.LBB0_72
.Ltmp253:
.LBB0_71:
	@DEBUG_VALUE: __niter <- %R7
	@DEBUG_VALUE: __fill_n_a<float *, unsigned int, float>:__n <- %R7
	@DEBUG_VALUE: fill_n<float *, unsigned int, float>:__n <- %R7
	@DEBUG_VALUE: __uninit_fill_n<float *, unsigned int, float>:__n <- %R7
	@DEBUG_VALUE: uninitialized_fill_n<float *, unsigned int, float>:__n <- %R7
	@DEBUG_VALUE: __uninitialized_fill_n_a<float *, unsigned int, float, float>:__n <- %R7
	@DEBUG_VALUE: _M_fill_initialize:__n <- %R7
	@DEBUG_VALUE: allocate:__n <- %R7
	@DEBUG_VALUE: allocate:__n <- %R7
	@DEBUG_VALUE: _M_allocate:__n <- %R7
	@DEBUG_VALUE: _M_create_storage:__n <- %R7
	@DEBUG_VALUE: _Vector_base:__n <- %R7
	@DEBUG_VALUE: vector:__n <- %R7
.Ltmp7:
	mov	r4, r0
.Ltmp254:
.LBB0_72:                               @ %.body
	@DEBUG_VALUE: __niter <- %R7
	@DEBUG_VALUE: __fill_n_a<float *, unsigned int, float>:__n <- %R7
	@DEBUG_VALUE: fill_n<float *, unsigned int, float>:__n <- %R7
	@DEBUG_VALUE: __uninit_fill_n<float *, unsigned int, float>:__n <- %R7
	@DEBUG_VALUE: uninitialized_fill_n<float *, unsigned int, float>:__n <- %R7
	@DEBUG_VALUE: __uninitialized_fill_n_a<float *, unsigned int, float, float>:__n <- %R7
	@DEBUG_VALUE: _M_fill_initialize:__n <- %R7
	@DEBUG_VALUE: allocate:__n <- %R7
	@DEBUG_VALUE: allocate:__n <- %R7
	@DEBUG_VALUE: _M_allocate:__n <- %R7
	@DEBUG_VALUE: _M_create_storage:__n <- %R7
	@DEBUG_VALUE: _Vector_base:__n <- %R7
	@DEBUG_VALUE: vector:__n <- %R7
	.loc	12 160 37 is_stmt 1     @ /usr/bin/../lib/gcc/arm-linux-gnueabihf/6.3.0/../../../../include/c++/6.3.0/bits/stl_vector.h:160:37
	ldr	r0, [sp, #8]
.Ltmp255:
	@DEBUG_VALUE: _M_deallocate:__p <- %R0
	@DEBUG_VALUE: deallocate:__p <- %R0
	@DEBUG_VALUE: deallocate:__p <- %R0
	.loc	12 177 6                @ /usr/bin/../lib/gcc/arm-linux-gnueabihf/6.3.0/../../../../include/c++/6.3.0/bits/stl_vector.h:177:6
	cmp	r0, #0
	beq	.LBB0_74
.Ltmp256:
.LBB0_73:
	.loc	8 110 9                 @ /usr/bin/../lib/gcc/arm-linux-gnueabihf/6.3.0/../../../../include/c++/6.3.0/ext/new_allocator.h:110:9
	bl	_ZdlPv
.Ltmp257:
.LBB0_74:
	mov	r0, r4
	mov	lr, pc
	b	_Unwind_Resume
	.p2align	3
@ BB#75:
.LCPI0_3:
	.long	3758096384              @ double 7.9999997979030013E-4
	.long	1061828322
.Lfunc_end0:
	.size	_ZN18DynamicStiffString13prepareToPlayEffffffff, .Lfunc_end0-_ZN18DynamicStiffString13prepareToPlayEffffffff
	.cfi_endproc
	.file	46 "/usr/bin/../lib/gcc/arm-linux-gnueabihf/6.3.0/../../../../include/c++/6.3.0/ext" "type_traits.h"
	.globl	__gxx_personality_v0
	.personality __gxx_personality_v0
	.handlerdata
	.p2align	2
GCC_except_table0:
.Lexception0:
	.byte	255                     @ @LPStart Encoding = omit
	.byte	0                       @ @TType Encoding = absptr
	.ascii	"\254\001"              @ @TType base offset
	.byte	3                       @ Call site Encoding = udata4
	.ascii	"\251\001"              @ Call site table length
	.long	.Lfunc_begin0-.Lfunc_begin0 @ >> Call Site 1 <<
	.long	.Ltmp0-.Lfunc_begin0    @   Call between .Lfunc_begin0 and .Ltmp0
	.long	0                       @     has no landing pad
	.byte	0                       @   On action: cleanup
	.long	.Ltmp0-.Lfunc_begin0    @ >> Call Site 2 <<
	.long	.Ltmp1-.Ltmp0           @   Call between .Ltmp0 and .Ltmp1
	.long	.Ltmp4-.Lfunc_begin0    @     jumps to .Ltmp4
	.byte	0                       @   On action: cleanup
	.long	.Ltmp1-.Lfunc_begin0    @ >> Call Site 3 <<
	.long	.Ltmp5-.Ltmp1           @   Call between .Ltmp1 and .Ltmp5
	.long	0                       @     has no landing pad
	.byte	0                       @   On action: cleanup
	.long	.Ltmp5-.Lfunc_begin0    @ >> Call Site 4 <<
	.long	.Ltmp6-.Ltmp5           @   Call between .Ltmp5 and .Ltmp6
	.long	.Ltmp7-.Lfunc_begin0    @     jumps to .Ltmp7
	.byte	0                       @   On action: cleanup
	.long	.Ltmp8-.Lfunc_begin0    @ >> Call Site 5 <<
	.long	.Ltmp9-.Ltmp8           @   Call between .Ltmp8 and .Ltmp9
	.long	.Ltmp10-.Lfunc_begin0   @     jumps to .Ltmp10
	.byte	0                       @   On action: cleanup
	.long	.Ltmp11-.Lfunc_begin0   @ >> Call Site 6 <<
	.long	.Ltmp12-.Ltmp11         @   Call between .Ltmp11 and .Ltmp12
	.long	.Ltmp15-.Lfunc_begin0   @     jumps to .Ltmp15
	.byte	0                       @   On action: cleanup
	.long	.Ltmp12-.Lfunc_begin0   @ >> Call Site 7 <<
	.long	.Ltmp16-.Ltmp12         @   Call between .Ltmp12 and .Ltmp16
	.long	0                       @     has no landing pad
	.byte	0                       @   On action: cleanup
	.long	.Ltmp16-.Lfunc_begin0   @ >> Call Site 8 <<
	.long	.Ltmp17-.Ltmp16         @   Call between .Ltmp16 and .Ltmp17
	.long	.Ltmp18-.Lfunc_begin0   @     jumps to .Ltmp18
	.byte	0                       @   On action: cleanup
	.long	.Ltmp19-.Lfunc_begin0   @ >> Call Site 9 <<
	.long	.Ltmp20-.Ltmp19         @   Call between .Ltmp19 and .Ltmp20
	.long	.Ltmp21-.Lfunc_begin0   @     jumps to .Ltmp21
	.byte	0                       @   On action: cleanup
	.long	.Ltmp20-.Lfunc_begin0   @ >> Call Site 10 <<
	.long	.Ltmp2-.Ltmp20          @   Call between .Ltmp20 and .Ltmp2
	.long	0                       @     has no landing pad
	.byte	0                       @   On action: cleanup
	.long	.Ltmp2-.Lfunc_begin0    @ >> Call Site 11 <<
	.long	.Ltmp3-.Ltmp2           @   Call between .Ltmp2 and .Ltmp3
	.long	.Ltmp4-.Lfunc_begin0    @     jumps to .Ltmp4
	.byte	0                       @   On action: cleanup
	.long	.Ltmp13-.Lfunc_begin0   @ >> Call Site 12 <<
	.long	.Ltmp14-.Ltmp13         @   Call between .Ltmp13 and .Ltmp14
	.long	.Ltmp15-.Lfunc_begin0   @     jumps to .Ltmp15
	.byte	0                       @   On action: cleanup
	.long	.Ltmp14-.Lfunc_begin0   @ >> Call Site 13 <<
	.long	.Lfunc_end0-.Ltmp14     @   Call between .Ltmp14 and .Lfunc_end0
	.long	0                       @     has no landing pad
	.byte	0                       @   On action: cleanup
	.p2align	2
	.fnend

	.section	.text._ZNSt6vectorIPfSaIS0_EE9push_backEOS0_,"axG",%progbits,_ZNSt6vectorIPfSaIS0_EE9push_backEOS0_,comdat
	.weak	_ZNSt6vectorIPfSaIS0_EE9push_backEOS0_
	.p2align	2
	.type	_ZNSt6vectorIPfSaIS0_EE9push_backEOS0_,%function
_ZNSt6vectorIPfSaIS0_EE9push_backEOS0_: @ @_ZNSt6vectorIPfSaIS0_EE9push_backEOS0_
.Lfunc_begin1:
	.loc	12 933 0                @ /usr/bin/../lib/gcc/arm-linux-gnueabihf/6.3.0/../../../../include/c++/6.3.0/bits/stl_vector.h:933:0
	.fnstart
	.cfi_startproc
@ BB#0:
	.save	{r4, r5, r6, r7, r8, r9, r10, r11, lr}
	push	{r4, r5, r6, r7, r8, r9, r10, r11, lr}
.Ltmp258:
	.cfi_def_cfa_offset 36
.Ltmp259:
	.cfi_offset lr, -4
.Ltmp260:
	.cfi_offset r11, -8
.Ltmp261:
	.cfi_offset r10, -12
.Ltmp262:
	.cfi_offset r9, -16
.Ltmp263:
	.cfi_offset r8, -20
.Ltmp264:
	.cfi_offset r7, -24
.Ltmp265:
	.cfi_offset r6, -28
.Ltmp266:
	.cfi_offset r5, -32
.Ltmp267:
	.cfi_offset r4, -36
	.setfp	r11, sp, #28
	add	r11, sp, #28
.Ltmp268:
	.cfi_def_cfa r11, 8
	.pad	#4
	sub	sp, sp, #4
	@DEBUG_VALUE: push_back:this <- %R0
	@DEBUG_VALUE: push_back:__x <- %R1
	mov	r4, r0
.Ltmp269:
	@DEBUG_VALUE: construct<float *, float *>:__p <- %R0
	@DEBUG_VALUE: construct<float *, float *>:__p <- %R0
	@DEBUG_VALUE: emplace_back<float *>:this <- %R4
	@DEBUG_VALUE: push_back:this <- %R4
	mov	r8, r1
.Ltmp270:
	@DEBUG_VALUE: push_back:__x <- %R8
	.loc	41 94 20 prologue_end   @ /usr/bin/../lib/gcc/arm-linux-gnueabihf/6.3.0/../../../../include/c++/6.3.0/bits/vector.tcc:94:20
	ldmib	r4, {r0, r1}
.Ltmp271:
	.loc	41 94 6 is_stmt 0       @ /usr/bin/../lib/gcc/arm-linux-gnueabihf/6.3.0/../../../../include/c++/6.3.0/bits/vector.tcc:94:6
	cmp	r0, r1
	beq	.LBB1_2
.Ltmp272:
@ BB#1:
	@DEBUG_VALUE: push_back:__x <- %R8
	@DEBUG_VALUE: push_back:this <- %R4
	@DEBUG_VALUE: emplace_back<float *>:this <- %R4
	@DEBUG_VALUE: construct<float *, float *>:__args <- %R8
	.loc	8 120 27 is_stmt 1      @ /usr/bin/../lib/gcc/arm-linux-gnueabihf/6.3.0/../../../../include/c++/6.3.0/ext/new_allocator.h:120:27
	ldr	r1, [r8]
	.loc	8 120 4 is_stmt 0       @ /usr/bin/../lib/gcc/arm-linux-gnueabihf/6.3.0/../../../../include/c++/6.3.0/ext/new_allocator.h:120:4
	str	r1, [r0]
.Ltmp273:
	.loc	41 98 6 is_stmt 1       @ /usr/bin/../lib/gcc/arm-linux-gnueabihf/6.3.0/../../../../include/c++/6.3.0/bits/vector.tcc:98:6
	ldr	r0, [r4, #4]
	add	r0, r0, #4
	str	r0, [r4, #4]
.Ltmp274:
	.loc	12 933 39               @ /usr/bin/../lib/gcc/arm-linux-gnueabihf/6.3.0/../../../../include/c++/6.3.0/bits/stl_vector.h:933:39
	sub	sp, r11, #28
	pop	{r4, r5, r6, r7, r8, r9, r10, r11, pc}
.Ltmp275:
.LBB1_2:
	@DEBUG_VALUE: push_back:__x <- %R8
	@DEBUG_VALUE: push_back:this <- %R4
	@DEBUG_VALUE: emplace_back<float *>:this <- %R4
	@DEBUG_VALUE: _M_check_len:__n <- 1
	@DEBUG_VALUE: size:this <- %R4
	.loc	12 656 66               @ /usr/bin/../lib/gcc/arm-linux-gnueabihf/6.3.0/../../../../include/c++/6.3.0/bits/stl_vector.h:656:66
	ldr	r10, [r4]
	mov	r9, #0
.Ltmp276:
	.loc	12 170 9 discriminator 3 @ /usr/bin/../lib/gcc/arm-linux-gnueabihf/6.3.0/../../../../include/c++/6.3.0/bits/stl_vector.h:170:9
	mov	r6, #0
.Ltmp277:
	.loc	12 656 50               @ /usr/bin/../lib/gcc/arm-linux-gnueabihf/6.3.0/../../../../include/c++/6.3.0/bits/stl_vector.h:656:50
	sub	r1, r0, r10
	asr	r2, r1, #2
.Ltmp278:
	.loc	12 1425 35              @ /usr/bin/../lib/gcc/arm-linux-gnueabihf/6.3.0/../../../../include/c++/6.3.0/bits/stl_vector.h:1425:35
	cmp	r9, r1, asr #2
	movweq	r2, #1
	add	r1, r2, r1, asr #2
	.loc	12 1426 25              @ /usr/bin/../lib/gcc/arm-linux-gnueabihf/6.3.0/../../../../include/c++/6.3.0/bits/stl_vector.h:1426:25
	cmp	r9, r1, lsr #30
	mov	r5, r1
	mvnne	r5, #-1073741824
	cmp	r1, r2
	mvnlo	r5, #-1073741824
.Ltmp279:
	@DEBUG_VALUE: _M_allocate:__n <- %R5
	@DEBUG_VALUE: _M_emplace_back_aux<float *>:__len <- %R5
	@DEBUG_VALUE: allocate:__n <- %R5
	@DEBUG_VALUE: allocate:__n <- %R5
	.loc	12 170 9                @ /usr/bin/../lib/gcc/arm-linux-gnueabihf/6.3.0/../../../../include/c++/6.3.0/bits/stl_vector.h:170:9
	cmp	r5, #0
.Ltmp280:
	@DEBUG_VALUE: _M_check_len:__len <- %R1
	beq	.LBB1_5
.Ltmp281:
@ BB#3:
	@DEBUG_VALUE: _M_check_len:__len <- %R1
	@DEBUG_VALUE: allocate:__n <- %R5
	@DEBUG_VALUE: allocate:__n <- %R5
	@DEBUG_VALUE: _M_emplace_back_aux<float *>:__len <- %R5
	@DEBUG_VALUE: _M_allocate:__n <- %R5
	@DEBUG_VALUE: size:this <- %R4
	@DEBUG_VALUE: push_back:__x <- %R8
	@DEBUG_VALUE: push_back:this <- %R4
	@DEBUG_VALUE: emplace_back<float *>:this <- %R4
	.loc	8 101 6                 @ /usr/bin/../lib/gcc/arm-linux-gnueabihf/6.3.0/../../../../include/c++/6.3.0/ext/new_allocator.h:101:6
	cmp	r5, #1073741824
	bhs	.LBB1_10
.Ltmp282:
@ BB#4:                                 @ %_ZNSt16allocator_traitsISaIPfEE8allocateERS1_j.exit.i.i
	@DEBUG_VALUE: _M_check_len:__len <- %R1
	@DEBUG_VALUE: allocate:__n <- %R5
	@DEBUG_VALUE: allocate:__n <- %R5
	@DEBUG_VALUE: _M_emplace_back_aux<float *>:__len <- %R5
	@DEBUG_VALUE: _M_allocate:__n <- %R5
	@DEBUG_VALUE: size:this <- %R4
	@DEBUG_VALUE: push_back:__x <- %R8
	@DEBUG_VALUE: push_back:this <- %R4
	@DEBUG_VALUE: emplace_back<float *>:this <- %R4
	.loc	8 104 46                @ /usr/bin/../lib/gcc/arm-linux-gnueabihf/6.3.0/../../../../include/c++/6.3.0/ext/new_allocator.h:104:46
	lsl	r0, r5, #2
	.loc	8 104 27 is_stmt 0      @ /usr/bin/../lib/gcc/arm-linux-gnueabihf/6.3.0/../../../../include/c++/6.3.0/ext/new_allocator.h:104:27
	bl	_Znwj
.Ltmp283:
	mov	r6, r0
.Ltmp284:
	.loc	12 656 66 is_stmt 1     @ /usr/bin/../lib/gcc/arm-linux-gnueabihf/6.3.0/../../../../include/c++/6.3.0/bits/stl_vector.h:656:66
	ldr	r10, [r4]
	.loc	12 656 40 is_stmt 0     @ /usr/bin/../lib/gcc/arm-linux-gnueabihf/6.3.0/../../../../include/c++/6.3.0/bits/stl_vector.h:656:40
	ldr	r0, [r4, #4]
.Ltmp285:
	@DEBUG_VALUE: size:this <- %R4
.LBB1_5:
	@DEBUG_VALUE: allocate:__n <- %R5
	@DEBUG_VALUE: allocate:__n <- %R5
	@DEBUG_VALUE: _M_emplace_back_aux<float *>:__len <- %R5
	@DEBUG_VALUE: _M_allocate:__n <- %R5
	@DEBUG_VALUE: size:this <- %R4
	@DEBUG_VALUE: push_back:__x <- %R8
	@DEBUG_VALUE: push_back:this <- %R4
	@DEBUG_VALUE: emplace_back<float *>:this <- %R4
	@DEBUG_VALUE: _M_emplace_back_aux<float *>:__new_finish <- %R6
	@DEBUG_VALUE: construct<float *, float *>:__args <- %R8
	.loc	12 656 50               @ /usr/bin/../lib/gcc/arm-linux-gnueabihf/6.3.0/../../../../include/c++/6.3.0/bits/stl_vector.h:656:50
	sub	r2, r0, r10
.Ltmp286:
	.loc	8 120 27 is_stmt 1      @ /usr/bin/../lib/gcc/arm-linux-gnueabihf/6.3.0/../../../../include/c++/6.3.0/ext/new_allocator.h:120:27
	ldr	r0, [r8]
	.loc	8 120 4 is_stmt 0       @ /usr/bin/../lib/gcc/arm-linux-gnueabihf/6.3.0/../../../../include/c++/6.3.0/ext/new_allocator.h:120:4
	mov	r7, r6
	str	r0, [r7, r2]!
.Ltmp287:
	@DEBUG_VALUE: __copy_move_a<true, float **, float **>:__simple <- 1
	@DEBUG_VALUE: uninitialized_copy<std::move_iterator<float **>, float **>:__assignable <- 1
	.loc	42 367 8 is_stmt 1      @ /usr/bin/../lib/gcc/arm-linux-gnueabihf/6.3.0/../../../../include/c++/6.3.0/bits/stl_algobase.h:367:8
	cmp	r9, r2, asr #2
.Ltmp288:
	@DEBUG_VALUE: construct<float *, float *>:__p <- %R7
	@DEBUG_VALUE: construct<float *, float *>:__p <- %R7
	@DEBUG_VALUE: _M_emplace_back_aux<float *>:__new_finish <- %R7
	beq	.LBB1_7
.Ltmp289:
@ BB#6:
	@DEBUG_VALUE: _M_emplace_back_aux<float *>:__new_finish <- %R7
	@DEBUG_VALUE: construct<float *, float *>:__p <- %R7
	@DEBUG_VALUE: construct<float *, float *>:__p <- %R7
	@DEBUG_VALUE: construct<float *, float *>:__args <- %R8
	@DEBUG_VALUE: allocate:__n <- %R5
	@DEBUG_VALUE: allocate:__n <- %R5
	@DEBUG_VALUE: _M_emplace_back_aux<float *>:__len <- %R5
	@DEBUG_VALUE: _M_allocate:__n <- %R5
	@DEBUG_VALUE: size:this <- %R4
	@DEBUG_VALUE: push_back:__x <- %R8
	@DEBUG_VALUE: push_back:this <- %R4
	@DEBUG_VALUE: emplace_back<float *>:this <- %R4
	.loc	42 368 6                @ /usr/bin/../lib/gcc/arm-linux-gnueabihf/6.3.0/../../../../include/c++/6.3.0/bits/stl_algobase.h:368:6
	mov	r0, r6
	mov	r1, r10
	bl	memmove
.Ltmp290:
.LBB1_7:
	@DEBUG_VALUE: _M_emplace_back_aux<float *>:__new_finish <- %R7
	@DEBUG_VALUE: construct<float *, float *>:__p <- %R7
	@DEBUG_VALUE: construct<float *, float *>:__p <- %R7
	@DEBUG_VALUE: construct<float *, float *>:__args <- %R8
	@DEBUG_VALUE: allocate:__n <- %R5
	@DEBUG_VALUE: allocate:__n <- %R5
	@DEBUG_VALUE: _M_emplace_back_aux<float *>:__len <- %R5
	@DEBUG_VALUE: _M_allocate:__n <- %R5
	@DEBUG_VALUE: size:this <- %R4
	@DEBUG_VALUE: push_back:__x <- %R8
	@DEBUG_VALUE: push_back:this <- %R4
	@DEBUG_VALUE: emplace_back<float *>:this <- %R4
	.loc	41 425 6                @ /usr/bin/../lib/gcc/arm-linux-gnueabihf/6.3.0/../../../../include/c++/6.3.0/bits/vector.tcc:425:6
	add	r7, r7, #4
.Ltmp291:
	@DEBUG_VALUE: _M_emplace_back_aux<float *>:__new_finish <- %R7
	.loc	12 177 6                @ /usr/bin/../lib/gcc/arm-linux-gnueabihf/6.3.0/../../../../include/c++/6.3.0/bits/stl_vector.h:177:6
	cmp	r10, #0
	beq	.LBB1_9
.Ltmp292:
@ BB#8:
	@DEBUG_VALUE: _M_emplace_back_aux<float *>:__new_finish <- %R7
	@DEBUG_VALUE: construct<float *, float *>:__args <- %R8
	@DEBUG_VALUE: allocate:__n <- %R5
	@DEBUG_VALUE: allocate:__n <- %R5
	@DEBUG_VALUE: _M_emplace_back_aux<float *>:__len <- %R5
	@DEBUG_VALUE: _M_allocate:__n <- %R5
	@DEBUG_VALUE: size:this <- %R4
	@DEBUG_VALUE: push_back:__x <- %R8
	@DEBUG_VALUE: push_back:this <- %R4
	@DEBUG_VALUE: emplace_back<float *>:this <- %R4
	.loc	8 110 9                 @ /usr/bin/../lib/gcc/arm-linux-gnueabihf/6.3.0/../../../../include/c++/6.3.0/ext/new_allocator.h:110:9
	mov	r0, r10
	bl	_ZdlPv
.Ltmp293:
.LBB1_9:                                @ %_ZNSt6vectorIPfSaIS0_EE19_M_emplace_back_auxIJS0_EEEvDpOT_.exit
	@DEBUG_VALUE: _M_emplace_back_aux<float *>:__new_finish <- %R7
	@DEBUG_VALUE: construct<float *, float *>:__args <- %R8
	@DEBUG_VALUE: allocate:__n <- %R5
	@DEBUG_VALUE: allocate:__n <- %R5
	@DEBUG_VALUE: _M_emplace_back_aux<float *>:__len <- %R5
	@DEBUG_VALUE: _M_allocate:__n <- %R5
	@DEBUG_VALUE: size:this <- %R4
	@DEBUG_VALUE: push_back:__x <- %R8
	@DEBUG_VALUE: push_back:this <- %R4
	@DEBUG_VALUE: emplace_back<float *>:this <- %R4
	.loc	41 443 48               @ /usr/bin/../lib/gcc/arm-linux-gnueabihf/6.3.0/../../../../include/c++/6.3.0/bits/vector.tcc:443:48
	add	r0, r6, r5, lsl #2
.Ltmp294:
	@DEBUG_VALUE: size:this <- %R4
	.loc	41 441 25               @ /usr/bin/../lib/gcc/arm-linux-gnueabihf/6.3.0/../../../../include/c++/6.3.0/bits/vector.tcc:441:25
	stm	r4, {r6, r7}
	.loc	41 443 34               @ /usr/bin/../lib/gcc/arm-linux-gnueabihf/6.3.0/../../../../include/c++/6.3.0/bits/vector.tcc:443:34
	str	r0, [r4, #8]
.Ltmp295:
	.loc	12 933 39               @ /usr/bin/../lib/gcc/arm-linux-gnueabihf/6.3.0/../../../../include/c++/6.3.0/bits/stl_vector.h:933:39
	sub	sp, r11, #28
	pop	{r4, r5, r6, r7, r8, r9, r10, r11, pc}
.Ltmp296:
.LBB1_10:
	@DEBUG_VALUE: _M_check_len:__len <- %R1
	@DEBUG_VALUE: allocate:__n <- %R5
	@DEBUG_VALUE: allocate:__n <- %R5
	@DEBUG_VALUE: _M_emplace_back_aux<float *>:__len <- %R5
	@DEBUG_VALUE: _M_allocate:__n <- %R5
	@DEBUG_VALUE: size:this <- %R4
	@DEBUG_VALUE: push_back:__x <- %R8
	@DEBUG_VALUE: push_back:this <- %R4
	@DEBUG_VALUE: emplace_back<float *>:this <- %R4
	.loc	8 102 4                 @ /usr/bin/../lib/gcc/arm-linux-gnueabihf/6.3.0/../../../../include/c++/6.3.0/ext/new_allocator.h:102:4
	mov	lr, pc
	b	_ZSt17__throw_bad_allocv
.Ltmp297:
.Lfunc_end1:
	.size	_ZNSt6vectorIPfSaIS0_EE9push_backEOS0_, .Lfunc_end1-_ZNSt6vectorIPfSaIS0_EE9push_backEOS0_
	.cfi_endproc
	.fnend

	.text
	.globl	_ZN18DynamicStiffString19refreshCoefficientsEb
	.p2align	3
	.type	_ZN18DynamicStiffString19refreshCoefficientsEb,%function
_ZN18DynamicStiffString19refreshCoefficientsEb: @ @_ZN18DynamicStiffString19refreshCoefficientsEb
.Lfunc_begin2:
	.loc	40 248 0                @ /root/Bela/projects/NIEMO/dsp/DynamicStiffString.cpp:248:0
	.fnstart
	.cfi_startproc
@ BB#0:
	.save	{r4, r5, r6, r7, r8, r9, r10, r11, lr}
	push	{r4, r5, r6, r7, r8, r9, r10, r11, lr}
.Ltmp298:
	.cfi_def_cfa_offset 36
.Ltmp299:
	.cfi_offset lr, -4
.Ltmp300:
	.cfi_offset r11, -8
.Ltmp301:
	.cfi_offset r10, -12
.Ltmp302:
	.cfi_offset r9, -16
.Ltmp303:
	.cfi_offset r8, -20
.Ltmp304:
	.cfi_offset r7, -24
.Ltmp305:
	.cfi_offset r6, -28
.Ltmp306:
	.cfi_offset r5, -32
.Ltmp307:
	.cfi_offset r4, -36
	.setfp	r11, sp, #28
	add	r11, sp, #28
.Ltmp308:
	.cfi_def_cfa r11, 8
	.pad	#4
	sub	sp, sp, #4
	.vsave	{d8, d9, d10, d11, d12, d13, d14, d15}
	vpush	{d8, d9, d10, d11, d12, d13, d14, d15}
.Ltmp309:
	.cfi_offset d15, -48
.Ltmp310:
	.cfi_offset d14, -56
.Ltmp311:
	.cfi_offset d13, -64
.Ltmp312:
	.cfi_offset d12, -72
.Ltmp313:
	.cfi_offset d11, -80
.Ltmp314:
	.cfi_offset d10, -88
.Ltmp315:
	.cfi_offset d9, -96
.Ltmp316:
	.cfi_offset d8, -104
	.pad	#16
	sub	sp, sp, #16
	@DEBUG_VALUE: refreshCoefficients:this <- %R0
	@DEBUG_VALUE: refreshCoefficients:init [bit_piece offset=0 size=1] <- %R1
	mov	r4, r0
.Ltmp317:
	@DEBUG_VALUE: refreshCoefficients:this <- %R4
	mov	r12, r1
.Ltmp318:
	@DEBUG_VALUE: refreshCoefficients:init [bit_piece offset=0 size=1] <- %R12
	.loc	12 656 66 prologue_end  @ /usr/bin/../lib/gcc/arm-linux-gnueabihf/6.3.0/../../../../include/c++/6.3.0/bits/stl_vector.h:656:66
	ldr	r0, [r4, #68]
	mov	r1, #0
.Ltmp319:
	@DEBUG_VALUE: i <- 0
	@DEBUG_VALUE: refreshCoefficients:needsRefresh <- 0
	@DEBUG_VALUE: refreshCoefficients:init [bit_piece offset=0 size=1] <- undef
	.loc	12 656 40 is_stmt 0     @ /usr/bin/../lib/gcc/arm-linux-gnueabihf/6.3.0/../../../../include/c++/6.3.0/bits/stl_vector.h:656:40
	ldr	r2, [r4, #72]
.Ltmp320:
	.loc	40 253 5 is_stmt 1 discriminator 1 @ /root/Bela/projects/NIEMO/dsp/DynamicStiffString.cpp:253:5
	cmp	r2, r0
	beq	.LBB2_57
.Ltmp321:
@ BB#1:                                 @ %.lr.ph
	@DEBUG_VALUE: refreshCoefficients:this <- %R4
	.loc	40 270 130              @ /root/Bela/projects/NIEMO/dsp/DynamicStiffString.cpp:270:130
	vmov.f64	d25, #4.000000e+00
	.loc	40 270 74 is_stmt 0     @ /root/Bela/projects/NIEMO/dsp/DynamicStiffString.cpp:270:74
	add	lr, r4, #16
	mov	r7, #0
	mvn	r6, #0
                                        @ implicit-def: %S22
	mov	r1, #0
	vmov.f64	d24, #-4.000000e+00
.Ltmp322:
	.loc	40 296 198 is_stmt 1    @ /root/Bela/projects/NIEMO/dsp/DynamicStiffString.cpp:296:198
	vmov.f64	d10, #8.000000e+00
.Ltmp323:
	.loc	40 262 39               @ /root/Bela/projects/NIEMO/dsp/DynamicStiffString.cpp:262:39
	vldr	s30, .LCPI2_11
.Ltmp324:
	.loc	40 285 44               @ /root/Bela/projects/NIEMO/dsp/DynamicStiffString.cpp:285:44
	vldr	s14, .LCPI2_12
	.loc	40 296 165              @ /root/Bela/projects/NIEMO/dsp/DynamicStiffString.cpp:296:165
	vldr	d9, .LCPI2_13
.Ltmp325:
	.loc	40 333 161              @ /root/Bela/projects/NIEMO/dsp/DynamicStiffString.cpp:333:161
	vldr	d26, .LCPI2_14
	vldr	s13, .LCPI2_15
	b	.LBB2_8
.Ltmp326:
.LBB2_2:                                @ %.thread216
                                        @   in Loop: Header=BB2_8 Depth=1
	.loc	40 418 16               @ /root/Bela/projects/NIEMO/dsp/DynamicStiffString.cpp:418:16
	ldr	r2, [r0]
	.loc	40 418 15 is_stmt 0     @ /root/Bela/projects/NIEMO/dsp/DynamicStiffString.cpp:418:15
	ldr	r2, [r2]
	.loc	40 418 13               @ /root/Bela/projects/NIEMO/dsp/DynamicStiffString.cpp:418:13
	str	r2, [r4]
	b	.LBB2_56
.Ltmp327:
.LBB2_3:                                @   in Loop: Header=BB2_8 Depth=1
	.loc	40 402 16 is_stmt 1     @ /root/Bela/projects/NIEMO/dsp/DynamicStiffString.cpp:402:16
	ldr	r2, [r0, #16]
	.loc	40 402 15 is_stmt 0     @ /root/Bela/projects/NIEMO/dsp/DynamicStiffString.cpp:402:15
	ldr	r2, [r2]
	.loc	40 402 13               @ /root/Bela/projects/NIEMO/dsp/DynamicStiffString.cpp:402:13
	str	r2, [r4, #20]
	b	.LBB2_56
.Ltmp328:
.LBB2_4:                                @   in Loop: Header=BB2_8 Depth=1
	.loc	40 398 16 is_stmt 1     @ /root/Bela/projects/NIEMO/dsp/DynamicStiffString.cpp:398:16
	ldr	r2, [r0, #8]
	.loc	40 398 15 is_stmt 0     @ /root/Bela/projects/NIEMO/dsp/DynamicStiffString.cpp:398:15
	ldr	r2, [r2]
	.loc	40 398 13               @ /root/Bela/projects/NIEMO/dsp/DynamicStiffString.cpp:398:13
	str	r2, [r4, #8]
	b	.LBB2_56
.Ltmp329:
.LBB2_5:                                @   in Loop: Header=BB2_8 Depth=1
	.loc	40 406 21 is_stmt 1     @ /root/Bela/projects/NIEMO/dsp/DynamicStiffString.cpp:406:21
	ldr	r2, [r0, #20]
	.loc	40 406 20 is_stmt 0     @ /root/Bela/projects/NIEMO/dsp/DynamicStiffString.cpp:406:20
	ldr	r2, [r2]
	.loc	40 406 18               @ /root/Bela/projects/NIEMO/dsp/DynamicStiffString.cpp:406:18
	str	r2, [r4, #36]
	b	.LBB2_56
.Ltmp330:
.LBB2_6:                                @   in Loop: Header=BB2_8 Depth=1
	.loc	40 438 21 is_stmt 1     @ /root/Bela/projects/NIEMO/dsp/DynamicStiffString.cpp:438:21
	ldr	r2, [r0, #24]
	.loc	40 438 20 is_stmt 0     @ /root/Bela/projects/NIEMO/dsp/DynamicStiffString.cpp:438:20
	ldr	r2, [r2]
	.loc	40 438 18               @ /root/Bela/projects/NIEMO/dsp/DynamicStiffString.cpp:438:18
	str	r2, [r4, #40]
	b	.LBB2_56
.Ltmp331:
.LBB2_7:                                @   in Loop: Header=BB2_8 Depth=1
	.loc	12 781 32 is_stmt 1     @ /usr/bin/../lib/gcc/arm-linux-gnueabihf/6.3.0/../../../../include/c++/6.3.0/bits/stl_vector.h:781:32
	ldr	r2, [r4, #80]
.Ltmp332:
	.loc	40 331 38               @ /root/Bela/projects/NIEMO/dsp/DynamicStiffString.cpp:331:38
	vldr	s2, [r1]
	adr	r1, .LCPI2_16
	.loc	40 333 38               @ /root/Bela/projects/NIEMO/dsp/DynamicStiffString.cpp:333:38
	vldr	s0, [r4, #56]
	.loc	40 331 58               @ /root/Bela/projects/NIEMO/dsp/DynamicStiffString.cpp:331:58
	vldr	s4, [r2, #8]
	.loc	40 333 147              @ /root/Bela/projects/NIEMO/dsp/DynamicStiffString.cpp:333:147
	vcvt.f64.f32	d16, s0
	.loc	40 331 88               @ /root/Bela/projects/NIEMO/dsp/DynamicStiffString.cpp:331:88
	vcmpe.f32	s2, s4
	.loc	40 333 108              @ /root/Bela/projects/NIEMO/dsp/DynamicStiffString.cpp:333:108
	vldr	s8, [r4]
	.loc	40 331 88               @ /root/Bela/projects/NIEMO/dsp/DynamicStiffString.cpp:331:88
	vmrs	APSR_nzcv, fpscr
	.loc	40 333 161              @ /root/Bela/projects/NIEMO/dsp/DynamicStiffString.cpp:333:161
	vmul.f64	d16, d16, d26
	.loc	40 333 108 is_stmt 0    @ /root/Bela/projects/NIEMO/dsp/DynamicStiffString.cpp:333:108
	vcvt.f64.f32	d17, s8
.Ltmp333:
	@DEBUG_VALUE: refreshCoefficients:NfracNext <- %S2
	.loc	40 333 110              @ /root/Bela/projects/NIEMO/dsp/DynamicStiffString.cpp:333:110
	vmul.f64	d17, d17, d17
	.loc	40 331 88 is_stmt 1     @ /root/Bela/projects/NIEMO/dsp/DynamicStiffString.cpp:331:88
	addgt	r1, r1, #4
	vldr	s2, [r1]
.Ltmp334:
	.loc	40 333 175              @ /root/Bela/projects/NIEMO/dsp/DynamicStiffString.cpp:333:175
	vldr	s8, [r4, #40]
	.loc	40 331 35               @ /root/Bela/projects/NIEMO/dsp/DynamicStiffString.cpp:331:35
	vadd.f32	d1, d1, d14
	.loc	40 333 71               @ /root/Bela/projects/NIEMO/dsp/DynamicStiffString.cpp:333:71
	vldr	s4, [r4, #4]
	.loc	40 333 110 is_stmt 0    @ /root/Bela/projects/NIEMO/dsp/DynamicStiffString.cpp:333:110
	vmul.f64	d17, d17, d9
	.loc	40 333 151              @ /root/Bela/projects/NIEMO/dsp/DynamicStiffString.cpp:333:151
	vcvt.f64.f32	d18, s2
	.loc	40 333 161              @ /root/Bela/projects/NIEMO/dsp/DynamicStiffString.cpp:333:161
	vmul.f64	d18, d18, d18
	vmul.f64	d16, d18, d16
	.loc	40 333 175              @ /root/Bela/projects/NIEMO/dsp/DynamicStiffString.cpp:333:175
	vcvt.f64.f32	d18, s8
	.loc	40 333 173              @ /root/Bela/projects/NIEMO/dsp/DynamicStiffString.cpp:333:173
	vmul.f64	d16, d16, d18
	.loc	40 333 114              @ /root/Bela/projects/NIEMO/dsp/DynamicStiffString.cpp:333:114
	vadd.f64	d16, d17, d16
	.loc	40 333 59               @ /root/Bela/projects/NIEMO/dsp/DynamicStiffString.cpp:333:59
	vldr	s10, [r4, #16]
	.loc	40 333 40               @ /root/Bela/projects/NIEMO/dsp/DynamicStiffString.cpp:333:40
	vmul.f32	d0, d1, d0
	.loc	40 333 71               @ /root/Bela/projects/NIEMO/dsp/DynamicStiffString.cpp:333:71
	vcvt.f64.f32	d19, s4
	.loc	40 333 59               @ /root/Bela/projects/NIEMO/dsp/DynamicStiffString.cpp:333:59
	vcvt.f64.f32	d18, s10
	.loc	40 333 54               @ /root/Bela/projects/NIEMO/dsp/DynamicStiffString.cpp:333:54
	vsqrt.f64	d17, d18
	.loc	40 333 66 discriminator 1 @ /root/Bela/projects/NIEMO/dsp/DynamicStiffString.cpp:333:66
	vsqrt.f64	d18, d19
	.loc	40 333 78 discriminator 2 @ /root/Bela/projects/NIEMO/dsp/DynamicStiffString.cpp:333:78
	vsqrt.f64	d16, d16
	.loc	40 333 38               @ /root/Bela/projects/NIEMO/dsp/DynamicStiffString.cpp:333:38
	vcvt.f64.f32	d19, s0
	.loc	40 333 52               @ /root/Bela/projects/NIEMO/dsp/DynamicStiffString.cpp:333:52
	vmul.f64	d17, d19, d17
	.loc	40 333 76               @ /root/Bela/projects/NIEMO/dsp/DynamicStiffString.cpp:333:76
	vmul.f64	d16, d16, d18
	.loc	40 333 186              @ /root/Bela/projects/NIEMO/dsp/DynamicStiffString.cpp:333:186
	vldr	s6, [r4, #8]
	.loc	40 333 63               @ /root/Bela/projects/NIEMO/dsp/DynamicStiffString.cpp:333:63
	vdiv.f64	d16, d17, d16
	.loc	40 333 186              @ /root/Bela/projects/NIEMO/dsp/DynamicStiffString.cpp:333:186
	vcvt.f64.f32	d17, s6
	b	.LBB2_30
.Ltmp335:
.LBB2_8:                                @ =>This Inner Loop Header: Depth=1
	mov	r10, r6
	.loc	40 253 5 is_stmt 1 discriminator 1 @ /root/Bela/projects/NIEMO/dsp/DynamicStiffString.cpp:253:5
	add	r6, r10, #1
.Ltmp336:
	.loc	6 856 47                @ /usr/bin/../lib/gcc/arm-linux-gnueabihf/6.3.0/../../../../include/c++/6.3.0/bits/stl_bvector.h:856:47
	ldr	r2, [r4, #92]
	.loc	6 857 40                @ /usr/bin/../lib/gcc/arm-linux-gnueabihf/6.3.0/../../../../include/c++/6.3.0/bits/stl_bvector.h:857:40
	and	r9, r6, #31
	.loc	6 857 16 is_stmt 0      @ /usr/bin/../lib/gcc/arm-linux-gnueabihf/6.3.0/../../../../include/c++/6.3.0/bits/stl_bvector.h:857:16
	lsr	r8, r6, #5
.Ltmp337:
	.loc	40 253 5 is_stmt 1 discriminator 1 @ /root/Bela/projects/NIEMO/dsp/DynamicStiffString.cpp:253:5
	mov	r3, #1
.Ltmp338:
	.loc	6 81 17                 @ /usr/bin/../lib/gcc/arm-linux-gnueabihf/6.3.0/../../../../include/c++/6.3.0/bits/stl_bvector.h:81:17
	ldr	r2, [r2, r8, lsl #2]
.Ltmp339:
	.loc	40 256 13               @ /root/Bela/projects/NIEMO/dsp/DynamicStiffString.cpp:256:13
	tst	r2, r3, lsl r9
	beq	.LBB2_56
@ BB#9:                                 @   in Loop: Header=BB2_8 Depth=1
.Ltmp340:
	@DEBUG_VALUE: refreshCoefficients:needsRefresh <- 1
	.loc	40 260 13               @ /root/Bela/projects/NIEMO/dsp/DynamicStiffString.cpp:260:13
	cmp	r7, #0
	beq	.LBB2_17
@ BB#10:                                @   in Loop: Header=BB2_8 Depth=1
.Ltmp341:
	.loc	40 265 18               @ /root/Bela/projects/NIEMO/dsp/DynamicStiffString.cpp:265:18
	cmp	r10, #0
	beq	.LBB2_23
@ BB#11:                                @   in Loop: Header=BB2_8 Depth=1
.Ltmp342:
	.loc	40 272 24               @ /root/Bela/projects/NIEMO/dsp/DynamicStiffString.cpp:272:24
	ldr	r1, [r0, r7]
.Ltmp343:
	.loc	40 272 18 is_stmt 0     @ /root/Bela/projects/NIEMO/dsp/DynamicStiffString.cpp:272:18
	cmp	lr, r1
	beq	.LBB2_25
@ BB#12:                                @   in Loop: Header=BB2_8 Depth=1
.Ltmp344:
	.loc	40 279 18 is_stmt 1     @ /root/Bela/projects/NIEMO/dsp/DynamicStiffString.cpp:279:18
	sub	r2, r6, #2
	cmp	r2, #4
	bhi	.LBB2_31
@ BB#13:                                @   in Loop: Header=BB2_8 Depth=1
	adr	r3, .LJTI2_0
	lsl	r2, r2, #2
	ldr	pc, [r2, r3]
@ BB#14:
	.p2align	2
.LJTI2_0:
	.long	.LBB2_15
	.long	.LBB2_31
	.long	.LBB2_26
	.long	.LBB2_27
	.long	.LBB2_28
.LBB2_15:                               @   in Loop: Header=BB2_8 Depth=1
.Ltmp345:
	.loc	40 284 39               @ /root/Bela/projects/NIEMO/dsp/DynamicStiffString.cpp:284:39
	vldr	s28, [r4, #136]
.Ltmp346:
	.loc	40 282 17               @ /root/Bela/projects/NIEMO/dsp/DynamicStiffString.cpp:282:17
	mvn	r3, #-2147483648
.Ltmp347:
	.loc	40 282 17 is_stmt 0     @ /root/Bela/projects/NIEMO/dsp/DynamicStiffString.cpp:282:17
	ldr	r2, [r4, #20]
.Ltmp348:
	.loc	40 282 17               @ /root/Bela/projects/NIEMO/dsp/DynamicStiffString.cpp:282:17
	tst	r2, r3
	beq	.LBB2_7
@ BB#16:                                @ %.noexc
                                        @   in Loop: Header=BB2_8 Depth=1
.Ltmp349:
	.loc	40 288 44 is_stmt 1     @ /root/Bela/projects/NIEMO/dsp/DynamicStiffString.cpp:288:44
	vldr	s0, [r4]
	.loc	40 285 44               @ /root/Bela/projects/NIEMO/dsp/DynamicStiffString.cpp:285:44
	vadd.f32	d17, d14, d7
.Ltmp350:
	@DEBUG_VALUE: NfracNextMin <- undef
	vmov.f64	d8, d9
.Ltmp351:
	.loc	8 104 27                @ /usr/bin/../lib/gcc/arm-linux-gnueabihf/6.3.0/../../../../include/c++/6.3.0/ext/new_allocator.h:104:27
	mov	r0, #16
	mov	r5, lr
.Ltmp352:
	.loc	40 288 44               @ /root/Bela/projects/NIEMO/dsp/DynamicStiffString.cpp:288:44
	vcvt.f64.f32	d16, s0
	.loc	40 288 46 is_stmt 0     @ /root/Bela/projects/NIEMO/dsp/DynamicStiffString.cpp:288:46
	vmul.f64	d16, d16, d16
	vorr	d9, d15, d15
	.loc	40 288 52               @ /root/Bela/projects/NIEMO/dsp/DynamicStiffString.cpp:288:52
	vldr	s2, [r4, #40]
	.loc	40 289 79 is_stmt 1     @ /root/Bela/projects/NIEMO/dsp/DynamicStiffString.cpp:289:79
	vmul.f32	d15, d17, d17
	.loc	40 288 61               @ /root/Bela/projects/NIEMO/dsp/DynamicStiffString.cpp:288:61
	vldr	s4, [r4, #56]
	.loc	40 288 112 is_stmt 0    @ /root/Bela/projects/NIEMO/dsp/DynamicStiffString.cpp:288:112
	vmul.f64	d17, d16, d16
	str	r12, [sp, #12]          @ 4-byte Spill
	vmul.f64	d12, d17, d25
	.loc	40 288 46               @ /root/Bela/projects/NIEMO/dsp/DynamicStiffString.cpp:288:46
	vmov.f64	d17, #1.600000e+01
	vmul.f64	d16, d16, d17
	.loc	40 288 52               @ /root/Bela/projects/NIEMO/dsp/DynamicStiffString.cpp:288:52
	vcvt.f64.f32	d17, s2
	.loc	40 288 50               @ /root/Bela/projects/NIEMO/dsp/DynamicStiffString.cpp:288:50
	vmul.f64	d16, d16, d17
	.loc	40 288 61               @ /root/Bela/projects/NIEMO/dsp/DynamicStiffString.cpp:288:61
	vcvt.f64.f32	d17, s4
	.loc	40 288 59               @ /root/Bela/projects/NIEMO/dsp/DynamicStiffString.cpp:288:59
	vmul.f64	d13, d16, d17
	.loc	40 289 157 is_stmt 1    @ /root/Bela/projects/NIEMO/dsp/DynamicStiffString.cpp:289:157
	vmul.f32	d0, d15, d15
	.loc	40 289 65 is_stmt 0     @ /root/Bela/projects/NIEMO/dsp/DynamicStiffString.cpp:289:65
	vcvt.f64.f32	d16, s30
	.loc	40 289 113              @ /root/Bela/projects/NIEMO/dsp/DynamicStiffString.cpp:289:113
	vcvt.f64.f32	d18, s0
	.loc	40 289 112              @ /root/Bela/projects/NIEMO/dsp/DynamicStiffString.cpp:289:112
	vdiv.f64	d17, d12, d18
	.loc	40 289 63               @ /root/Bela/projects/NIEMO/dsp/DynamicStiffString.cpp:289:63
	vdiv.f64	d16, d13, d16
.Ltmp353:
	@DEBUG_VALUE: allocate:__n <- 4
	@DEBUG_VALUE: allocate:__n <- 4
	@DEBUG_VALUE: _M_allocate:__n <- 4
	@DEBUG_VALUE: _M_create_storage:__n <- 4
	@DEBUG_VALUE: _Vector_base:__n <- 4
	@DEBUG_VALUE: vector:__n <- 4
	.loc	40 289 95               @ /root/Bela/projects/NIEMO/dsp/DynamicStiffString.cpp:289:95
	vsub.f64	d16, d16, d17
.Ltmp354:
	.loc	8 104 27 is_stmt 1      @ /usr/bin/../lib/gcc/arm-linux-gnueabihf/6.3.0/../../../../include/c++/6.3.0/ext/new_allocator.h:104:27
	vstr	d16, [sp]               @ 8-byte Spill
	bl	_Znwj
.Ltmp355:
	@DEBUG_VALUE: _M_deallocate:__p <- %R0
	@DEBUG_VALUE: deallocate:__p <- %R0
	@DEBUG_VALUE: deallocate:__p <- %R0
	.loc	40 296 98               @ /root/Bela/projects/NIEMO/dsp/DynamicStiffString.cpp:296:98
	vldr	s0, [r4, #4]
	.loc	40 296 86 is_stmt 0     @ /root/Bela/projects/NIEMO/dsp/DynamicStiffString.cpp:296:86
	vldr	s2, [r4, #20]
	.loc	40 298 154 is_stmt 1    @ /root/Bela/projects/NIEMO/dsp/DynamicStiffString.cpp:298:154
	vmul.f32	d2, d0, d15
	.loc	40 296 111              @ /root/Bela/projects/NIEMO/dsp/DynamicStiffString.cpp:296:111
	vldr	s6, [r4]
	vorr	d15, d9, d9
	.loc	40 296 117 is_stmt 0    @ /root/Bela/projects/NIEMO/dsp/DynamicStiffString.cpp:296:117
	vldr	s8, [r4, #16]
	.loc	40 296 86               @ /root/Bela/projects/NIEMO/dsp/DynamicStiffString.cpp:296:86
	vcvt.f64.f32	d18, s2
	.loc	40 284 45 is_stmt 1     @ /root/Bela/projects/NIEMO/dsp/DynamicStiffString.cpp:284:45
	vadd.f32	d17, d14, d15
.Ltmp356:
	@DEBUG_VALUE: NfracNextPlus <- undef
	.loc	40 298 126              @ /root/Bela/projects/NIEMO/dsp/DynamicStiffString.cpp:298:126
	vcvt.f64.f32	d16, s4
	.loc	40 288 81               @ /root/Bela/projects/NIEMO/dsp/DynamicStiffString.cpp:288:81
	vmul.f32	d5, d17, d17
	.loc	40 288 46 is_stmt 0     @ /root/Bela/projects/NIEMO/dsp/DynamicStiffString.cpp:288:46
	vmov.f64	d19, #1.600000e+01
	.loc	40 296 159 is_stmt 1    @ /root/Bela/projects/NIEMO/dsp/DynamicStiffString.cpp:296:159
	vmul.f32	d2, d0, d5
	.loc	40 296 84 is_stmt 0     @ /root/Bela/projects/NIEMO/dsp/DynamicStiffString.cpp:296:84
	vmul.f64	d18, d18, d19
	.loc	40 296 129              @ /root/Bela/projects/NIEMO/dsp/DynamicStiffString.cpp:296:129
	vcvt.f64.f32	d17, s4
	.loc	40 296 90               @ /root/Bela/projects/NIEMO/dsp/DynamicStiffString.cpp:296:90
	vldr	s4, [r4, #56]
	.loc	40 296 98               @ /root/Bela/projects/NIEMO/dsp/DynamicStiffString.cpp:296:98
	vcvt.f64.f32	d20, s0
	.loc	40 296 90               @ /root/Bela/projects/NIEMO/dsp/DynamicStiffString.cpp:296:90
	vcvt.f64.f32	d19, s4
	.loc	40 296 92               @ /root/Bela/projects/NIEMO/dsp/DynamicStiffString.cpp:296:92
	vmul.f64	d19, d19, d19
	vmul.f64	d18, d18, d19
	.loc	40 296 96               @ /root/Bela/projects/NIEMO/dsp/DynamicStiffString.cpp:296:96
	vdiv.f64	d18, d18, d20
.Ltmp357:
	.loc	40 270 130 is_stmt 1    @ /root/Bela/projects/NIEMO/dsp/DynamicStiffString.cpp:270:130
	vmov.f64	d20, #4.000000e+00
.Ltmp358:
	.loc	40 296 112              @ /root/Bela/projects/NIEMO/dsp/DynamicStiffString.cpp:296:112
	vmul.f64	d19, d19, d20
	.loc	40 296 111 is_stmt 0    @ /root/Bela/projects/NIEMO/dsp/DynamicStiffString.cpp:296:111
	vcvt.f64.f32	d20, s6
	.loc	40 296 115              @ /root/Bela/projects/NIEMO/dsp/DynamicStiffString.cpp:296:115
	vmul.f64	d20, d20, d20
	vmul.f64	d19, d20, d19
	.loc	40 296 117              @ /root/Bela/projects/NIEMO/dsp/DynamicStiffString.cpp:296:117
	vcvt.f64.f32	d20, s8
	.loc	40 296 122              @ /root/Bela/projects/NIEMO/dsp/DynamicStiffString.cpp:296:122
	vmul.f64	d19, d19, d20
	.loc	40 288 163 is_stmt 1    @ /root/Bela/projects/NIEMO/dsp/DynamicStiffString.cpp:288:163
	vmul.f32	d3, d5, d5
	.loc	40 288 66 is_stmt 0     @ /root/Bela/projects/NIEMO/dsp/DynamicStiffString.cpp:288:66
	vcvt.f64.f32	d20, s10
	.loc	40 296 102 is_stmt 1    @ /root/Bela/projects/NIEMO/dsp/DynamicStiffString.cpp:296:102
	vmul.f64	d18, d19, d18
	.loc	40 288 116              @ /root/Bela/projects/NIEMO/dsp/DynamicStiffString.cpp:288:116
	vcvt.f64.f32	d19, s6
	.loc	40 288 115 is_stmt 0    @ /root/Bela/projects/NIEMO/dsp/DynamicStiffString.cpp:288:115
	vdiv.f64	d19, d12, d19
	.loc	40 288 64               @ /root/Bela/projects/NIEMO/dsp/DynamicStiffString.cpp:288:64
	vdiv.f64	d20, d13, d20
	vmov.f64	d9, d8
	.loc	40 298 160 is_stmt 1    @ /root/Bela/projects/NIEMO/dsp/DynamicStiffString.cpp:298:160
	vmul.f64	d16, d16, d9
	.loc	40 296 165              @ /root/Bela/projects/NIEMO/dsp/DynamicStiffString.cpp:296:165
	vmul.f64	d17, d17, d9
	.loc	40 296 126 is_stmt 0    @ /root/Bela/projects/NIEMO/dsp/DynamicStiffString.cpp:296:126
	vdiv.f64	d17, d18, d17
	.loc	40 298 123 is_stmt 1    @ /root/Bela/projects/NIEMO/dsp/DynamicStiffString.cpp:298:123
	vdiv.f64	d16, d18, d16
	.loc	40 288 98               @ /root/Bela/projects/NIEMO/dsp/DynamicStiffString.cpp:288:98
	vsub.f64	d19, d20, d19
	.loc	40 289 35               @ /root/Bela/projects/NIEMO/dsp/DynamicStiffString.cpp:289:35
	vldr	d20, [sp]               @ 8-byte Reload
	.loc	40 288 36               @ /root/Bela/projects/NIEMO/dsp/DynamicStiffString.cpp:288:36
	vcvt.f32.f64	s8, d19
.Ltmp359:
	@DEBUG_VALUE: bCoeffPlus <- %S8
	.loc	40 289 35               @ /root/Bela/projects/NIEMO/dsp/DynamicStiffString.cpp:289:35
	vcvt.f32.f64	s6, d20
.Ltmp360:
	@DEBUG_VALUE: bCoeffMin <- %S6
	.loc	40 298 62               @ /root/Bela/projects/NIEMO/dsp/DynamicStiffString.cpp:298:62
	vmul.f32	d5, d3, d3
	.loc	40 296 207              @ /root/Bela/projects/NIEMO/dsp/DynamicStiffString.cpp:296:207
	vmul.f32	d20, d2, d2
	.loc	40 298 34               @ /root/Bela/projects/NIEMO/dsp/DynamicStiffString.cpp:298:34
	vneg.f32	d2, d3
	.loc	40 298 52 is_stmt 0     @ /root/Bela/projects/NIEMO/dsp/DynamicStiffString.cpp:298:52
	vcvt.f64.f32	d18, s10
	.loc	40 296 64 is_stmt 1     @ /root/Bela/projects/NIEMO/dsp/DynamicStiffString.cpp:296:64
	vmul.f32	d5, d4, d4
	.loc	40 298 74               @ /root/Bela/projects/NIEMO/dsp/DynamicStiffString.cpp:298:74
	vsub.f64	d16, d18, d16
	.loc	40 296 53               @ /root/Bela/projects/NIEMO/dsp/DynamicStiffString.cpp:296:53
	vcvt.f64.f32	d19, s10
	.loc	40 296 77 is_stmt 0     @ /root/Bela/projects/NIEMO/dsp/DynamicStiffString.cpp:296:77
	vsub.f64	d17, d19, d17
	.loc	40 296 207              @ /root/Bela/projects/NIEMO/dsp/DynamicStiffString.cpp:296:207
	vmul.f32	d1, d20, d1
	.loc	40 296 48               @ /root/Bela/projects/NIEMO/dsp/DynamicStiffString.cpp:296:48
	vsqrt.f64	d17, d17
	.loc	40 298 47 is_stmt 1     @ /root/Bela/projects/NIEMO/dsp/DynamicStiffString.cpp:298:47
	vsqrt.f64	d16, d16
	.loc	40 296 211              @ /root/Bela/projects/NIEMO/dsp/DynamicStiffString.cpp:296:211
	vdiv.f32	s0, s2, s0
	.loc	40 296 34 is_stmt 0     @ /root/Bela/projects/NIEMO/dsp/DynamicStiffString.cpp:296:34
	vneg.f32	d1, d4
	.loc	40 296 200              @ /root/Bela/projects/NIEMO/dsp/DynamicStiffString.cpp:296:200
	vcvt.f64.f32	d18, s0
	.loc	40 296 34               @ /root/Bela/projects/NIEMO/dsp/DynamicStiffString.cpp:296:34
	vcvt.f64.f32	d19, s2
	.loc	40 298 34 is_stmt 1     @ /root/Bela/projects/NIEMO/dsp/DynamicStiffString.cpp:298:34
	vcvt.f64.f32	d20, s4
	.loc	40 296 198              @ /root/Bela/projects/NIEMO/dsp/DynamicStiffString.cpp:296:198
	vmul.f64	d18, d18, d10
	.loc	40 296 46 is_stmt 0     @ /root/Bela/projects/NIEMO/dsp/DynamicStiffString.cpp:296:46
	vadd.f64	d21, d17, d19
	.loc	40 301 46 is_stmt 1     @ /root/Bela/projects/NIEMO/dsp/DynamicStiffString.cpp:301:46
	vsub.f64	d17, d19, d17
	.loc	40 298 45               @ /root/Bela/projects/NIEMO/dsp/DynamicStiffString.cpp:298:45
	vadd.f64	d22, d16, d20
	.loc	40 304 45               @ /root/Bela/projects/NIEMO/dsp/DynamicStiffString.cpp:304:45
	vsub.f64	d16, d20, d16
	.loc	40 301 192              @ /root/Bela/projects/NIEMO/dsp/DynamicStiffString.cpp:301:192
	vdiv.f64	d17, d17, d18
	.loc	40 304 187              @ /root/Bela/projects/NIEMO/dsp/DynamicStiffString.cpp:304:187
	vdiv.f64	d16, d16, d18
	.loc	40 296 192              @ /root/Bela/projects/NIEMO/dsp/DynamicStiffString.cpp:296:192
	vdiv.f64	d19, d21, d18
	.loc	40 298 187              @ /root/Bela/projects/NIEMO/dsp/DynamicStiffString.cpp:298:187
	vdiv.f64	d20, d22, d18
	.loc	40 296 28 discriminator 1 @ /root/Bela/projects/NIEMO/dsp/DynamicStiffString.cpp:296:28
	vsqrt.f64	d18, d19
	.loc	40 298 28 discriminator 1 @ /root/Bela/projects/NIEMO/dsp/DynamicStiffString.cpp:298:28
	vsqrt.f64	d19, d20
	.loc	40 301 28 discriminator 1 @ /root/Bela/projects/NIEMO/dsp/DynamicStiffString.cpp:301:28
	vsqrt.f64	d17, d17
	.loc	40 304 28 discriminator 1 @ /root/Bela/projects/NIEMO/dsp/DynamicStiffString.cpp:304:28
	vsqrt.f64	d16, d16
	.loc	40 296 28               @ /root/Bela/projects/NIEMO/dsp/DynamicStiffString.cpp:296:28
	vcvt.f32.f64	s0, d18
	.loc	40 298 28               @ /root/Bela/projects/NIEMO/dsp/DynamicStiffString.cpp:298:28
	vcvt.f32.f64	s2, d19
	.loc	40 301 28               @ /root/Bela/projects/NIEMO/dsp/DynamicStiffString.cpp:301:28
	vcvt.f32.f64	s4, d17
.Ltmp361:
	@DEBUG_VALUE: operator[]:__n <- 0
	.loc	40 304 28               @ /root/Bela/projects/NIEMO/dsp/DynamicStiffString.cpp:304:28
	vcvt.f32.f64	s6, d16
.Ltmp362:
	@DEBUG_VALUE: i <- 0
	@DEBUG_VALUE: idxToChoose <- -1
	@DEBUG_VALUE: rDiff <- 1.000000e+00
	@DEBUG_VALUE: operator[]:__n <- 3
	@DEBUG_VALUE: operator[]:__n <- 2
	@DEBUG_VALUE: operator[]:__n <- 1
	.loc	40 296 26               @ /root/Bela/projects/NIEMO/dsp/DynamicStiffString.cpp:296:26
	vstr	s0, [r0]
	.loc	40 298 26               @ /root/Bela/projects/NIEMO/dsp/DynamicStiffString.cpp:298:26
	vstr	s2, [r0, #4]
	.loc	40 301 26               @ /root/Bela/projects/NIEMO/dsp/DynamicStiffString.cpp:301:26
	vstr	s4, [r0, #8]
	.loc	40 304 26               @ /root/Bela/projects/NIEMO/dsp/DynamicStiffString.cpp:304:26
	vstr	s6, [r0, #12]
.Ltmp363:
	.loc	8 110 9                 @ /usr/bin/../lib/gcc/arm-linux-gnueabihf/6.3.0/../../../../include/c++/6.3.0/ext/new_allocator.h:110:9
	bl	_ZdlPv
.Ltmp364:
	vldr	s13, .LCPI2_15
	mov	lr, r5
.Ltmp365:
	.loc	40 333 161              @ /root/Bela/projects/NIEMO/dsp/DynamicStiffString.cpp:333:161
	vldr	d26, .LCPI2_14
.Ltmp366:
	.loc	40 285 44               @ /root/Bela/projects/NIEMO/dsp/DynamicStiffString.cpp:285:44
	vldr	s14, .LCPI2_12
.Ltmp367:
	.loc	40 270 130              @ /root/Bela/projects/NIEMO/dsp/DynamicStiffString.cpp:270:130
	vmov.f64	d25, #4.000000e+00
	ldr	r12, [sp, #12]          @ 4-byte Reload
.Ltmp368:
	.loc	12 781 32               @ /usr/bin/../lib/gcc/arm-linux-gnueabihf/6.3.0/../../../../include/c++/6.3.0/bits/stl_vector.h:781:32
	ldr	r0, [r4, #68]
	vmov.f64	d24, #-4.000000e+00
	b	.LBB2_31
.Ltmp369:
.LBB2_17:                               @   in Loop: Header=BB2_8 Depth=1
	.loc	40 262 41               @ /root/Bela/projects/NIEMO/dsp/DynamicStiffString.cpp:262:41
	vldr	s0, [r4, #52]
	.loc	40 262 39 is_stmt 0     @ /root/Bela/projects/NIEMO/dsp/DynamicStiffString.cpp:262:39
	vmul.f32	d11, d0, d15
.Ltmp370:
	@DEBUG_VALUE: refreshCoefficients:paramDiffMax <- %S22
	b	.LBB2_31
.Ltmp371:
	.p2align	2
@ BB#18:
.LCPI2_11:
	.long	1028443341              @ float 0.0500000007
	.p2align	2
@ BB#19:
.LCPI2_12:
	.long	3175926989              @ float -0.0500000007
	.p2align	3
@ BB#20:
.LCPI2_13:
	.long	1413754136              @ double 3.1415926535897931
	.long	1074340347
	.p2align	3
@ BB#21:
.LCPI2_14:
	.long	1413754136              @ double -12.566370614359172
	.long	3223921147
	.p2align	2
@ BB#22:
.LCPI2_15:
	.long	1120403456              @ float 100
.LBB2_23:                               @   in Loop: Header=BB2_8 Depth=1
.Ltmp372:
	.loc	12 781 32 is_stmt 1     @ /usr/bin/../lib/gcc/arm-linux-gnueabihf/6.3.0/../../../../include/c++/6.3.0/bits/stl_vector.h:781:32
	ldr	r1, [r4, #80]
.Ltmp373:
	.loc	40 268 35               @ /root/Bela/projects/NIEMO/dsp/DynamicStiffString.cpp:268:35
	ldr	r2, [r0, #4]
	.loc	40 270 34               @ /root/Bela/projects/NIEMO/dsp/DynamicStiffString.cpp:270:34
	vldr	s0, [r4, #56]
	.loc	40 268 54               @ /root/Bela/projects/NIEMO/dsp/DynamicStiffString.cpp:268:54
	vldr	s2, [r1, #4]
	adr	r1, .LCPI2_16
	.loc	40 268 34 is_stmt 0     @ /root/Bela/projects/NIEMO/dsp/DynamicStiffString.cpp:268:34
	vldr	s4, [r2]
	.loc	40 268 25               @ /root/Bela/projects/NIEMO/dsp/DynamicStiffString.cpp:268:25
	vldr	s6, [r4, #136]
	.loc	40 268 84               @ /root/Bela/projects/NIEMO/dsp/DynamicStiffString.cpp:268:84
	vcmpe.f32	s4, s2
	.loc	40 270 74 is_stmt 1     @ /root/Bela/projects/NIEMO/dsp/DynamicStiffString.cpp:270:74
	vldr	s10, [r4, #16]
	.loc	40 268 84               @ /root/Bela/projects/NIEMO/dsp/DynamicStiffString.cpp:268:84
	vmrs	APSR_nzcv, fpscr
	.loc	40 270 88               @ /root/Bela/projects/NIEMO/dsp/DynamicStiffString.cpp:270:88
	vcvt.f64.f32	d16, s0
.Ltmp374:
	@DEBUG_VALUE: refreshCoefficients:NfracNext <- %S2
	.loc	40 270 175 is_stmt 0    @ /root/Bela/projects/NIEMO/dsp/DynamicStiffString.cpp:270:175
	vmul.f64	d18, d16, d25
	.loc	40 270 150              @ /root/Bela/projects/NIEMO/dsp/DynamicStiffString.cpp:270:150
	vldr	s8, [r4, #12]
	.loc	40 270 216              @ /root/Bela/projects/NIEMO/dsp/DynamicStiffString.cpp:270:216
	vldr	s4, [r4, #4]
	.loc	40 268 84 is_stmt 1     @ /root/Bela/projects/NIEMO/dsp/DynamicStiffString.cpp:268:84
	addgt	r1, r1, #4
	vldr	s2, [r1]
.Ltmp375:
	.loc	40 268 31 is_stmt 0     @ /root/Bela/projects/NIEMO/dsp/DynamicStiffString.cpp:268:31
	vadd.f32	d1, d1, d3
	.loc	40 270 42 is_stmt 1     @ /root/Bela/projects/NIEMO/dsp/DynamicStiffString.cpp:270:42
	vldr	s6, [r4]
	.loc	40 270 44 is_stmt 0     @ /root/Bela/projects/NIEMO/dsp/DynamicStiffString.cpp:270:44
	vmul.f32	d3, d3, d3
	.loc	40 270 96               @ /root/Bela/projects/NIEMO/dsp/DynamicStiffString.cpp:270:96
	vcvt.f64.f32	d17, s2
	.loc	40 270 106              @ /root/Bela/projects/NIEMO/dsp/DynamicStiffString.cpp:270:106
	vmul.f64	d17, d17, d17
	.loc	40 270 142              @ /root/Bela/projects/NIEMO/dsp/DynamicStiffString.cpp:270:142
	vmul.f64	d16, d16, d17
	.loc	40 270 191              @ /root/Bela/projects/NIEMO/dsp/DynamicStiffString.cpp:270:191
	vmul.f64	d18, d18, d17
	.loc	40 270 72               @ /root/Bela/projects/NIEMO/dsp/DynamicStiffString.cpp:270:72
	vmul.f32	d17, d0, d1
	.loc	40 270 205              @ /root/Bela/projects/NIEMO/dsp/DynamicStiffString.cpp:270:205
	vldr	s0, [r4, #40]
	.loc	40 270 142              @ /root/Bela/projects/NIEMO/dsp/DynamicStiffString.cpp:270:142
	vmul.f64	d16, d16, d16
	.loc	40 270 205              @ /root/Bela/projects/NIEMO/dsp/DynamicStiffString.cpp:270:205
	vcvt.f64.f32	d19, s0
	.loc	40 270 84               @ /root/Bela/projects/NIEMO/dsp/DynamicStiffString.cpp:270:84
	vldr	s0, [r4, #24]
	.loc	40 270 72               @ /root/Bela/projects/NIEMO/dsp/DynamicStiffString.cpp:270:72
	vmul.f32	d17, d17, d17
	.loc	40 270 203              @ /root/Bela/projects/NIEMO/dsp/DynamicStiffString.cpp:270:203
	vmul.f64	d18, d18, d19
	.loc	40 270 84               @ /root/Bela/projects/NIEMO/dsp/DynamicStiffString.cpp:270:84
	vcvt.f64.f32	d20, s0
	.loc	40 270 130              @ /root/Bela/projects/NIEMO/dsp/DynamicStiffString.cpp:270:130
	vmul.f64	d20, d20, d25
	.loc	40 270 144              @ /root/Bela/projects/NIEMO/dsp/DynamicStiffString.cpp:270:144
	vldr	s0, [r4, #20]
	.loc	40 270 60               @ /root/Bela/projects/NIEMO/dsp/DynamicStiffString.cpp:270:60
	vmul.f32	d19, d5, d3
	.loc	40 270 144              @ /root/Bela/projects/NIEMO/dsp/DynamicStiffString.cpp:270:144
	vcvt.f64.f32	d21, s0
	.loc	40 270 130              @ /root/Bela/projects/NIEMO/dsp/DynamicStiffString.cpp:270:130
	vmul.f64	d20, d20, d21
	.loc	40 270 163              @ /root/Bela/projects/NIEMO/dsp/DynamicStiffString.cpp:270:163
	vcvt.f64.f32	d21, s6
	.loc	40 270 156              @ /root/Bela/projects/NIEMO/dsp/DynamicStiffString.cpp:270:156
	vmul.f32	d0, d4, d3
	.loc	40 270 169              @ /root/Bela/projects/NIEMO/dsp/DynamicStiffString.cpp:270:169
	vsub.f64	d18, d21, d18
	.loc	40 270 142              @ /root/Bela/projects/NIEMO/dsp/DynamicStiffString.cpp:270:142
	vmul.f64	d16, d20, d16
	.loc	40 270 72               @ /root/Bela/projects/NIEMO/dsp/DynamicStiffString.cpp:270:72
	vmul.f32	d1, d19, d17
	.loc	40 270 150              @ /root/Bela/projects/NIEMO/dsp/DynamicStiffString.cpp:270:150
	vcvt.f64.f32	d17, s0
	.loc	40 270 34               @ /root/Bela/projects/NIEMO/dsp/DynamicStiffString.cpp:270:34
	vcvt.f64.f32	d19, s2
	.loc	40 270 160              @ /root/Bela/projects/NIEMO/dsp/DynamicStiffString.cpp:270:160
	vmul.f64	d17, d18, d17
	.loc	40 270 76               @ /root/Bela/projects/NIEMO/dsp/DynamicStiffString.cpp:270:76
	vadd.f64	d16, d16, d19
	.loc	40 270 147              @ /root/Bela/projects/NIEMO/dsp/DynamicStiffString.cpp:270:147
	vdiv.f64	d16, d16, d17
	.loc	40 270 216              @ /root/Bela/projects/NIEMO/dsp/DynamicStiffString.cpp:270:216
	vcvt.f64.f32	d17, s4
	b	.LBB2_30
.Ltmp376:
	.p2align	2
@ BB#24:
.LCPI2_16:
	.long	1028443341              @ float 0.0500000007
	.long	3175926989              @ float -0.0500000007
.LBB2_25:                               @   in Loop: Header=BB2_8 Depth=1
.Ltmp377:
	.loc	12 781 32 is_stmt 1     @ /usr/bin/../lib/gcc/arm-linux-gnueabihf/6.3.0/../../../../include/c++/6.3.0/bits/stl_vector.h:781:32
	ldr	r1, [r4, #80]
.Ltmp378:
	.loc	40 277 41               @ /root/Bela/projects/NIEMO/dsp/DynamicStiffString.cpp:277:41
	vldr	s4, [r4, #12]
	.loc	40 275 54               @ /root/Bela/projects/NIEMO/dsp/DynamicStiffString.cpp:275:54
	add	r1, r1, r7
	.loc	40 277 81               @ /root/Bela/projects/NIEMO/dsp/DynamicStiffString.cpp:277:81
	vldr	s2, [r4, #4]
	.loc	40 277 49 is_stmt 0     @ /root/Bela/projects/NIEMO/dsp/DynamicStiffString.cpp:277:49
	vldr	s10, [r4]
	.loc	40 275 34 is_stmt 1     @ /root/Bela/projects/NIEMO/dsp/DynamicStiffString.cpp:275:34
	vldr	s0, [r4, #16]
	adr	r2, .LCPI2_16
	.loc	40 275 54 is_stmt 0     @ /root/Bela/projects/NIEMO/dsp/DynamicStiffString.cpp:275:54
	vldr	s6, [r1]
	.loc	40 275 25               @ /root/Bela/projects/NIEMO/dsp/DynamicStiffString.cpp:275:25
	vldr	s8, [r4, #136]
	.loc	40 275 84               @ /root/Bela/projects/NIEMO/dsp/DynamicStiffString.cpp:275:84
	vcmpe.f32	s0, s6
	.loc	40 277 128 is_stmt 1    @ /root/Bela/projects/NIEMO/dsp/DynamicStiffString.cpp:277:128
	vldr	s12, [r4, #24]
	.loc	40 275 84               @ /root/Bela/projects/NIEMO/dsp/DynamicStiffString.cpp:275:84
	vmrs	APSR_nzcv, fpscr
	.loc	40 277 41               @ /root/Bela/projects/NIEMO/dsp/DynamicStiffString.cpp:277:41
	vcvt.f64.f32	d18, s4
	.loc	40 275 84               @ /root/Bela/projects/NIEMO/dsp/DynamicStiffString.cpp:275:84
	addlt	r2, r2, #4
	vldr	s6, [r2]
	.loc	40 275 31 is_stmt 0     @ /root/Bela/projects/NIEMO/dsp/DynamicStiffString.cpp:275:31
	vadd.f32	d3, d3, d4
.Ltmp379:
	@DEBUG_VALUE: refreshCoefficients:NfracNext <- %S6
	.loc	40 277 45 is_stmt 1     @ /root/Bela/projects/NIEMO/dsp/DynamicStiffString.cpp:277:45
	vldr	s8, [r4, #56]
	vcvt.f64.f32	d17, s8
	.loc	40 277 57 is_stmt 0     @ /root/Bela/projects/NIEMO/dsp/DynamicStiffString.cpp:277:57
	vcvt.f64.f32	d16, s6
	.loc	40 277 67               @ /root/Bela/projects/NIEMO/dsp/DynamicStiffString.cpp:277:67
	vmul.f64	d16, d16, d16
	.loc	40 277 186              @ /root/Bela/projects/NIEMO/dsp/DynamicStiffString.cpp:277:186
	vmul.f64	d19, d17, d16
	.loc	40 277 39               @ /root/Bela/projects/NIEMO/dsp/DynamicStiffString.cpp:277:39
	vmul.f64	d17, d17, d18
	.loc	40 277 49               @ /root/Bela/projects/NIEMO/dsp/DynamicStiffString.cpp:277:49
	vcvt.f64.f32	d18, s10
	.loc	40 277 51               @ /root/Bela/projects/NIEMO/dsp/DynamicStiffString.cpp:277:51
	vmul.f64	d18, d18, d18
	vmul.f64	d17, d18, d17
	.loc	40 277 67               @ /root/Bela/projects/NIEMO/dsp/DynamicStiffString.cpp:277:67
	vmul.f64	d16, d17, d16
	.loc	40 277 186              @ /root/Bela/projects/NIEMO/dsp/DynamicStiffString.cpp:277:186
	vmul.f64	d17, d19, d19
	.loc	40 277 81               @ /root/Bela/projects/NIEMO/dsp/DynamicStiffString.cpp:277:81
	vcvt.f64.f32	d18, s2
	.loc	40 277 79               @ /root/Bela/projects/NIEMO/dsp/DynamicStiffString.cpp:277:79
	vmul.f64	d16, d16, d18
	.loc	40 277 128              @ /root/Bela/projects/NIEMO/dsp/DynamicStiffString.cpp:277:128
	vcvt.f64.f32	d18, s12
	.loc	40 277 87               @ /root/Bela/projects/NIEMO/dsp/DynamicStiffString.cpp:277:87
	vldr	s12, [r4, #40]
	.loc	40 277 186              @ /root/Bela/projects/NIEMO/dsp/DynamicStiffString.cpp:277:186
	vmul.f64	d17, d17, d18
	.loc	40 277 87               @ /root/Bela/projects/NIEMO/dsp/DynamicStiffString.cpp:277:87
	vcvt.f64.f32	d18, s12
	.loc	40 277 188              @ /root/Bela/projects/NIEMO/dsp/DynamicStiffString.cpp:277:188
	vldr	s12, [r4, #20]
	.loc	40 277 85               @ /root/Bela/projects/NIEMO/dsp/DynamicStiffString.cpp:277:85
	vmul.f64	d16, d16, d18
	.loc	40 277 188              @ /root/Bela/projects/NIEMO/dsp/DynamicStiffString.cpp:277:188
	vcvt.f64.f32	d18, s12
	vmul.f64	d17, d17, d18
	vadd.f64	d16, d17, d16
	.loc	40 277 102              @ /root/Bela/projects/NIEMO/dsp/DynamicStiffString.cpp:277:102
	vmul.f32	d17, d5, d5
	vmul.f64	d16, d16, d24
	.loc	40 277 110              @ /root/Bela/projects/NIEMO/dsp/DynamicStiffString.cpp:277:110
	vmul.f32	d18, d17, d17
	vmul.f32	d18, d18, d2
	.loc	40 277 114              @ /root/Bela/projects/NIEMO/dsp/DynamicStiffString.cpp:277:114
	vmul.f32	d1, d18, d1
	.loc	40 277 96               @ /root/Bela/projects/NIEMO/dsp/DynamicStiffString.cpp:277:96
	vcvt.f64.f32	d18, s2
	vadd.f64	d16, d18, d16
	.loc	40 277 220              @ /root/Bela/projects/NIEMO/dsp/DynamicStiffString.cpp:277:220
	vmul.f32	d18, d4, d3
	vmul.f32	d18, d18, d18
	vmul.f32	d1, d18, d17
	.loc	40 277 193              @ /root/Bela/projects/NIEMO/dsp/DynamicStiffString.cpp:277:193
	vcvt.f64.f32	d17, s2
	.loc	40 277 191              @ /root/Bela/projects/NIEMO/dsp/DynamicStiffString.cpp:277:191
	vdiv.f64	d16, d16, d17
	b	.LBB2_29
.Ltmp380:
.LBB2_26:                               @   in Loop: Header=BB2_8 Depth=1
	.loc	12 781 32 is_stmt 1     @ /usr/bin/../lib/gcc/arm-linux-gnueabihf/6.3.0/../../../../include/c++/6.3.0/bits/stl_vector.h:781:32
	ldr	r2, [r4, #80]
.Ltmp381:
	.loc	40 340 34               @ /root/Bela/projects/NIEMO/dsp/DynamicStiffString.cpp:340:34
	vldr	s0, [r1]
	adr	r1, .LCPI2_16
	.loc	40 340 25 is_stmt 0     @ /root/Bela/projects/NIEMO/dsp/DynamicStiffString.cpp:340:25
	vldr	s4, [r4, #136]
	.loc	40 340 54               @ /root/Bela/projects/NIEMO/dsp/DynamicStiffString.cpp:340:54
	vldr	s2, [r2, #16]
	.loc	40 341 41 is_stmt 1     @ /root/Bela/projects/NIEMO/dsp/DynamicStiffString.cpp:341:41
	vldr	s8, [r4, #12]
	.loc	40 340 84               @ /root/Bela/projects/NIEMO/dsp/DynamicStiffString.cpp:340:84
	vcmpe.f32	s0, s2
	.loc	40 341 45               @ /root/Bela/projects/NIEMO/dsp/DynamicStiffString.cpp:341:45
	vldr	s10, [r4, #56]
	.loc	40 340 84               @ /root/Bela/projects/NIEMO/dsp/DynamicStiffString.cpp:340:84
	vmrs	APSR_nzcv, fpscr
	.loc	40 341 41               @ /root/Bela/projects/NIEMO/dsp/DynamicStiffString.cpp:341:41
	vcvt.f64.f32	d19, s8
	.loc	40 341 51 is_stmt 0     @ /root/Bela/projects/NIEMO/dsp/DynamicStiffString.cpp:341:51
	vmul.f64	d19, d19, d24
	.loc	40 341 45               @ /root/Bela/projects/NIEMO/dsp/DynamicStiffString.cpp:341:45
	vcvt.f64.f32	d20, s10
	.loc	40 340 84 is_stmt 1     @ /root/Bela/projects/NIEMO/dsp/DynamicStiffString.cpp:340:84
	addlt	r1, r1, #4
	vldr	s0, [r1]
	.loc	40 341 49               @ /root/Bela/projects/NIEMO/dsp/DynamicStiffString.cpp:341:49
	vldr	s6, [r4]
	.loc	40 340 31               @ /root/Bela/projects/NIEMO/dsp/DynamicStiffString.cpp:340:31
	vadd.f32	d2, d0, d2
.Ltmp382:
	@DEBUG_VALUE: refreshCoefficients:NfracNext <- %S4
	.loc	40 341 81               @ /root/Bela/projects/NIEMO/dsp/DynamicStiffString.cpp:341:81
	vldr	s2, [r4, #4]
	.loc	40 341 39 is_stmt 0     @ /root/Bela/projects/NIEMO/dsp/DynamicStiffString.cpp:341:39
	vmul.f64	d19, d19, d20
	.loc	40 341 57               @ /root/Bela/projects/NIEMO/dsp/DynamicStiffString.cpp:341:57
	vcvt.f64.f32	d16, s4
	.loc	40 341 67               @ /root/Bela/projects/NIEMO/dsp/DynamicStiffString.cpp:341:67
	vmul.f64	d16, d16, d16
	.loc	40 341 220              @ /root/Bela/projects/NIEMO/dsp/DynamicStiffString.cpp:341:220
	vmul.f64	d21, d20, d16
	.loc	40 341 49               @ /root/Bela/projects/NIEMO/dsp/DynamicStiffString.cpp:341:49
	vcvt.f64.f32	d20, s6
	.loc	40 341 51               @ /root/Bela/projects/NIEMO/dsp/DynamicStiffString.cpp:341:51
	vmul.f64	d20, d20, d20
	vmul.f64	d19, d20, d19
	.loc	40 341 67               @ /root/Bela/projects/NIEMO/dsp/DynamicStiffString.cpp:341:67
	vmul.f64	d16, d19, d16
	.loc	40 341 160              @ /root/Bela/projects/NIEMO/dsp/DynamicStiffString.cpp:341:160
	vmul.f32	d17, d5, d2
	.loc	40 341 162              @ /root/Bela/projects/NIEMO/dsp/DynamicStiffString.cpp:341:162
	vldr	s0, [r4, #16]
	.loc	40 341 102              @ /root/Bela/projects/NIEMO/dsp/DynamicStiffString.cpp:341:102
	vmul.f32	d18, d3, d3
	.loc	40 341 87               @ /root/Bela/projects/NIEMO/dsp/DynamicStiffString.cpp:341:87
	vldr	s4, [r4, #40]
.Ltmp383:
	.loc	40 341 81               @ /root/Bela/projects/NIEMO/dsp/DynamicStiffString.cpp:341:81
	vcvt.f64.f32	d20, s2
	.loc	40 341 160              @ /root/Bela/projects/NIEMO/dsp/DynamicStiffString.cpp:341:160
	vmul.f32	d17, d17, d17
	.loc	40 341 174              @ /root/Bela/projects/NIEMO/dsp/DynamicStiffString.cpp:341:174
	vldr	s6, [r4, #24]
	.loc	40 341 110              @ /root/Bela/projects/NIEMO/dsp/DynamicStiffString.cpp:341:110
	vmul.f32	d19, d18, d18
	.loc	40 341 220              @ /root/Bela/projects/NIEMO/dsp/DynamicStiffString.cpp:341:220
	vmul.f64	d21, d21, d21
	.loc	40 341 110              @ /root/Bela/projects/NIEMO/dsp/DynamicStiffString.cpp:341:110
	vmul.f32	d19, d19, d4
	.loc	40 341 148              @ /root/Bela/projects/NIEMO/dsp/DynamicStiffString.cpp:341:148
	vmul.f32	d17, d17, d18
	.loc	40 341 79               @ /root/Bela/projects/NIEMO/dsp/DynamicStiffString.cpp:341:79
	vmul.f64	d16, d16, d20
	.loc	40 341 114              @ /root/Bela/projects/NIEMO/dsp/DynamicStiffString.cpp:341:114
	vmul.f32	d1, d19, d1
	.loc	40 341 160              @ /root/Bela/projects/NIEMO/dsp/DynamicStiffString.cpp:341:160
	vmul.f32	d0, d17, d0
	.loc	40 341 87               @ /root/Bela/projects/NIEMO/dsp/DynamicStiffString.cpp:341:87
	vcvt.f64.f32	d17, s4
	.loc	40 341 122              @ /root/Bela/projects/NIEMO/dsp/DynamicStiffString.cpp:341:122
	vcvt.f64.f32	d19, s0
	.loc	40 341 96               @ /root/Bela/projects/NIEMO/dsp/DynamicStiffString.cpp:341:96
	vcvt.f64.f32	d18, s2
	.loc	40 341 220              @ /root/Bela/projects/NIEMO/dsp/DynamicStiffString.cpp:341:220
	vmul.f64	d20, d21, d25
	.loc	40 341 85               @ /root/Bela/projects/NIEMO/dsp/DynamicStiffString.cpp:341:85
	vmul.f64	d16, d16, d17
	.loc	40 341 94               @ /root/Bela/projects/NIEMO/dsp/DynamicStiffString.cpp:341:94
	vsub.f64	d17, d18, d19
	.loc	40 341 174              @ /root/Bela/projects/NIEMO/dsp/DynamicStiffString.cpp:341:174
	vcvt.f64.f32	d21, s6
	.loc	40 341 220              @ /root/Bela/projects/NIEMO/dsp/DynamicStiffString.cpp:341:220
	vmul.f64	d18, d20, d21
	.loc	40 341 120              @ /root/Bela/projects/NIEMO/dsp/DynamicStiffString.cpp:341:120
	vadd.f64	d16, d17, d16
	.loc	40 341 165              @ /root/Bela/projects/NIEMO/dsp/DynamicStiffString.cpp:341:165
	vdiv.f64	d16, d16, d18
	.loc	40 341 235              @ /root/Bela/projects/NIEMO/dsp/DynamicStiffString.cpp:341:235
	vldr	s0, [r4, #20]
	b	.LBB2_29
.Ltmp384:
.LBB2_27:                               @   in Loop: Header=BB2_8 Depth=1
	@DEBUG_VALUE: refreshCoefficients:paramDiffMax <- 1.000000e+02
	vmov.f32	s22, s13
	b	.LBB2_31
.LBB2_28:                               @   in Loop: Header=BB2_8 Depth=1
.Ltmp385:
	.loc	12 781 32 is_stmt 1     @ /usr/bin/../lib/gcc/arm-linux-gnueabihf/6.3.0/../../../../include/c++/6.3.0/bits/stl_vector.h:781:32
	ldr	r2, [r4, #80]
.Ltmp386:
	.loc	40 347 34               @ /root/Bela/projects/NIEMO/dsp/DynamicStiffString.cpp:347:34
	vldr	s0, [r1]
	adr	r1, .LCPI2_16
	.loc	40 347 25 is_stmt 0     @ /root/Bela/projects/NIEMO/dsp/DynamicStiffString.cpp:347:25
	vldr	s4, [r4, #136]
	.loc	40 347 54               @ /root/Bela/projects/NIEMO/dsp/DynamicStiffString.cpp:347:54
	vldr	s2, [r2, #24]
	.loc	40 349 100 is_stmt 1    @ /root/Bela/projects/NIEMO/dsp/DynamicStiffString.cpp:349:100
	vldr	s6, [r4, #16]
	.loc	40 347 84               @ /root/Bela/projects/NIEMO/dsp/DynamicStiffString.cpp:347:84
	vcmpe.f32	s0, s2
	.loc	40 349 60               @ /root/Bela/projects/NIEMO/dsp/DynamicStiffString.cpp:349:60
	vldr	s2, [r4, #56]
	.loc	40 347 84               @ /root/Bela/projects/NIEMO/dsp/DynamicStiffString.cpp:347:84
	vmrs	APSR_nzcv, fpscr
	.loc	40 349 114              @ /root/Bela/projects/NIEMO/dsp/DynamicStiffString.cpp:349:114
	vcvt.f64.f32	d17, s2
	.loc	40 347 84               @ /root/Bela/projects/NIEMO/dsp/DynamicStiffString.cpp:347:84
	addlt	r1, r1, #4
	vldr	s0, [r1]
	.loc	40 347 31 is_stmt 0     @ /root/Bela/projects/NIEMO/dsp/DynamicStiffString.cpp:347:31
	vadd.f32	d0, d0, d2
.Ltmp387:
	@DEBUG_VALUE: refreshCoefficients:NfracNext <- %S0
	.loc	40 349 110 is_stmt 1    @ /root/Bela/projects/NIEMO/dsp/DynamicStiffString.cpp:349:110
	vldr	s4, [r4, #24]
	vcvt.f64.f32	d18, s4
	.loc	40 349 122 is_stmt 0    @ /root/Bela/projects/NIEMO/dsp/DynamicStiffString.cpp:349:122
	vcvt.f64.f32	d16, s0
	.loc	40 349 132              @ /root/Bela/projects/NIEMO/dsp/DynamicStiffString.cpp:349:132
	vmul.f64	d16, d16, d16
	.loc	40 349 168              @ /root/Bela/projects/NIEMO/dsp/DynamicStiffString.cpp:349:168
	vmul.f64	d19, d16, d17
	.loc	40 349 156              @ /root/Bela/projects/NIEMO/dsp/DynamicStiffString.cpp:349:156
	vmul.f64	d18, d18, d25
	.loc	40 349 168              @ /root/Bela/projects/NIEMO/dsp/DynamicStiffString.cpp:349:168
	vmul.f64	d19, d19, d19
	.loc	40 349 34               @ /root/Bela/projects/NIEMO/dsp/DynamicStiffString.cpp:349:34
	vldr	s4, [r4, #12]
	.loc	40 349 156              @ /root/Bela/projects/NIEMO/dsp/DynamicStiffString.cpp:349:156
	vmul.f64	d18, d18, d19
	.loc	40 349 98               @ /root/Bela/projects/NIEMO/dsp/DynamicStiffString.cpp:349:98
	vmul.f32	d19, d0, d1
	.loc	40 349 38               @ /root/Bela/projects/NIEMO/dsp/DynamicStiffString.cpp:349:38
	vldr	s2, [r4]
	.loc	40 349 182              @ /root/Bela/projects/NIEMO/dsp/DynamicStiffString.cpp:349:182
	vcvt.f64.f32	d22, s4
	.loc	40 349 190              @ /root/Bela/projects/NIEMO/dsp/DynamicStiffString.cpp:349:190
	vcvt.f64.f32	d23, s2
	.loc	40 349 180              @ /root/Bela/projects/NIEMO/dsp/DynamicStiffString.cpp:349:180
	vmul.f64	d22, d22, d25
	.loc	40 349 192              @ /root/Bela/projects/NIEMO/dsp/DynamicStiffString.cpp:349:192
	vmul.f64	d23, d23, d23
	vmul.f64	d22, d23, d22
	.loc	40 349 54               @ /root/Bela/projects/NIEMO/dsp/DynamicStiffString.cpp:349:54
	vldr	s0, [r4, #4]
.Ltmp388:
	.loc	40 349 40               @ /root/Bela/projects/NIEMO/dsp/DynamicStiffString.cpp:349:40
	vmul.f32	d20, d1, d1
	.loc	40 349 98               @ /root/Bela/projects/NIEMO/dsp/DynamicStiffString.cpp:349:98
	vmul.f32	d19, d19, d19
	.loc	40 349 170              @ /root/Bela/projects/NIEMO/dsp/DynamicStiffString.cpp:349:170
	vldr	s2, [r4, #20]
	.loc	40 349 222              @ /root/Bela/projects/NIEMO/dsp/DynamicStiffString.cpp:349:222
	vcvt.f64.f32	d23, s0
	.loc	40 349 192              @ /root/Bela/projects/NIEMO/dsp/DynamicStiffString.cpp:349:192
	vmul.f64	d22, d22, d23
	.loc	40 349 48               @ /root/Bela/projects/NIEMO/dsp/DynamicStiffString.cpp:349:48
	vmul.f32	d21, d20, d20
	.loc	40 349 86               @ /root/Bela/projects/NIEMO/dsp/DynamicStiffString.cpp:349:86
	vmul.f32	d20, d3, d20
	.loc	40 349 170              @ /root/Bela/projects/NIEMO/dsp/DynamicStiffString.cpp:349:170
	vcvt.f64.f32	d23, s2
	.loc	40 349 48               @ /root/Bela/projects/NIEMO/dsp/DynamicStiffString.cpp:349:48
	vmul.f32	d21, d21, d2
	.loc	40 349 98               @ /root/Bela/projects/NIEMO/dsp/DynamicStiffString.cpp:349:98
	vmul.f32	d19, d20, d19
	.loc	40 349 208              @ /root/Bela/projects/NIEMO/dsp/DynamicStiffString.cpp:349:208
	vmul.f64	d17, d22, d17
	.loc	40 349 52               @ /root/Bela/projects/NIEMO/dsp/DynamicStiffString.cpp:349:52
	vmul.f32	d21, d21, d0
	.loc	40 349 168              @ /root/Bela/projects/NIEMO/dsp/DynamicStiffString.cpp:349:168
	vmul.f64	d18, d18, d23
	.loc	40 349 58               @ /root/Bela/projects/NIEMO/dsp/DynamicStiffString.cpp:349:58
	vsub.f32	d0, d21, d19
	.loc	40 349 220              @ /root/Bela/projects/NIEMO/dsp/DynamicStiffString.cpp:349:220
	vmul.f64	d16, d17, d16
	.loc	40 349 34               @ /root/Bela/projects/NIEMO/dsp/DynamicStiffString.cpp:349:34
	vcvt.f64.f32	d19, s0
	.loc	40 349 102              @ /root/Bela/projects/NIEMO/dsp/DynamicStiffString.cpp:349:102
	vsub.f64	d17, d19, d18
	.loc	40 349 173              @ /root/Bela/projects/NIEMO/dsp/DynamicStiffString.cpp:349:173
	vdiv.f64	d16, d17, d16
	.loc	40 349 229              @ /root/Bela/projects/NIEMO/dsp/DynamicStiffString.cpp:349:229
	vldr	s0, [r4, #40]
.Ltmp389:
.LBB2_29:                               @ %_ZNSt6vectorIfSaIfEED2Ev.exit
                                        @   in Loop: Header=BB2_8 Depth=1
	.loc	40 277 235 is_stmt 1    @ /root/Bela/projects/NIEMO/dsp/DynamicStiffString.cpp:277:235
	vcvt.f64.f32	d17, s0
.LBB2_30:                               @ %_ZNSt6vectorIfSaIfEED2Ev.exit
                                        @   in Loop: Header=BB2_8 Depth=1
	.loc	40 277 233 is_stmt 0    @ /root/Bela/projects/NIEMO/dsp/DynamicStiffString.cpp:277:233
	vsub.f64	d16, d16, d17
	.loc	40 277 28               @ /root/Bela/projects/NIEMO/dsp/DynamicStiffString.cpp:277:28
	vabs.f64	d16, d16
	vcvt.f32.f64	s22, d16
.Ltmp390:
	@DEBUG_VALUE: refreshCoefficients:paramDiffMax <- %S22
.LBB2_31:                               @ %_ZNSt6vectorIfSaIfEED2Ev.exit
                                        @   in Loop: Header=BB2_8 Depth=1
	.loc	12 781 32 is_stmt 1     @ /usr/bin/../lib/gcc/arm-linux-gnueabihf/6.3.0/../../../../include/c++/6.3.0/bits/stl_vector.h:781:32
	ldr	r2, [r4, #80]
.Ltmp391:
	.loc	40 356 19               @ /root/Bela/projects/NIEMO/dsp/DynamicStiffString.cpp:356:19
	ldr	r3, [r0, r7]
	.loc	40 356 38 is_stmt 0     @ /root/Bela/projects/NIEMO/dsp/DynamicStiffString.cpp:356:38
	add	r1, r2, r7
	.loc	40 356 18               @ /root/Bela/projects/NIEMO/dsp/DynamicStiffString.cpp:356:18
	vldr	s0, [r3]
	.loc	40 356 38               @ /root/Bela/projects/NIEMO/dsp/DynamicStiffString.cpp:356:38
	vldr	s2, [r1]
	.loc	40 356 36               @ /root/Bela/projects/NIEMO/dsp/DynamicStiffString.cpp:356:36
	vsub.f32	d16, d0, d1
	.loc	40 356 13 discriminator 2 @ /root/Bela/projects/NIEMO/dsp/DynamicStiffString.cpp:356:13
	vabs.f32	d2, d16
.Ltmp392:
	.loc	40 356 13               @ /root/Bela/projects/NIEMO/dsp/DynamicStiffString.cpp:356:13
	vcmpe.f32	s4, s22
	vmrs	APSR_nzcv, fpscr
	bge	.LBB2_37
.Ltmp393:
@ BB#32:                                @   in Loop: Header=BB2_8 Depth=1
	.loc	40 253 5 is_stmt 1 discriminator 1 @ /root/Bela/projects/NIEMO/dsp/DynamicStiffString.cpp:253:5
	mov	r1, #1
.Ltmp394:
	.loc	40 358 14               @ /root/Bela/projects/NIEMO/dsp/DynamicStiffString.cpp:358:14
	cmp	r7, #0
.Ltmp395:
	.loc	6 231 34                @ /usr/bin/../lib/gcc/arm-linux-gnueabihf/6.3.0/../../../../include/c++/6.3.0/bits/stl_bvector.h:231:34
	lsl	r1, r1, r9
	beq	.LBB2_48
.Ltmp396:
@ BB#33:                                @   in Loop: Header=BB2_8 Depth=1
	.loc	40 362 14               @ /root/Bela/projects/NIEMO/dsp/DynamicStiffString.cpp:362:14
	sub	r3, r6, #1
	cmp	r3, #5
	bhi	.LBB2_54
@ BB#34:                                @   in Loop: Header=BB2_8 Depth=1
	adr	r5, .LJTI2_3
	lsl	r3, r3, #2
	ldr	pc, [r3, r5]
@ BB#35:
	.p2align	2
.LJTI2_3:
	.long	.LBB2_36
	.long	.LBB2_50
	.long	.LBB2_54
	.long	.LBB2_51
	.long	.LBB2_52
	.long	.LBB2_53
.LBB2_36:                               @   in Loop: Header=BB2_8 Depth=1
.Ltmp397:
	.loc	40 364 17               @ /root/Bela/projects/NIEMO/dsp/DynamicStiffString.cpp:364:17
	ldr	r3, [r2, #4]
	.loc	40 364 15 is_stmt 0     @ /root/Bela/projects/NIEMO/dsp/DynamicStiffString.cpp:364:15
	str	r3, [r4, #4]
	b	.LBB2_54
.Ltmp398:
.LBB2_37:                               @   in Loop: Header=BB2_8 Depth=1
	.loc	40 385 18 is_stmt 1     @ /root/Bela/projects/NIEMO/dsp/DynamicStiffString.cpp:385:18
	vcmpe.f32	s0, s2
	vmrs	APSR_nzcv, fpscr
	bge	.LBB2_42
@ BB#38:                                @   in Loop: Header=BB2_8 Depth=1
.Ltmp399:
	.loc	40 387 31               @ /root/Bela/projects/NIEMO/dsp/DynamicStiffString.cpp:387:31
	vadd.f32	d0, d0, d11
	.loc	40 388 11               @ /root/Bela/projects/NIEMO/dsp/DynamicStiffString.cpp:388:11
	cmp	r7, #0
	.loc	40 387 31               @ /root/Bela/projects/NIEMO/dsp/DynamicStiffString.cpp:387:31
	vstr	s0, [r3]
	beq	.LBB2_49
@ BB#39:                                @   in Loop: Header=BB2_8 Depth=1
	.loc	40 392 14               @ /root/Bela/projects/NIEMO/dsp/DynamicStiffString.cpp:392:14
	sub	r3, r6, #1
	mov	r1, #1
	cmp	r3, #5
	bhi	.LBB2_56
.Ltmp400:
@ BB#40:                                @   in Loop: Header=BB2_8 Depth=1
	adr	r5, .LJTI2_2
	lsl	r3, r3, #2
	ldr	pc, [r3, r5]
@ BB#41:
	.p2align	2
.LJTI2_2:
	.long	.LBB2_47
	.long	.LBB2_4
	.long	.LBB2_56
	.long	.LBB2_3
	.long	.LBB2_5
	.long	.LBB2_6
.LBB2_42:                               @   in Loop: Header=BB2_8 Depth=1
	mov	r1, #1
	ble	.LBB2_56
@ BB#43:                                @   in Loop: Header=BB2_8 Depth=1
.Ltmp401:
	.loc	40 415 31               @ /root/Bela/projects/NIEMO/dsp/DynamicStiffString.cpp:415:31
	vsub.f32	d0, d0, d11
	.loc	40 416 14               @ /root/Bela/projects/NIEMO/dsp/DynamicStiffString.cpp:416:14
	cmp	r7, #0
	.loc	40 415 31               @ /root/Bela/projects/NIEMO/dsp/DynamicStiffString.cpp:415:31
	vstr	s0, [r3]
	beq	.LBB2_2
@ BB#44:                                @   in Loop: Header=BB2_8 Depth=1
	.loc	40 420 14               @ /root/Bela/projects/NIEMO/dsp/DynamicStiffString.cpp:420:14
	sub	r3, r6, #1
	cmp	r3, #5
	bhi	.LBB2_56
.Ltmp402:
@ BB#45:                                @   in Loop: Header=BB2_8 Depth=1
	adr	r5, .LJTI2_1
	lsl	r3, r3, #2
	ldr	pc, [r3, r5]
@ BB#46:
	.p2align	2
.LJTI2_1:
	.long	.LBB2_47
	.long	.LBB2_4
	.long	.LBB2_56
	.long	.LBB2_3
	.long	.LBB2_5
	.long	.LBB2_6
.LBB2_47:                               @   in Loop: Header=BB2_8 Depth=1
.Ltmp403:
	.loc	40 394 17               @ /root/Bela/projects/NIEMO/dsp/DynamicStiffString.cpp:394:17
	ldr	r2, [r2, #4]
	.loc	40 394 15 is_stmt 0     @ /root/Bela/projects/NIEMO/dsp/DynamicStiffString.cpp:394:15
	str	r2, [r4, #4]
	b	.LBB2_56
.Ltmp404:
.LBB2_48:                               @ %.thread
                                        @   in Loop: Header=BB2_8 Depth=1
	.loc	40 360 13 is_stmt 1     @ /root/Bela/projects/NIEMO/dsp/DynamicStiffString.cpp:360:13
	vstr	s2, [r4]
	b	.LBB2_54
.Ltmp405:
.LBB2_49:                               @ %.thread215
                                        @   in Loop: Header=BB2_8 Depth=1
	.loc	40 390 16               @ /root/Bela/projects/NIEMO/dsp/DynamicStiffString.cpp:390:16
	ldr	r1, [r0]
	.loc	40 390 15 is_stmt 0     @ /root/Bela/projects/NIEMO/dsp/DynamicStiffString.cpp:390:15
	ldr	r1, [r1]
	.loc	40 390 13               @ /root/Bela/projects/NIEMO/dsp/DynamicStiffString.cpp:390:13
	str	r1, [r4]
	b	.LBB2_55
.Ltmp406:
.LBB2_50:                               @   in Loop: Header=BB2_8 Depth=1
	.loc	40 368 16 is_stmt 1     @ /root/Bela/projects/NIEMO/dsp/DynamicStiffString.cpp:368:16
	ldr	r3, [r0, #8]
	.loc	40 368 15 is_stmt 0     @ /root/Bela/projects/NIEMO/dsp/DynamicStiffString.cpp:368:15
	ldr	r3, [r3]
	.loc	40 368 13               @ /root/Bela/projects/NIEMO/dsp/DynamicStiffString.cpp:368:13
	str	r3, [r4, #8]
	b	.LBB2_54
.Ltmp407:
.LBB2_51:                               @   in Loop: Header=BB2_8 Depth=1
	.loc	40 372 16 is_stmt 1     @ /root/Bela/projects/NIEMO/dsp/DynamicStiffString.cpp:372:16
	ldr	r3, [r0, #16]
	.loc	40 372 15 is_stmt 0     @ /root/Bela/projects/NIEMO/dsp/DynamicStiffString.cpp:372:15
	ldr	r3, [r3]
	.loc	40 372 13               @ /root/Bela/projects/NIEMO/dsp/DynamicStiffString.cpp:372:13
	str	r3, [r4, #20]
	b	.LBB2_54
.Ltmp408:
.LBB2_52:                               @   in Loop: Header=BB2_8 Depth=1
	.loc	40 376 21 is_stmt 1     @ /root/Bela/projects/NIEMO/dsp/DynamicStiffString.cpp:376:21
	ldr	r3, [r0, #20]
	.loc	40 376 20 is_stmt 0     @ /root/Bela/projects/NIEMO/dsp/DynamicStiffString.cpp:376:20
	ldr	r3, [r3]
	.loc	40 376 18               @ /root/Bela/projects/NIEMO/dsp/DynamicStiffString.cpp:376:18
	str	r3, [r4, #36]
	b	.LBB2_54
.Ltmp409:
.LBB2_53:                               @   in Loop: Header=BB2_8 Depth=1
	.loc	40 380 21 is_stmt 1     @ /root/Bela/projects/NIEMO/dsp/DynamicStiffString.cpp:380:21
	ldr	r3, [r0, #24]
	.loc	40 380 20 is_stmt 0     @ /root/Bela/projects/NIEMO/dsp/DynamicStiffString.cpp:380:20
	ldr	r3, [r3]
	.loc	40 380 18               @ /root/Bela/projects/NIEMO/dsp/DynamicStiffString.cpp:380:18
	str	r3, [r4, #40]
.Ltmp410:
.LBB2_54:                               @   in Loop: Header=BB2_8 Depth=1
	.loc	40 382 14 is_stmt 1     @ /root/Bela/projects/NIEMO/dsp/DynamicStiffString.cpp:382:14
	ldr	r3, [r0, r7]
	.loc	40 382 33 is_stmt 0     @ /root/Bela/projects/NIEMO/dsp/DynamicStiffString.cpp:382:33
	ldr	r2, [r2, r7]
	.loc	40 382 31               @ /root/Bela/projects/NIEMO/dsp/DynamicStiffString.cpp:382:31
	str	r2, [r3]
.Ltmp411:
	.loc	6 856 47 is_stmt 1      @ /usr/bin/../lib/gcc/arm-linux-gnueabihf/6.3.0/../../../../include/c++/6.3.0/bits/stl_bvector.h:856:47
	ldr	r2, [r4, #92]
.Ltmp412:
	@DEBUG_VALUE: operator=:__x [bit_piece offset=0 size=1] <- 0
	.loc	6 89 8                  @ /usr/bin/../lib/gcc/arm-linux-gnueabihf/6.3.0/../../../../include/c++/6.3.0/bits/stl_bvector.h:89:8
	ldr	r3, [r2, r8, lsl #2]
	bic	r1, r3, r1
	.loc	6 87 8                  @ /usr/bin/../lib/gcc/arm-linux-gnueabihf/6.3.0/../../../../include/c++/6.3.0/bits/stl_bvector.h:87:8
	str	r1, [r2, r8, lsl #2]
.Ltmp413:
.LBB2_55:                               @   in Loop: Header=BB2_8 Depth=1
	mov	r1, #1
.LBB2_56:                               @   in Loop: Header=BB2_8 Depth=1
.Ltmp414:
	.loc	12 656 40               @ /usr/bin/../lib/gcc/arm-linux-gnueabihf/6.3.0/../../../../include/c++/6.3.0/bits/stl_vector.h:656:40
	ldr	r2, [r4, #72]
.Ltmp415:
	.loc	40 253 23 discriminator 1 @ /root/Bela/projects/NIEMO/dsp/DynamicStiffString.cpp:253:23
	add	r7, r7, #4
	add	r3, r10, #2
.Ltmp416:
	.loc	12 656 50               @ /usr/bin/../lib/gcc/arm-linux-gnueabihf/6.3.0/../../../../include/c++/6.3.0/bits/stl_vector.h:656:50
	sub	r2, r2, r0
.Ltmp417:
	.loc	40 253 5 discriminator 1 @ /root/Bela/projects/NIEMO/dsp/DynamicStiffString.cpp:253:5
	cmp	r3, r2, asr #2
	blo	.LBB2_8
.Ltmp418:
.LBB2_57:                               @ %._crit_edge
	.loc	40 443 23               @ /root/Bela/projects/NIEMO/dsp/DynamicStiffString.cpp:443:23
	tst	r1, #1
	cmpeq	r12, #0
	beq	.LBB2_63
.Ltmp419:
@ BB#58:
	.loc	40 445 34               @ /root/Bela/projects/NIEMO/dsp/DynamicStiffString.cpp:445:34
	vldr	s0, [r4, #8]
	mov	r5, r12
	.loc	40 445 36 is_stmt 0     @ /root/Bela/projects/NIEMO/dsp/DynamicStiffString.cpp:445:36
	vldr	d17, .LCPI2_3
	.loc	40 445 34               @ /root/Bela/projects/NIEMO/dsp/DynamicStiffString.cpp:445:34
	vcvt.f64.f32	d16, s0
	.loc	40 445 36               @ /root/Bela/projects/NIEMO/dsp/DynamicStiffString.cpp:445:36
	vmul.f64	d16, d16, d16
	.loc	40 446 48 is_stmt 1     @ /root/Bela/projects/NIEMO/dsp/DynamicStiffString.cpp:446:48
	vmul.f64	d18, d16, d16
	vldr	d19, .LCPI2_6
	.loc	40 445 36               @ /root/Bela/projects/NIEMO/dsp/DynamicStiffString.cpp:445:36
	vmul.f64	d16, d16, d17
	.loc	40 446 48               @ /root/Bela/projects/NIEMO/dsp/DynamicStiffString.cpp:446:48
	vmul.f64	d17, d18, d19
	.loc	40 445 9                @ /root/Bela/projects/NIEMO/dsp/DynamicStiffString.cpp:445:9
	vcvt.f32.f64	s18, d16
	.loc	40 446 9                @ /root/Bela/projects/NIEMO/dsp/DynamicStiffString.cpp:446:9
	vcvt.f32.f64	s0, d17
	.loc	40 445 7                @ /root/Bela/projects/NIEMO/dsp/DynamicStiffString.cpp:445:7
	vstr	s18, [r4, #12]
	.loc	40 446 7                @ /root/Bela/projects/NIEMO/dsp/DynamicStiffString.cpp:446:7
	vstr	s0, [r4, #24]
	.loc	40 449 16               @ /root/Bela/projects/NIEMO/dsp/DynamicStiffString.cpp:449:16
	vldr	s20, [r4, #4]
	.loc	40 449 11 is_stmt 0     @ /root/Bela/projects/NIEMO/dsp/DynamicStiffString.cpp:449:11
	vldr	s2, [r4, #16]
	.loc	40 449 20               @ /root/Bela/projects/NIEMO/dsp/DynamicStiffString.cpp:449:20
	vmul.f32	d2, d9, d10
	.loc	40 456 97 is_stmt 1     @ /root/Bela/projects/NIEMO/dsp/DynamicStiffString.cpp:456:97
	vmov.f64	d18, #1.600000e+01
	.loc	40 449 13               @ /root/Bela/projects/NIEMO/dsp/DynamicStiffString.cpp:449:13
	vdiv.f32	s28, s2, s4
	.loc	40 449 9 is_stmt 0      @ /root/Bela/projects/NIEMO/dsp/DynamicStiffString.cpp:449:9
	vstr	s28, [r4, #28]
	.loc	40 452 15 is_stmt 1     @ /root/Bela/projects/NIEMO/dsp/DynamicStiffString.cpp:452:15
	vldr	s2, [r4, #20]
	.loc	40 454 45               @ /root/Bela/projects/NIEMO/dsp/DynamicStiffString.cpp:454:45
	vmov.f64	d19, #4.000000e+00
	.loc	40 452 17               @ /root/Bela/projects/NIEMO/dsp/DynamicStiffString.cpp:452:17
	vmul.f32	d0, d0, d1
	.loc	40 452 21 is_stmt 0     @ /root/Bela/projects/NIEMO/dsp/DynamicStiffString.cpp:452:21
	vdiv.f32	s30, s0, s4
	.loc	40 452 13               @ /root/Bela/projects/NIEMO/dsp/DynamicStiffString.cpp:452:13
	vstr	s30, [r4, #32]
	.loc	40 454 33 is_stmt 1     @ /root/Bela/projects/NIEMO/dsp/DynamicStiffString.cpp:454:33
	vldr	s24, [r4, #56]
	.loc	40 454 47 is_stmt 0     @ /root/Bela/projects/NIEMO/dsp/DynamicStiffString.cpp:454:47
	vldr	s26, [r4, #40]
	.loc	40 454 35               @ /root/Bela/projects/NIEMO/dsp/DynamicStiffString.cpp:454:35
	vmul.f32	d16, d12, d12
	.loc	40 454 47               @ /root/Bela/projects/NIEMO/dsp/DynamicStiffString.cpp:454:47
	vcvt.f64.f32	d20, s26
	.loc	40 454 35               @ /root/Bela/projects/NIEMO/dsp/DynamicStiffString.cpp:454:35
	vmul.f32	d0, d16, d14
	.loc	40 456 85 is_stmt 1     @ /root/Bela/projects/NIEMO/dsp/DynamicStiffString.cpp:456:85
	vcvt.f64.f32	d16, s30
	.loc	40 456 97 is_stmt 0     @ /root/Bela/projects/NIEMO/dsp/DynamicStiffString.cpp:456:97
	vmul.f64	d16, d16, d18
	.loc	40 454 56 is_stmt 1     @ /root/Bela/projects/NIEMO/dsp/DynamicStiffString.cpp:454:56
	vcvt.f64.f32	d18, s24
	.loc	40 454 45 is_stmt 0     @ /root/Bela/projects/NIEMO/dsp/DynamicStiffString.cpp:454:45
	vmul.f64	d19, d18, d19
	.loc	40 454 54               @ /root/Bela/projects/NIEMO/dsp/DynamicStiffString.cpp:454:54
	vmul.f64	d19, d19, d20
	.loc	40 454 27               @ /root/Bela/projects/NIEMO/dsp/DynamicStiffString.cpp:454:27
	vcvt.f64.f32	d17, s0
	.loc	40 454 39               @ /root/Bela/projects/NIEMO/dsp/DynamicStiffString.cpp:454:39
	vadd.f64	d17, d19, d17
	.loc	40 454 27               @ /root/Bela/projects/NIEMO/dsp/DynamicStiffString.cpp:454:27
	vcvt.f32.f64	s0, d17
.Ltmp420:
	@DEBUG_VALUE: refreshCoefficients:stabilityTerm <- %S0
	.loc	40 456 97 is_stmt 1     @ /root/Bela/projects/NIEMO/dsp/DynamicStiffString.cpp:456:97
	vmul.f64	d17, d18, d18
	vmul.f64	d16, d17, d16
	.loc	40 456 59 is_stmt 0     @ /root/Bela/projects/NIEMO/dsp/DynamicStiffString.cpp:456:59
	vmul.f32	d1, d0, d0
	.loc	40 456 44               @ /root/Bela/projects/NIEMO/dsp/DynamicStiffString.cpp:456:44
	vcvt.f64.f32	d17, s2
	.loc	40 456 76               @ /root/Bela/projects/NIEMO/dsp/DynamicStiffString.cpp:456:76
	vadd.f64	d16, d17, d16
	.loc	40 456 38               @ /root/Bela/projects/NIEMO/dsp/DynamicStiffString.cpp:456:38
	vsqrt.f64	d16, d16
	.loc	40 456 22               @ /root/Bela/projects/NIEMO/dsp/DynamicStiffString.cpp:456:22
	vcvt.f64.f32	d17, s0
	.loc	40 456 36               @ /root/Bela/projects/NIEMO/dsp/DynamicStiffString.cpp:456:36
	vadd.f64	d16, d16, d17
	.loc	40 456 19               @ /root/Bela/projects/NIEMO/dsp/DynamicStiffString.cpp:456:19
	vmov.f64	d17, #5.000000e-01
	vmul.f64	d16, d16, d17
	.loc	40 456 9 discriminator 1 @ /root/Bela/projects/NIEMO/dsp/DynamicStiffString.cpp:456:9
	vsqrt.f64	d16, d16
	.loc	40 456 9                @ /root/Bela/projects/NIEMO/dsp/DynamicStiffString.cpp:456:9
	vcvt.f32.f64	s22, d16
	.loc	40 456 7                @ /root/Bela/projects/NIEMO/dsp/DynamicStiffString.cpp:456:7
	vstr	s22, [r4, #52]
	.loc	40 457 13 is_stmt 1     @ /root/Bela/projects/NIEMO/dsp/DynamicStiffString.cpp:457:13
	vldr	s0, [r4]
.Ltmp421:
	.loc	40 457 15 is_stmt 0     @ /root/Bela/projects/NIEMO/dsp/DynamicStiffString.cpp:457:15
	vdiv.f32	s16, s0, s22
	.loc	40 460 9 is_stmt 1      @ /root/Bela/projects/NIEMO/dsp/DynamicStiffString.cpp:460:9
	vmov.f32	s0, s16
	.loc	40 457 11               @ /root/Bela/projects/NIEMO/dsp/DynamicStiffString.cpp:457:11
	vstr	s16, [r4, #136]
	.loc	40 460 9                @ /root/Bela/projects/NIEMO/dsp/DynamicStiffString.cpp:460:9
	bl	floorf
                                        @ kill: %S0<def> %S0<kill> %D0<def>
	.loc	40 462 9                @ /root/Bela/projects/NIEMO/dsp/DynamicStiffString.cpp:462:9
	cmp	r5, #1
.Ltmp422:
	.loc	40 466 18               @ /root/Bela/projects/NIEMO/dsp/DynamicStiffString.cpp:466:18
	vcvt.s32.f32	d0, d0
.Ltmp423:
	.loc	40 461 19               @ /root/Bela/projects/NIEMO/dsp/DynamicStiffString.cpp:461:19
	vcvt.f32.s32	d16, d0
.Ltmp424:
	.loc	40 466 18               @ /root/Bela/projects/NIEMO/dsp/DynamicStiffString.cpp:466:18
	vmov	r0, s0
.Ltmp425:
	.loc	40 461 17               @ /root/Bela/projects/NIEMO/dsp/DynamicStiffString.cpp:461:17
	vsub.f32	d0, d8, d16
	.loc	40 460 7                @ /root/Bela/projects/NIEMO/dsp/DynamicStiffString.cpp:460:7
	str	r0, [r4, #116]
	.loc	40 461 9                @ /root/Bela/projects/NIEMO/dsp/DynamicStiffString.cpp:461:9
	vstr	s0, [r4, #144]
	bne	.LBB2_60
@ BB#59:                                @ %.thread248
.Ltmp426:
	.loc	40 463 15               @ /root/Bela/projects/NIEMO/dsp/DynamicStiffString.cpp:463:15
	str	r0, [r4, #124]
.Ltmp427:
	.loc	40 454 45               @ /root/Bela/projects/NIEMO/dsp/DynamicStiffString.cpp:454:45
	vmov.f64	d8, #4.000000e+00
	b	.LBB2_62
.LBB2_60:
	vmov.f64	d8, #4.000000e+00
.Ltmp428:
	.loc	40 466 9                @ /root/Bela/projects/NIEMO/dsp/DynamicStiffString.cpp:466:9
	ldr	r1, [r4, #124]
.Ltmp429:
	.loc	40 466 9 is_stmt 0      @ /root/Bela/projects/NIEMO/dsp/DynamicStiffString.cpp:466:9
	cmp	r1, r0
	beq	.LBB2_62
@ BB#61:
.Ltmp430:
	.loc	40 467 9 is_stmt 1      @ /root/Bela/projects/NIEMO/dsp/DynamicStiffString.cpp:467:9
	mov	r0, r4
	bl	_ZN18DynamicStiffString14addRemovePointEv
.Ltmp431:
	.loc	40 469 10               @ /root/Bela/projects/NIEMO/dsp/DynamicStiffString.cpp:469:10
	ldr	r0, [r4, #116]
	.loc	40 497 16               @ /root/Bela/projects/NIEMO/dsp/DynamicStiffString.cpp:497:16
	vldr	s20, [r4, #4]
	.loc	40 497 22 is_stmt 0     @ /root/Bela/projects/NIEMO/dsp/DynamicStiffString.cpp:497:22
	vldr	s18, [r4, #12]
	.loc	40 474 12 is_stmt 1     @ /root/Bela/projects/NIEMO/dsp/DynamicStiffString.cpp:474:12
	vldr	s30, [r4, #32]
	.loc	40 473 16               @ /root/Bela/projects/NIEMO/dsp/DynamicStiffString.cpp:473:16
	vldr	s28, [r4, #28]
	.loc	40 477 17               @ /root/Bela/projects/NIEMO/dsp/DynamicStiffString.cpp:477:17
	vldr	s26, [r4, #40]
	.loc	40 473 22               @ /root/Bela/projects/NIEMO/dsp/DynamicStiffString.cpp:473:22
	vldr	s24, [r4, #56]
	.loc	40 473 31 is_stmt 0     @ /root/Bela/projects/NIEMO/dsp/DynamicStiffString.cpp:473:31
	vldr	s22, [r4, #52]
	.loc	40 471 14 is_stmt 1     @ /root/Bela/projects/NIEMO/dsp/DynamicStiffString.cpp:471:14
	vldr	s0, [r4, #144]
.LBB2_62:
	vcvt.f64.f32	d17, s0
	.loc	40 469 14               @ /root/Bela/projects/NIEMO/dsp/DynamicStiffString.cpp:469:14
	ldr	r1, [r4, #132]
	.loc	40 469 12 is_stmt 0     @ /root/Bela/projects/NIEMO/dsp/DynamicStiffString.cpp:469:12
	sub	r0, r0, r1
	.loc	40 469 8                @ /root/Bela/projects/NIEMO/dsp/DynamicStiffString.cpp:469:8
	str	r0, [r4, #128]
	.loc	40 471 32 is_stmt 1     @ /root/Bela/projects/NIEMO/dsp/DynamicStiffString.cpp:471:32
	vmov.f64	d16, #1.000000e+00
	.loc	40 471 18 is_stmt 0     @ /root/Bela/projects/NIEMO/dsp/DynamicStiffString.cpp:471:18
	vmov.f64	d18, #-1.000000e+00
	.loc	40 471 32               @ /root/Bela/projects/NIEMO/dsp/DynamicStiffString.cpp:471:32
	vadd.f64	d19, d17, d16
	.loc	40 471 18               @ /root/Bela/projects/NIEMO/dsp/DynamicStiffString.cpp:471:18
	vadd.f64	d17, d17, d18
	.loc	40 471 25               @ /root/Bela/projects/NIEMO/dsp/DynamicStiffString.cpp:471:25
	vdiv.f64	d17, d17, d19
	.loc	40 473 24 is_stmt 1     @ /root/Bela/projects/NIEMO/dsp/DynamicStiffString.cpp:473:24
	vmul.f32	d20, d12, d12
	.loc	40 473 33 is_stmt 0     @ /root/Bela/projects/NIEMO/dsp/DynamicStiffString.cpp:473:33
	vmul.f32	d0, d11, d11
	.loc	40 477 26 is_stmt 1     @ /root/Bela/projects/NIEMO/dsp/DynamicStiffString.cpp:477:26
	vcvt.f64.f32	d19, s24
	.loc	40 473 24               @ /root/Bela/projects/NIEMO/dsp/DynamicStiffString.cpp:473:24
	vmul.f32	d1, d20, d14
	.loc	40 474 24               @ /root/Bela/projects/NIEMO/dsp/DynamicStiffString.cpp:474:24
	vmul.f32	d2, d20, d15
	.loc	40 477 24               @ /root/Bela/projects/NIEMO/dsp/DynamicStiffString.cpp:477:24
	vadd.f64	d19, d19, d19
	.loc	40 473 28               @ /root/Bela/projects/NIEMO/dsp/DynamicStiffString.cpp:473:28
	vdiv.f32	s6, s2, s0
	.loc	40 474 41               @ /root/Bela/projects/NIEMO/dsp/DynamicStiffString.cpp:474:41
	vmul.f32	d1, d0, d0
	.loc	40 477 17               @ /root/Bela/projects/NIEMO/dsp/DynamicStiffString.cpp:477:17
	vcvt.f64.f32	d20, s26
	.loc	40 474 28               @ /root/Bela/projects/NIEMO/dsp/DynamicStiffString.cpp:474:28
	vdiv.f32	s8, s4, s2
	.loc	40 477 24               @ /root/Bela/projects/NIEMO/dsp/DynamicStiffString.cpp:477:24
	vmul.f64	d19, d20, d19
	.loc	40 477 31 is_stmt 0     @ /root/Bela/projects/NIEMO/dsp/DynamicStiffString.cpp:477:31
	vcvt.f64.f32	d20, s0
	.loc	40 471 13 is_stmt 1     @ /root/Bela/projects/NIEMO/dsp/DynamicStiffString.cpp:471:13
	vcvt.f32.f64	s0, d17
	.loc	40 477 29               @ /root/Bela/projects/NIEMO/dsp/DynamicStiffString.cpp:477:29
	vdiv.f64	d19, d19, d20
	.loc	40 471 11               @ /root/Bela/projects/NIEMO/dsp/DynamicStiffString.cpp:471:11
	vstr	s0, [r4, #148]
	.loc	40 473 14               @ /root/Bela/projects/NIEMO/dsp/DynamicStiffString.cpp:473:14
	vstr	s6, [r4, #44]
	.loc	40 474 10               @ /root/Bela/projects/NIEMO/dsp/DynamicStiffString.cpp:474:10
	vstr	s8, [r4, #48]
	.loc	40 476 10               @ /root/Bela/projects/NIEMO/dsp/DynamicStiffString.cpp:476:10
	vldr	s0, [r4, #36]
	.loc	40 477 10               @ /root/Bela/projects/NIEMO/dsp/DynamicStiffString.cpp:477:10
	vcvt.f32.f64	s10, d19
	.loc	40 476 17               @ /root/Bela/projects/NIEMO/dsp/DynamicStiffString.cpp:476:17
	vmul.f32	d1, d12, d0
	.loc	40 480 52               @ /root/Bela/projects/NIEMO/dsp/DynamicStiffString.cpp:480:52
	vcvt.f64.f32	d19, s10
	.loc	40 484 17               @ /root/Bela/projects/NIEMO/dsp/DynamicStiffString.cpp:484:17
	vcvt.f64.f32	d17, s2
	.loc	40 484 15 is_stmt 0     @ /root/Bela/projects/NIEMO/dsp/DynamicStiffString.cpp:484:15
	vadd.f64	d18, d17, d18
	.loc	40 487 23 is_stmt 1     @ /root/Bela/projects/NIEMO/dsp/DynamicStiffString.cpp:487:23
	vadd.f64	d17, d17, d16
	.loc	40 487 16 is_stmt 0     @ /root/Bela/projects/NIEMO/dsp/DynamicStiffString.cpp:487:16
	vdiv.f64	d17, d16, d17
	.loc	40 484 26 is_stmt 1     @ /root/Bela/projects/NIEMO/dsp/DynamicStiffString.cpp:484:26
	vadd.f64	d20, d19, d19
	.loc	40 484 20 is_stmt 0     @ /root/Bela/projects/NIEMO/dsp/DynamicStiffString.cpp:484:20
	vadd.f64	d18, d18, d20
	.loc	40 487 12 is_stmt 1     @ /root/Bela/projects/NIEMO/dsp/DynamicStiffString.cpp:487:12
	vcvt.f32.f64	s4, d17
	.loc	40 480 39               @ /root/Bela/projects/NIEMO/dsp/DynamicStiffString.cpp:480:39
	vcvt.f64.f32	d17, s8
	.loc	40 484 10               @ /root/Bela/projects/NIEMO/dsp/DynamicStiffString.cpp:484:10
	vcvt.f32.f64	s12, d18
	.loc	40 482 25               @ /root/Bela/projects/NIEMO/dsp/DynamicStiffString.cpp:482:25
	vmul.f64	d18, d17, d8
	.loc	40 480 22               @ /root/Bela/projects/NIEMO/dsp/DynamicStiffString.cpp:480:22
	vcvt.f64.f32	d20, s6
	.loc	40 482 19               @ /root/Bela/projects/NIEMO/dsp/DynamicStiffString.cpp:482:19
	vadd.f64	d18, d18, d20
	.loc	40 482 32 is_stmt 0     @ /root/Bela/projects/NIEMO/dsp/DynamicStiffString.cpp:482:32
	vadd.f64	d18, d18, d19
	.loc	40 482 10               @ /root/Bela/projects/NIEMO/dsp/DynamicStiffString.cpp:482:10
	vcvt.f32.f64	s6, d18
	vadd.f64	d18, d19, d20
	vmov.f64	d19, #-6.000000e+00
	vmul.f64	d19, d17, d19
	vmov.f64	d20, #2.000000e+00
	vadd.f64	d18, d18, d18
	.loc	40 480 31 is_stmt 1     @ /root/Bela/projects/NIEMO/dsp/DynamicStiffString.cpp:480:31
	vadd.f64	d19, d19, d20
	vsub.f64	d19, d19, d18
	.loc	40 476 8                @ /root/Bela/projects/NIEMO/dsp/DynamicStiffString.cpp:476:8
	vstr	s2, [r4, #248]
	.loc	40 495 8                @ /root/Bela/projects/NIEMO/dsp/DynamicStiffString.cpp:495:8
	vnmul.f32	s14, s10, s4
	.loc	40 477 8                @ /root/Bela/projects/NIEMO/dsp/DynamicStiffString.cpp:477:8
	vstr	s10, [r4, #252]
	.loc	40 493 8                @ /root/Bela/projects/NIEMO/dsp/DynamicStiffString.cpp:493:8
	vnmul.f32	s10, s8, s4
	.loc	40 480 10               @ /root/Bela/projects/NIEMO/dsp/DynamicStiffString.cpp:480:10
	vcvt.f32.f64	s8, d19
	vmov.f64	d19, #-5.000000e+00
	vmul.f64	d17, d17, d19
	.loc	40 481 32               @ /root/Bela/projects/NIEMO/dsp/DynamicStiffString.cpp:481:32
	vadd.f64	d17, d17, d20
	vsub.f64	d17, d17, d18
	.loc	40 494 8                @ /root/Bela/projects/NIEMO/dsp/DynamicStiffString.cpp:494:8
	vmul.f32	d1, d6, d2
	.loc	40 487 10               @ /root/Bela/projects/NIEMO/dsp/DynamicStiffString.cpp:487:10
	vstr	s4, [r4, #220]
	.loc	40 481 11               @ /root/Bela/projects/NIEMO/dsp/DynamicStiffString.cpp:481:11
	vcvt.f32.f64	s12, d17
	.loc	40 490 8                @ /root/Bela/projects/NIEMO/dsp/DynamicStiffString.cpp:490:8
	vmul.f32	d4, d2, d4
	.loc	40 492 8                @ /root/Bela/projects/NIEMO/dsp/DynamicStiffString.cpp:492:8
	vmul.f32	d3, d3, d2
	.loc	40 491 9                @ /root/Bela/projects/NIEMO/dsp/DynamicStiffString.cpp:491:9
	vmul.f32	d2, d6, d2
	.loc	40 497 20               @ /root/Bela/projects/NIEMO/dsp/DynamicStiffString.cpp:497:20
	vmul.f32	d6, d9, d10
	.loc	40 490 8                @ /root/Bela/projects/NIEMO/dsp/DynamicStiffString.cpp:490:8
	vstr	s8, [r4, #224]
	.loc	40 491 9                @ /root/Bela/projects/NIEMO/dsp/DynamicStiffString.cpp:491:9
	vstr	s4, [r4, #228]
	.loc	40 492 8                @ /root/Bela/projects/NIEMO/dsp/DynamicStiffString.cpp:492:8
	vstr	s6, [r4, #232]
	.loc	40 493 8                @ /root/Bela/projects/NIEMO/dsp/DynamicStiffString.cpp:493:8
	vstr	s10, [r4, #236]
	.loc	40 494 8                @ /root/Bela/projects/NIEMO/dsp/DynamicStiffString.cpp:494:8
	vstr	s2, [r4, #240]
	.loc	40 495 8                @ /root/Bela/projects/NIEMO/dsp/DynamicStiffString.cpp:495:8
	vstr	s14, [r4, #244]
	.loc	40 497 14               @ /root/Bela/projects/NIEMO/dsp/DynamicStiffString.cpp:497:14
	vstr	s12, [r4, #64]
.Ltmp432:
	.loc	40 541 29               @ /root/Bela/projects/NIEMO/dsp/DynamicStiffString.cpp:541:29
	vldr	s8, [r4, #56]
	.loc	40 541 38 is_stmt 0     @ /root/Bela/projects/NIEMO/dsp/DynamicStiffString.cpp:541:38
	vldr	s2, [r4, #4]
	.loc	40 541 66               @ /root/Bela/projects/NIEMO/dsp/DynamicStiffString.cpp:541:66
	vmul.f32	d0, d0, d4
	.loc	40 541 44               @ /root/Bela/projects/NIEMO/dsp/DynamicStiffString.cpp:541:44
	vldr	s4, [r4, #12]
	.loc	40 541 48               @ /root/Bela/projects/NIEMO/dsp/DynamicStiffString.cpp:541:48
	vldr	s6, [r4, #52]
.Ltmp433:
	@DEBUG_VALUE: updateConnectionCoefficient:this <- %R4
	.loc	40 541 59               @ /root/Bela/projects/NIEMO/dsp/DynamicStiffString.cpp:541:59
	vcvt.f64.f32	d17, s0
	.loc	40 541 57               @ /root/Bela/projects/NIEMO/dsp/DynamicStiffString.cpp:541:57
	vadd.f64	d16, d17, d16
	.loc	40 541 42               @ /root/Bela/projects/NIEMO/dsp/DynamicStiffString.cpp:541:42
	vmul.f32	d17, d2, d1
	.loc	40 541 46               @ /root/Bela/projects/NIEMO/dsp/DynamicStiffString.cpp:541:46
	vmul.f32	d0, d17, d3
	.loc	40 541 38               @ /root/Bela/projects/NIEMO/dsp/DynamicStiffString.cpp:541:38
	vcvt.f64.f32	d17, s0
	.loc	40 541 50               @ /root/Bela/projects/NIEMO/dsp/DynamicStiffString.cpp:541:50
	vmul.f64	d16, d16, d17
	.loc	40 541 31               @ /root/Bela/projects/NIEMO/dsp/DynamicStiffString.cpp:541:31
	vmul.f32	d0, d4, d4
	.loc	40 541 29               @ /root/Bela/projects/NIEMO/dsp/DynamicStiffString.cpp:541:29
	vcvt.f64.f32	d17, s0
	.loc	40 541 35               @ /root/Bela/projects/NIEMO/dsp/DynamicStiffString.cpp:541:35
	vdiv.f64	d16, d17, d16
	.loc	40 541 29               @ /root/Bela/projects/NIEMO/dsp/DynamicStiffString.cpp:541:29
	vcvt.f32.f64	s0, d16
	.loc	40 541 27               @ /root/Bela/projects/NIEMO/dsp/DynamicStiffString.cpp:541:27
	vstr	s0, [r4, #112]
.Ltmp434:
.LBB2_63:
	.loc	40 500 1 is_stmt 1 discriminator 5 @ /root/Bela/projects/NIEMO/dsp/DynamicStiffString.cpp:500:1
	sub	sp, r11, #96
	vpop	{d8, d9, d10, d11, d12, d13, d14, d15}
	add	sp, sp, #4
	pop	{r4, r5, r6, r7, r8, r9, r10, r11, pc}
.Ltmp435:
	.p2align	3
@ BB#64:
.LCPI2_3:
	.long	1413754136              @ double 3.1415926535897931
	.long	1074340347
.LCPI2_6:
	.long	1413754136              @ double 0.78539816339744828
	.long	1072243195
.Lfunc_end2:
	.size	_ZN18DynamicStiffString19refreshCoefficientsEb, .Lfunc_end2-_ZN18DynamicStiffString19refreshCoefficientsEb
	.cfi_endproc
	.fnend

	.globl	_ZN18DynamicStiffString15calculateSchemeEv
	.p2align	2
	.type	_ZN18DynamicStiffString15calculateSchemeEv,%function
_ZN18DynamicStiffString15calculateSchemeEv: @ @_ZN18DynamicStiffString15calculateSchemeEv
.Lfunc_begin3:
	.loc	40 99 0                 @ /root/Bela/projects/NIEMO/dsp/DynamicStiffString.cpp:99:0
	.fnstart
	.cfi_startproc
@ BB#0:
	.save	{r4, r5, r6, r7, r8, r9, r10, r11, lr}
	push	{r4, r5, r6, r7, r8, r9, r10, r11, lr}
.Ltmp436:
	.cfi_def_cfa_offset 36
.Ltmp437:
	.cfi_offset lr, -4
.Ltmp438:
	.cfi_offset r11, -8
.Ltmp439:
	.cfi_offset r10, -12
.Ltmp440:
	.cfi_offset r9, -16
.Ltmp441:
	.cfi_offset r8, -20
.Ltmp442:
	.cfi_offset r7, -24
.Ltmp443:
	.cfi_offset r6, -28
.Ltmp444:
	.cfi_offset r5, -32
.Ltmp445:
	.cfi_offset r4, -36
	.pad	#4
	sub	sp, sp, #4
.Ltmp446:
	.cfi_def_cfa_offset 40
	.vsave	{d8}
	vpush	{d8}
.Ltmp447:
	.cfi_def_cfa_offset 48
.Ltmp448:
	.cfi_offset d8, -48
	.pad	#32
	sub	sp, sp, #32
.Ltmp449:
	.cfi_def_cfa_offset 80
	@DEBUG_VALUE: calculateScheme:this <- %R0
.Ltmp450:
	@DEBUG_VALUE: operator[]:__n <- 1
	.loc	12 781 32 prologue_end  @ /usr/bin/../lib/gcc/arm-linux-gnueabihf/6.3.0/../../../../include/c++/6.3.0/bits/stl_vector.h:781:32
	ldr	lr, [r0, #196]
.Ltmp451:
	@DEBUG_VALUE: operator[]:__n <- 2
	@DEBUG_VALUE: operator[]:__n <- 0
	.loc	40 103 30               @ /root/Bela/projects/NIEMO/dsp/DynamicStiffString.cpp:103:30
	add	r12, r0, #244
.Ltmp452:
	.loc	40 120 9                @ /root/Bela/projects/NIEMO/dsp/DynamicStiffString.cpp:120:9
	ldm	lr, {r8, r9, r11}
.Ltmp453:
	.loc	40 102 15               @ /root/Bela/projects/NIEMO/dsp/DynamicStiffString.cpp:102:15
	vldr	s0, [r0, #228]
	.loc	40 102 47 is_stmt 0     @ /root/Bela/projects/NIEMO/dsp/DynamicStiffString.cpp:102:47
	vldr	s8, [r9]
	.loc	40 102 37               @ /root/Bela/projects/NIEMO/dsp/DynamicStiffString.cpp:102:37
	vldr	s12, [r9, #8]
	.loc	40 102 21               @ /root/Bela/projects/NIEMO/dsp/DynamicStiffString.cpp:102:21
	vldr	s10, [r9, #4]
	.loc	40 102 45               @ /root/Bela/projects/NIEMO/dsp/DynamicStiffString.cpp:102:45
	vadd.f32	d16, d4, d6
	.loc	40 102 31               @ /root/Bela/projects/NIEMO/dsp/DynamicStiffString.cpp:102:31
	vldr	s2, [r0, #232]
	.loc	40 102 19               @ /root/Bela/projects/NIEMO/dsp/DynamicStiffString.cpp:102:19
	vmul.f32	d17, d5, d0
.Ltmp454:
	@DEBUG_VALUE: operator[]:__n <- 2
	@DEBUG_VALUE: operator[]:__n <- 2
	.loc	40 102 58               @ /root/Bela/projects/NIEMO/dsp/DynamicStiffString.cpp:102:58
	vldr	s4, [r0, #236]
	.loc	40 102 63               @ /root/Bela/projects/NIEMO/dsp/DynamicStiffString.cpp:102:63
	vldr	s14, [r9, #12]
	.loc	40 103 15 is_stmt 1     @ /root/Bela/projects/NIEMO/dsp/DynamicStiffString.cpp:103:15
	vldr	s6, [r0, #240]
.Ltmp455:
	@DEBUG_VALUE: operator[]:__n <- 1
	@DEBUG_VALUE: operator[]:__n <- 1
	@DEBUG_VALUE: operator[]:__n <- 1
	.loc	40 102 34               @ /root/Bela/projects/NIEMO/dsp/DynamicStiffString.cpp:102:34
	vmul.f32	d16, d16, d1
	.loc	40 103 20               @ /root/Bela/projects/NIEMO/dsp/DynamicStiffString.cpp:103:20
	vldr	s8, [r11, #4]
	.loc	40 102 61               @ /root/Bela/projects/NIEMO/dsp/DynamicStiffString.cpp:102:61
	vmul.f32	d18, d7, d2
	.loc	40 103 46               @ /root/Bela/projects/NIEMO/dsp/DynamicStiffString.cpp:103:46
	vldr	s0, [r11]
	.loc	40 103 36 is_stmt 0     @ /root/Bela/projects/NIEMO/dsp/DynamicStiffString.cpp:103:36
	vldr	s10, [r11, #8]
	.loc	40 103 18               @ /root/Bela/projects/NIEMO/dsp/DynamicStiffString.cpp:103:18
	vmul.f32	d20, d4, d3
	.loc	40 102 29 is_stmt 1     @ /root/Bela/projects/NIEMO/dsp/DynamicStiffString.cpp:102:29
	vadd.f32	d16, d16, d17
	.loc	40 103 44               @ /root/Bela/projects/NIEMO/dsp/DynamicStiffString.cpp:103:44
	vadd.f32	d19, d0, d5
	.loc	40 103 30 is_stmt 0     @ /root/Bela/projects/NIEMO/dsp/DynamicStiffString.cpp:103:30
	vldr	s0, [r0, #244]
	.loc	40 102 56 is_stmt 1     @ /root/Bela/projects/NIEMO/dsp/DynamicStiffString.cpp:102:56
	vadd.f32	d16, d16, d18
	.loc	40 103 33               @ /root/Bela/projects/NIEMO/dsp/DynamicStiffString.cpp:103:33
	vmul.f32	d17, d19, d0
	.loc	40 103 13 is_stmt 0     @ /root/Bela/projects/NIEMO/dsp/DynamicStiffString.cpp:103:13
	vadd.f32	d16, d16, d20
	.loc	40 103 28               @ /root/Bela/projects/NIEMO/dsp/DynamicStiffString.cpp:103:28
	vadd.f32	d0, d16, d17
	.loc	40 102 13 is_stmt 1     @ /root/Bela/projects/NIEMO/dsp/DynamicStiffString.cpp:102:13
	vstr	s0, [r8, #4]
.Ltmp456:
	@DEBUG_VALUE: l <- 2
	.loc	40 128 32               @ /root/Bela/projects/NIEMO/dsp/DynamicStiffString.cpp:128:32
	ldr	r4, [r0, #128]
	str	r8, [sp, #28]           @ 4-byte Spill
.Ltmp457:
	.loc	40 106 27 discriminator 1 @ /root/Bela/projects/NIEMO/dsp/DynamicStiffString.cpp:106:27
	sub	r1, r4, #1
	.loc	40 106 5 is_stmt 0 discriminator 1 @ /root/Bela/projects/NIEMO/dsp/DynamicStiffString.cpp:106:5
	cmp	r1, #3
	blt	.LBB3_11
.Ltmp458:
@ BB#1:                                 @ %.lr.ph77
	@DEBUG_VALUE: calculateScheme:this <- %R0
	sub	r2, r4, #3
	mov	r6, #2
	cmp	r2, #3
	bls	.LBB3_9
.Ltmp459:
@ BB#2:                                 @ %min.iters.checked
	@DEBUG_VALUE: calculateScheme:this <- %R0
	mov	r3, r2
	bfc	r3, #0, #2
	cmp	r3, #0
	beq	.LBB3_9
.Ltmp460:
@ BB#3:                                 @ %vector.memcheck
	@DEBUG_VALUE: calculateScheme:this <- %R0
	add	r10, r8, #8
	str	r3, [sp, #20]           @ 4-byte Spill
	str	r2, [sp, #4]            @ 4-byte Spill
	cmp	r10, r12
	mov	r3, #0
	add	r8, r8, r1, lsl #2
	add	r2, r11, #4
	movwlo	r3, #1
	cmp	r2, r8
	mov	r2, #0
	movwlo	r2, #1
	add	r7, r11, r4, lsl #2
	str	r2, [sp, #8]            @ 4-byte Spill
	mov	r2, r4
	cmp	r10, r7
	mov	r7, #0
	str	r2, [sp, #24]           @ 4-byte Spill
	add	r2, r9, r2, lsl #2
	movwlo	r7, #1
	mov	r4, r12
	cmp	r9, r8
	mov	r12, #0
	add	r2, r2, #4
	str	lr, [sp, #12]           @ 4-byte Spill
	movwlo	r12, #1
	cmp	r10, r2
	mov	lr, #0
	mov	r5, #0
	movwlo	lr, #1
	cmp	r4, r8
	movwlo	r5, #1
	tst	r3, r5
	str	r4, [sp, #16]           @ 4-byte Spill
	andseq	r2, lr, r12
	bne	.LBB3_8
.Ltmp461:
@ BB#4:                                 @ %vector.memcheck
	@DEBUG_VALUE: calculateScheme:this <- %R0
	ldr	r12, [sp, #16]          @ 4-byte Reload
	ldr	lr, [sp, #12]           @ 4-byte Reload
	ldr	r4, [sp, #24]           @ 4-byte Reload
	ldr	r8, [sp, #28]           @ 4-byte Reload
	ldr	r2, [sp, #8]            @ 4-byte Reload
	ands	r2, r7, r2
	bne	.LBB3_9
.Ltmp462:
@ BB#5:                                 @ %vector.body.preheader
	@DEBUG_VALUE: calculateScheme:this <- %R0
	.loc	40 108 19 is_stmt 1     @ /root/Bela/projects/NIEMO/dsp/DynamicStiffString.cpp:108:19
	add	r2, r0, #240
	ldr	r3, [sp, #20]           @ 4-byte Reload
	.loc	40 108 34 is_stmt 0     @ /root/Bela/projects/NIEMO/dsp/DynamicStiffString.cpp:108:34
	vld1.32	{d16[], d17[]}, [r12:32]
	.loc	40 106 5 is_stmt 1 discriminator 1 @ /root/Bela/projects/NIEMO/dsp/DynamicStiffString.cpp:106:5
	orr	r6, r3, #2
	.loc	40 108 19               @ /root/Bela/projects/NIEMO/dsp/DynamicStiffString.cpp:108:19
	vld1.32	{d18[], d19[]}, [r2:32]
	.loc	40 107 69               @ /root/Bela/projects/NIEMO/dsp/DynamicStiffString.cpp:107:69
	add	r2, r0, #236
	mov	r7, r3
	vld1.32	{d20[], d21[]}, [r2:32]
	.loc	40 107 34 is_stmt 0     @ /root/Bela/projects/NIEMO/dsp/DynamicStiffString.cpp:107:34
	add	r2, r0, #232
	vld1.32	{d22[], d23[]}, [r2:32]
	.loc	40 107 19               @ /root/Bela/projects/NIEMO/dsp/DynamicStiffString.cpp:107:19
	add	r2, r0, #224
	vld1.32	{d24[], d25[]}, [r2:32]
	mov	r2, #0
.Ltmp463:
.LBB3_6:                                @ %vector.body
                                        @ =>This Inner Loop Header: Depth=1
	.loc	40 107 24               @ /root/Bela/projects/NIEMO/dsp/DynamicStiffString.cpp:107:24
	add	r4, r9, r2
	.loc	40 106 5 is_stmt 1 discriminator 1 @ /root/Bela/projects/NIEMO/dsp/DynamicStiffString.cpp:106:5
	subs	r7, r7, #4
	.loc	40 107 40               @ /root/Bela/projects/NIEMO/dsp/DynamicStiffString.cpp:107:40
	add	r3, r4, #12
	vld1.32	{d28, d29}, [r3]
	.loc	40 107 54 is_stmt 0     @ /root/Bela/projects/NIEMO/dsp/DynamicStiffString.cpp:107:54
	add	r3, r4, #4
	.loc	40 107 89               @ /root/Bela/projects/NIEMO/dsp/DynamicStiffString.cpp:107:89
	mov	r5, r4
	.loc	40 107 54               @ /root/Bela/projects/NIEMO/dsp/DynamicStiffString.cpp:107:54
	vld1.32	{d30, d31}, [r3]
	.loc	40 107 24               @ /root/Bela/projects/NIEMO/dsp/DynamicStiffString.cpp:107:24
	add	r3, r4, #8
	.loc	40 107 52               @ /root/Bela/projects/NIEMO/dsp/DynamicStiffString.cpp:107:52
	vadd.f32	q14, q15, q14
	.loc	40 107 89               @ /root/Bela/projects/NIEMO/dsp/DynamicStiffString.cpp:107:89
	vld1.32	{d26, d27}, [r5]!
	.loc	40 107 75               @ /root/Bela/projects/NIEMO/dsp/DynamicStiffString.cpp:107:75
	vld1.32	{d30, d31}, [r5]
	.loc	40 107 87               @ /root/Bela/projects/NIEMO/dsp/DynamicStiffString.cpp:107:87
	vadd.f32	q13, q13, q15
	.loc	40 107 24               @ /root/Bela/projects/NIEMO/dsp/DynamicStiffString.cpp:107:24
	vld1.32	{d0, d1}, [r3]
	.loc	40 108 24 is_stmt 1     @ /root/Bela/projects/NIEMO/dsp/DynamicStiffString.cpp:108:24
	add	r3, r11, r2
	.loc	40 107 22               @ /root/Bela/projects/NIEMO/dsp/DynamicStiffString.cpp:107:22
	vmul.f32	q15, q0, q12
	.loc	40 108 40               @ /root/Bela/projects/NIEMO/dsp/DynamicStiffString.cpp:108:40
	add	r5, r3, #12
	.loc	40 107 37               @ /root/Bela/projects/NIEMO/dsp/DynamicStiffString.cpp:107:37
	vmul.f32	q14, q14, q11
	.loc	40 108 40               @ /root/Bela/projects/NIEMO/dsp/DynamicStiffString.cpp:108:40
	vld1.32	{d0, d1}, [r5]
	.loc	40 108 54 is_stmt 0     @ /root/Bela/projects/NIEMO/dsp/DynamicStiffString.cpp:108:54
	add	r5, r3, #4
	.loc	40 108 24               @ /root/Bela/projects/NIEMO/dsp/DynamicStiffString.cpp:108:24
	add	r3, r3, #8
	.loc	40 107 72 is_stmt 1     @ /root/Bela/projects/NIEMO/dsp/DynamicStiffString.cpp:107:72
	vmul.f32	q13, q13, q10
	.loc	40 108 24               @ /root/Bela/projects/NIEMO/dsp/DynamicStiffString.cpp:108:24
	vld1.32	{d2, d3}, [r3]
	.loc	40 107 17               @ /root/Bela/projects/NIEMO/dsp/DynamicStiffString.cpp:107:17
	add	r3, r10, r2
	.loc	40 106 5 discriminator 1 @ /root/Bela/projects/NIEMO/dsp/DynamicStiffString.cpp:106:5
	add	r2, r2, #16
	.loc	40 107 32               @ /root/Bela/projects/NIEMO/dsp/DynamicStiffString.cpp:107:32
	vadd.f32	q14, q14, q15
	.loc	40 108 54               @ /root/Bela/projects/NIEMO/dsp/DynamicStiffString.cpp:108:54
	vld1.32	{d30, d31}, [r5]
	.loc	40 108 52 is_stmt 0     @ /root/Bela/projects/NIEMO/dsp/DynamicStiffString.cpp:108:52
	vadd.f32	q15, q15, q0
	.loc	40 108 22               @ /root/Bela/projects/NIEMO/dsp/DynamicStiffString.cpp:108:22
	vmul.f32	q0, q1, q9
	.loc	40 107 67 is_stmt 1     @ /root/Bela/projects/NIEMO/dsp/DynamicStiffString.cpp:107:67
	vadd.f32	q13, q14, q13
	.loc	40 108 37               @ /root/Bela/projects/NIEMO/dsp/DynamicStiffString.cpp:108:37
	vmul.f32	q14, q15, q8
	.loc	40 108 17 is_stmt 0     @ /root/Bela/projects/NIEMO/dsp/DynamicStiffString.cpp:108:17
	vadd.f32	q13, q13, q0
	.loc	40 108 32               @ /root/Bela/projects/NIEMO/dsp/DynamicStiffString.cpp:108:32
	vadd.f32	q13, q13, q14
	.loc	40 107 17 is_stmt 1     @ /root/Bela/projects/NIEMO/dsp/DynamicStiffString.cpp:107:17
	vst1.32	{d26, d27}, [r3]
	.loc	40 106 5 discriminator 1 @ /root/Bela/projects/NIEMO/dsp/DynamicStiffString.cpp:106:5
	bne	.LBB3_6
@ BB#7:                                 @ %middle.block
	ldr	r4, [sp, #24]           @ 4-byte Reload
	ldr	r2, [sp, #4]            @ 4-byte Reload
	ldr	r3, [sp, #20]           @ 4-byte Reload
	cmp	r2, r3
	bne	.LBB3_9
	b	.LBB3_11
.LBB3_8:
.Ltmp464:
	@DEBUG_VALUE: calculateScheme:this <- %R0
	ldr	r12, [sp, #16]          @ 4-byte Reload
	ldr	lr, [sp, #12]           @ 4-byte Reload
	ldr	r4, [sp, #24]           @ 4-byte Reload
	ldr	r8, [sp, #28]           @ 4-byte Reload
.Ltmp465:
.LBB3_9:                                @ %scalar.ph.preheader
	.loc	40 107 19               @ /root/Bela/projects/NIEMO/dsp/DynamicStiffString.cpp:107:19
	add	r2, r11, r6, lsl #2
	add	r3, r9, r6, lsl #2
	add	r7, r8, r6, lsl #2
	add	r2, r2, #4
	add	r3, r3, #8
.LBB3_10:                               @ %scalar.ph
                                        @ =>This Inner Loop Header: Depth=1
	.loc	40 107 54 is_stmt 0     @ /root/Bela/projects/NIEMO/dsp/DynamicStiffString.cpp:107:54
	vldr	s10, [r3, #-12]
	.loc	40 107 47               @ /root/Bela/projects/NIEMO/dsp/DynamicStiffString.cpp:107:47
	add	r6, r6, #1
.Ltmp466:
	@DEBUG_VALUE: l <- %R6
	.loc	40 107 40               @ /root/Bela/projects/NIEMO/dsp/DynamicStiffString.cpp:107:40
	vldr	s14, [r3, #-4]
	.loc	40 106 5 is_stmt 1 discriminator 1 @ /root/Bela/projects/NIEMO/dsp/DynamicStiffString.cpp:106:5
	cmp	r6, r1
	.loc	40 107 19               @ /root/Bela/projects/NIEMO/dsp/DynamicStiffString.cpp:107:19
	vldr	s2, [r0, #224]
	.loc	40 107 52 is_stmt 0     @ /root/Bela/projects/NIEMO/dsp/DynamicStiffString.cpp:107:52
	vadd.f32	d17, d5, d7
	.loc	40 107 34               @ /root/Bela/projects/NIEMO/dsp/DynamicStiffString.cpp:107:34
	vldr	s4, [r0, #232]
	.loc	40 107 24               @ /root/Bela/projects/NIEMO/dsp/DynamicStiffString.cpp:107:24
	vldr	s12, [r3, #-8]
	.loc	40 107 89               @ /root/Bela/projects/NIEMO/dsp/DynamicStiffString.cpp:107:89
	vldr	s8, [r3, #-16]
	.loc	40 107 75               @ /root/Bela/projects/NIEMO/dsp/DynamicStiffString.cpp:107:75
	vldr	s16, [r3]
.Ltmp467:
	@DEBUG_VALUE: operator[]:__n <- 2
	@DEBUG_VALUE: operator[]:__n <- 1
	.loc	40 107 22               @ /root/Bela/projects/NIEMO/dsp/DynamicStiffString.cpp:107:22
	vmul.f32	d16, d6, d1
	.loc	40 107 37               @ /root/Bela/projects/NIEMO/dsp/DynamicStiffString.cpp:107:37
	vmul.f32	d17, d17, d2
	.loc	40 107 69               @ /root/Bela/projects/NIEMO/dsp/DynamicStiffString.cpp:107:69
	vldr	s6, [r0, #236]
.Ltmp468:
	@DEBUG_VALUE: operator[]:__n <- 1
	.loc	40 107 87               @ /root/Bela/projects/NIEMO/dsp/DynamicStiffString.cpp:107:87
	vadd.f32	d18, d4, d8
.Ltmp469:
	@DEBUG_VALUE: operator[]:__n <- 2
	@DEBUG_VALUE: operator[]:__n <- 2
	.loc	40 108 19 is_stmt 1     @ /root/Bela/projects/NIEMO/dsp/DynamicStiffString.cpp:108:19
	vldr	s0, [r0, #240]
.Ltmp470:
	@DEBUG_VALUE: operator[]:__n <- 1
	@DEBUG_VALUE: operator[]:__n <- 1
	@DEBUG_VALUE: operator[]:__n <- 1
	.loc	40 108 24 is_stmt 0     @ /root/Bela/projects/NIEMO/dsp/DynamicStiffString.cpp:108:24
	vldr	s8, [r2, #-4]
	.loc	40 106 23 is_stmt 1 discriminator 1 @ /root/Bela/projects/NIEMO/dsp/DynamicStiffString.cpp:106:23
	add	r3, r3, #4
	.loc	40 108 54               @ /root/Bela/projects/NIEMO/dsp/DynamicStiffString.cpp:108:54
	vldr	s2, [r2, #-8]
	.loc	40 107 32               @ /root/Bela/projects/NIEMO/dsp/DynamicStiffString.cpp:107:32
	vadd.f32	d16, d17, d16
	.loc	40 108 40               @ /root/Bela/projects/NIEMO/dsp/DynamicStiffString.cpp:108:40
	vldr	s10, [r2]
	.loc	40 107 72               @ /root/Bela/projects/NIEMO/dsp/DynamicStiffString.cpp:107:72
	vmul.f32	d18, d18, d3
	.loc	40 106 23 discriminator 1 @ /root/Bela/projects/NIEMO/dsp/DynamicStiffString.cpp:106:23
	add	r2, r2, #4
	.loc	40 108 22               @ /root/Bela/projects/NIEMO/dsp/DynamicStiffString.cpp:108:22
	vmul.f32	d20, d4, d0
	.loc	40 108 34 is_stmt 0     @ /root/Bela/projects/NIEMO/dsp/DynamicStiffString.cpp:108:34
	vldr	s0, [r0, #244]
	.loc	40 108 52               @ /root/Bela/projects/NIEMO/dsp/DynamicStiffString.cpp:108:52
	vadd.f32	d19, d1, d5
	.loc	40 107 67 is_stmt 1     @ /root/Bela/projects/NIEMO/dsp/DynamicStiffString.cpp:107:67
	vadd.f32	d16, d16, d18
	.loc	40 108 37               @ /root/Bela/projects/NIEMO/dsp/DynamicStiffString.cpp:108:37
	vmul.f32	d17, d19, d0
	.loc	40 108 17 is_stmt 0     @ /root/Bela/projects/NIEMO/dsp/DynamicStiffString.cpp:108:17
	vadd.f32	d16, d16, d20
.Ltmp471:
	@DEBUG_VALUE: operator[]:__n <- 0
	.loc	40 108 32               @ /root/Bela/projects/NIEMO/dsp/DynamicStiffString.cpp:108:32
	vadd.f32	d0, d16, d17
	.loc	40 107 17 is_stmt 1     @ /root/Bela/projects/NIEMO/dsp/DynamicStiffString.cpp:107:17
	vstmia	r7!, {s0}
	blt	.LBB3_10
.Ltmp472:
.LBB3_11:                               @ %._crit_edge78
	.loc	40 111 10               @ /root/Bela/projects/NIEMO/dsp/DynamicStiffString.cpp:111:10
	vldr	s0, [r0, #148]
	vmov.f64	d18, #-4.000000e+00
	.loc	40 111 32 is_stmt 0     @ /root/Bela/projects/NIEMO/dsp/DynamicStiffString.cpp:111:32
	vcvt.f64.f32	d16, s0
	.loc	40 113 33 is_stmt 1     @ /root/Bela/projects/NIEMO/dsp/DynamicStiffString.cpp:113:33
	vmov.f64	d17, #4.000000e+00
	vmul.f64	d18, d16, d18
	vmul.f64	d20, d16, d17
	.loc	40 111 24               @ /root/Bela/projects/NIEMO/dsp/DynamicStiffString.cpp:111:24
	vmov.f64	d19, #6.000000e+00
	.loc	40 113 27               @ /root/Bela/projects/NIEMO/dsp/DynamicStiffString.cpp:113:27
	vmov.f64	d16, #1.000000e+00
	.loc	40 111 16               @ /root/Bela/projects/NIEMO/dsp/DynamicStiffString.cpp:111:16
	vmul.f32	d1, d0, d0
	.loc	40 111 24 is_stmt 0     @ /root/Bela/projects/NIEMO/dsp/DynamicStiffString.cpp:111:24
	vadd.f64	d18, d18, d19
	.loc	40 113 27 is_stmt 1     @ /root/Bela/projects/NIEMO/dsp/DynamicStiffString.cpp:113:27
	vadd.f64	d20, d20, d16
	.loc	40 111 10               @ /root/Bela/projects/NIEMO/dsp/DynamicStiffString.cpp:111:10
	vcvt.f64.f32	d19, s2
	.loc	40 111 38 is_stmt 0     @ /root/Bela/projects/NIEMO/dsp/DynamicStiffString.cpp:111:38
	vadd.f64	d18, d18, d19
	.loc	40 113 41 is_stmt 1     @ /root/Bela/projects/NIEMO/dsp/DynamicStiffString.cpp:113:41
	vsub.f64	d19, d20, d19
	.loc	40 111 10               @ /root/Bela/projects/NIEMO/dsp/DynamicStiffString.cpp:111:10
	vcvt.f32.f64	s6, d18
	.loc	40 113 10               @ /root/Bela/projects/NIEMO/dsp/DynamicStiffString.cpp:113:10
	vcvt.f32.f64	s8, d19
	.loc	40 115 10               @ /root/Bela/projects/NIEMO/dsp/DynamicStiffString.cpp:115:10
	vmov.f32	d18, #-2.000000e+00
	.loc	40 111 8                @ /root/Bela/projects/NIEMO/dsp/DynamicStiffString.cpp:111:8
	vstr	s6, [r0, #152]
.Ltmp473:
	.loc	40 122 90               @ /root/Bela/projects/NIEMO/dsp/DynamicStiffString.cpp:122:90
	vmov.f32	d19, #-4.000000e+00
.Ltmp474:
	.loc	40 115 10               @ /root/Bela/projects/NIEMO/dsp/DynamicStiffString.cpp:115:10
	vadd.f32	d5, d0, d18
.Ltmp475:
	.loc	40 122 90               @ /root/Bela/projects/NIEMO/dsp/DynamicStiffString.cpp:122:90
	vadd.f32	d2, d0, d19
.Ltmp476:
	.loc	40 150 66               @ /root/Bela/projects/NIEMO/dsp/DynamicStiffString.cpp:150:66
	vneg.f32	d1, d0
.Ltmp477:
	.loc	40 112 8                @ /root/Bela/projects/NIEMO/dsp/DynamicStiffString.cpp:112:8
	vstr	s4, [r0, #156]
	.loc	40 113 8                @ /root/Bela/projects/NIEMO/dsp/DynamicStiffString.cpp:113:8
	vstr	s8, [r0, #160]
	.loc	40 114 8                @ /root/Bela/projects/NIEMO/dsp/DynamicStiffString.cpp:114:8
	vstr	s2, [r0, #164]
	.loc	40 115 8                @ /root/Bela/projects/NIEMO/dsp/DynamicStiffString.cpp:115:8
	vstr	s10, [r0, #168]
.Ltmp478:
	.loc	40 117 9                @ /root/Bela/projects/NIEMO/dsp/DynamicStiffString.cpp:117:9
	ldr	r2, [r0, #132]
.Ltmp479:
	.loc	40 117 9 is_stmt 0      @ /root/Bela/projects/NIEMO/dsp/DynamicStiffString.cpp:117:9
	cmp	r2, #1
	bne	.LBB3_13
@ BB#12:
.Ltmp480:
	@DEBUG_VALUE: operator[]:__n <- 1
	mvn	r2, #7
.Ltmp481:
	@DEBUG_VALUE: operator[]:__n <- 1
	@DEBUG_VALUE: operator[]:__n <- 1
	@DEBUG_VALUE: operator[]:__n <- 1
	.loc	40 121 75 is_stmt 1     @ /root/Bela/projects/NIEMO/dsp/DynamicStiffString.cpp:121:75
	add	r6, r2, r4, lsl #2
.Ltmp482:
	@DEBUG_VALUE: operator[]:__n <- 1
	add	r2, r9, r6
	.loc	40 120 29               @ /root/Bela/projects/NIEMO/dsp/DynamicStiffString.cpp:120:29
	add	r3, r9, r1, lsl #2
	vmov.f32	d17, #-4.000000e+00
	add	r7, r9, r4, lsl #2
	.loc	40 122 75               @ /root/Bela/projects/NIEMO/dsp/DynamicStiffString.cpp:122:75
	vmov.f32	d18, #6.000000e+00
.Ltmp483:
	@DEBUG_VALUE: operator[]:__n <- 1
	.loc	40 121 75               @ /root/Bela/projects/NIEMO/dsp/DynamicStiffString.cpp:121:75
	vldr	s2, [r2]
	.loc	40 120 29               @ /root/Bela/projects/NIEMO/dsp/DynamicStiffString.cpp:120:29
	vldr	s6, [r3]
	.loc	40 125 37               @ /root/Bela/projects/NIEMO/dsp/DynamicStiffString.cpp:125:37
	add	r5, r11, r4, lsl #2
	vmul.f32	d19, d1, d17
	.loc	40 121 43               @ /root/Bela/projects/NIEMO/dsp/DynamicStiffString.cpp:121:43
	vldr	s0, [r7]
.Ltmp484:
	@DEBUG_VALUE: operator[]:__n <- 1
	.loc	40 122 75               @ /root/Bela/projects/NIEMO/dsp/DynamicStiffString.cpp:122:75
	vmul.f32	d18, d3, d18
	.loc	40 122 39 is_stmt 0     @ /root/Bela/projects/NIEMO/dsp/DynamicStiffString.cpp:122:39
	vldr	s8, [r7, #-12]
	.loc	40 122 93               @ /root/Bela/projects/NIEMO/dsp/DynamicStiffString.cpp:122:93
	vmul.f32	d20, d2, d0
	.loc	40 120 42 is_stmt 1     @ /root/Bela/projects/NIEMO/dsp/DynamicStiffString.cpp:120:42
	add	r10, r11, r1, lsl #2
	.loc	40 121 75               @ /root/Bela/projects/NIEMO/dsp/DynamicStiffString.cpp:121:75
	vcvt.f64.f32	d21, s2
.Ltmp485:
	@DEBUG_VALUE: operator[]:__n <- 2
	.loc	12 781 32               @ /usr/bin/../lib/gcc/arm-linux-gnueabihf/6.3.0/../../../../include/c++/6.3.0/bits/stl_vector.h:781:32
	ldr	r12, [r0, #208]
.Ltmp486:
	@DEBUG_VALUE: operator[]:__n <- 1
	.loc	40 125 69               @ /root/Bela/projects/NIEMO/dsp/DynamicStiffString.cpp:125:69
	add	r6, r11, r6
	mov	r9, r4
	.loc	40 120 9                @ /root/Bela/projects/NIEMO/dsp/DynamicStiffString.cpp:120:9
	ldr	r4, [sp, #28]           @ 4-byte Reload
	.loc	40 122 106              @ /root/Bela/projects/NIEMO/dsp/DynamicStiffString.cpp:122:106
	ldr	r8, [r12, #4]
	.loc	40 120 9                @ /root/Bela/projects/NIEMO/dsp/DynamicStiffString.cpp:120:9
	add	r1, r4, r1, lsl #2
	.loc	40 122 52               @ /root/Bela/projects/NIEMO/dsp/DynamicStiffString.cpp:122:52
	vadd.f32	d18, d19, d18
	.loc	40 122 31 is_stmt 0     @ /root/Bela/projects/NIEMO/dsp/DynamicStiffString.cpp:122:31
	vldr	s10, [r0, #48]
	.loc	40 120 29 is_stmt 1     @ /root/Bela/projects/NIEMO/dsp/DynamicStiffString.cpp:120:29
	vcvt.f64.f32	d19, s6
	.loc	40 122 71               @ /root/Bela/projects/NIEMO/dsp/DynamicStiffString.cpp:122:71
	vadd.f32	d18, d18, d4
	.loc	40 122 106 is_stmt 0    @ /root/Bela/projects/NIEMO/dsp/DynamicStiffString.cpp:122:106
	vldr	s4, [r8]
	.loc	40 120 27 is_stmt 1     @ /root/Bela/projects/NIEMO/dsp/DynamicStiffString.cpp:120:27
	vadd.f64	d19, d19, d19
	.loc	40 122 88               @ /root/Bela/projects/NIEMO/dsp/DynamicStiffString.cpp:122:88
	vadd.f32	d18, d18, d20
	.loc	40 121 31               @ /root/Bela/projects/NIEMO/dsp/DynamicStiffString.cpp:121:31
	vldr	s8, [r0, #44]
	.loc	40 121 43 is_stmt 0     @ /root/Bela/projects/NIEMO/dsp/DynamicStiffString.cpp:121:43
	vcvt.f64.f32	d20, s0
.Ltmp487:
	@DEBUG_VALUE: operator[]:__n <- 1
	.loc	40 121 52               @ /root/Bela/projects/NIEMO/dsp/DynamicStiffString.cpp:121:52
	vsub.f64	d20, d20, d19
	.loc	40 125 37 is_stmt 1     @ /root/Bela/projects/NIEMO/dsp/DynamicStiffString.cpp:125:37
	vldr	s0, [r5]
	.loc	40 122 104              @ /root/Bela/projects/NIEMO/dsp/DynamicStiffString.cpp:122:104
	vadd.f32	d18, d18, d2
	.loc	40 121 73               @ /root/Bela/projects/NIEMO/dsp/DynamicStiffString.cpp:121:73
	vadd.f64	d20, d20, d21
.Ltmp488:
	@DEBUG_VALUE: operator[]:__n <- 2
	@DEBUG_VALUE: operator[]:__n <- 1
	@DEBUG_VALUE: operator[]:__n <- 1
	@DEBUG_VALUE: operator[]:__n <- 1
	.loc	40 125 37               @ /root/Bela/projects/NIEMO/dsp/DynamicStiffString.cpp:125:37
	vcvt.f64.f32	d21, s0
	.loc	40 120 42               @ /root/Bela/projects/NIEMO/dsp/DynamicStiffString.cpp:120:42
	vldr	s0, [r10]
	.loc	40 122 36               @ /root/Bela/projects/NIEMO/dsp/DynamicStiffString.cpp:122:36
	vmul.f32	d5, d18, d5
	.loc	40 124 31               @ /root/Bela/projects/NIEMO/dsp/DynamicStiffString.cpp:124:31
	vldr	s12, [r0, #252]
	.loc	40 120 42               @ /root/Bela/projects/NIEMO/dsp/DynamicStiffString.cpp:120:42
	vcvt.f64.f32	d22, s0
.Ltmp489:
	@DEBUG_VALUE: operator[]:__n <- 2
	vadd.f64	d23, d22, d22
	.loc	40 121 29               @ /root/Bela/projects/NIEMO/dsp/DynamicStiffString.cpp:121:29
	vsub.f64	d19, d19, d22
	.loc	40 123 31               @ /root/Bela/projects/NIEMO/dsp/DynamicStiffString.cpp:123:31
	vldr	s4, [r0, #248]
	.loc	40 125 46               @ /root/Bela/projects/NIEMO/dsp/DynamicStiffString.cpp:125:46
	vsub.f64	d21, d23, d21
.Ltmp490:
	@DEBUG_VALUE: operator[]:__n <- 2
	.loc	40 121 31               @ /root/Bela/projects/NIEMO/dsp/DynamicStiffString.cpp:121:31
	vcvt.f64.f32	d22, s8
	.loc	40 124 31               @ /root/Bela/projects/NIEMO/dsp/DynamicStiffString.cpp:124:31
	vcvt.f64.f32	d23, s12
	.loc	40 122 31               @ /root/Bela/projects/NIEMO/dsp/DynamicStiffString.cpp:122:31
	vcvt.f64.f32	d18, s10
	.loc	40 123 34               @ /root/Bela/projects/NIEMO/dsp/DynamicStiffString.cpp:123:34
	vmul.f32	d0, d2, d0
.Ltmp491:
	@DEBUG_VALUE: operator[]:__n <- 0
	vadd.f64	d22, d23, d22
.Ltmp492:
	@DEBUG_VALUE: operator[]:__n <- 2
	.loc	40 122 29               @ /root/Bela/projects/NIEMO/dsp/DynamicStiffString.cpp:122:29
	vsub.f64	d18, d19, d18
	.loc	40 123 31               @ /root/Bela/projects/NIEMO/dsp/DynamicStiffString.cpp:123:31
	vcvt.f64.f32	d19, s0
	.loc	40 125 69               @ /root/Bela/projects/NIEMO/dsp/DynamicStiffString.cpp:125:69
	vldr	s0, [r6]
	vmul.f64	d20, d22, d20
	vcvt.f64.f32	d24, s0
	.loc	40 125 67 is_stmt 0     @ /root/Bela/projects/NIEMO/dsp/DynamicStiffString.cpp:125:67
	vsub.f64	d21, d21, d24
	.loc	40 123 29 is_stmt 1     @ /root/Bela/projects/NIEMO/dsp/DynamicStiffString.cpp:123:29
	vadd.f64	d18, d18, d19
	.loc	40 125 34               @ /root/Bela/projects/NIEMO/dsp/DynamicStiffString.cpp:125:34
	vmul.f64	d21, d21, d23
	.loc	40 124 29               @ /root/Bela/projects/NIEMO/dsp/DynamicStiffString.cpp:124:29
	vadd.f64	d18, d18, d20
	.loc	40 125 93               @ /root/Bela/projects/NIEMO/dsp/DynamicStiffString.cpp:125:93
	vcvt.f64.f32	d19, s4
	.loc	40 125 91 is_stmt 0     @ /root/Bela/projects/NIEMO/dsp/DynamicStiffString.cpp:125:91
	vadd.f64	d19, d19, d16
	.loc	40 125 29               @ /root/Bela/projects/NIEMO/dsp/DynamicStiffString.cpp:125:29
	vadd.f64	d18, d18, d21
	.loc	40 125 84               @ /root/Bela/projects/NIEMO/dsp/DynamicStiffString.cpp:125:84
	vdiv.f64	d18, d18, d19
	.loc	40 120 22 is_stmt 1     @ /root/Bela/projects/NIEMO/dsp/DynamicStiffString.cpp:120:22
	vcvt.f32.f64	s0, d18
	.loc	40 120 20 is_stmt 0     @ /root/Bela/projects/NIEMO/dsp/DynamicStiffString.cpp:120:20
	vstr	s0, [r1]
.Ltmp493:
	@DEBUG_VALUE: operator[]:__n <- 1
	.loc	40 129 69 is_stmt 1     @ /root/Bela/projects/NIEMO/dsp/DynamicStiffString.cpp:129:69
	vldr	s0, [r3]
	.loc	40 130 39               @ /root/Bela/projects/NIEMO/dsp/DynamicStiffString.cpp:130:39
	vldr	s4, [r2]
.Ltmp494:
	@DEBUG_VALUE: operator[]:__n <- 1
	vmul.f32	d17, d0, d17
	.loc	40 130 95 is_stmt 0     @ /root/Bela/projects/NIEMO/dsp/DynamicStiffString.cpp:130:95
	vldr	s8, [r0, #164]
.Ltmp495:
	@DEBUG_VALUE: operator[]:__n <- 1
	.loc	40 130 90               @ /root/Bela/projects/NIEMO/dsp/DynamicStiffString.cpp:130:90
	vldr	s12, [r0, #156]
	.loc	40 130 73               @ /root/Bela/projects/NIEMO/dsp/DynamicStiffString.cpp:130:73
	vldr	s10, [r0, #152]
	.loc	40 130 93               @ /root/Bela/projects/NIEMO/dsp/DynamicStiffString.cpp:130:93
	vsub.f32	d18, d4, d6
.Ltmp496:
	@DEBUG_VALUE: operator[]:__n <- 1
	@DEBUG_VALUE: operator[]:__n <- 1
	.loc	40 129 43 is_stmt 1     @ /root/Bela/projects/NIEMO/dsp/DynamicStiffString.cpp:129:43
	vldr	s8, [r8]
	.loc	40 130 52               @ /root/Bela/projects/NIEMO/dsp/DynamicStiffString.cpp:130:52
	vadd.f32	d17, d2, d17
.Ltmp497:
	@DEBUG_VALUE: operator[]:__n <- 1
	.loc	40 128 27               @ /root/Bela/projects/NIEMO/dsp/DynamicStiffString.cpp:128:27
	vldr	s4, [r7]
	.loc	40 130 31               @ /root/Bela/projects/NIEMO/dsp/DynamicStiffString.cpp:130:31
	vldr	s6, [r0, #48]
	mvn	r7, #3
	.loc	40 130 76 is_stmt 0     @ /root/Bela/projects/NIEMO/dsp/DynamicStiffString.cpp:130:76
	vmul.f32	d19, d5, d2
	.loc	40 131 39 is_stmt 1     @ /root/Bela/projects/NIEMO/dsp/DynamicStiffString.cpp:131:39
	vldr	s10, [r0, #248]
	.loc	40 130 99               @ /root/Bela/projects/NIEMO/dsp/DynamicStiffString.cpp:130:99
	vmul.f32	d18, d18, d4
	.loc	40 129 31               @ /root/Bela/projects/NIEMO/dsp/DynamicStiffString.cpp:129:31
	vldr	s2, [r0, #44]
	.loc	40 128 27               @ /root/Bela/projects/NIEMO/dsp/DynamicStiffString.cpp:128:27
	vcvt.f64.f32	d23, s4
	.loc	40 133 37               @ /root/Bela/projects/NIEMO/dsp/DynamicStiffString.cpp:133:37
	ldr	r1, [r12, #8]
	.loc	40 128 9                @ /root/Bela/projects/NIEMO/dsp/DynamicStiffString.cpp:128:9
	ldr	r2, [lr]
	add	r2, r2, r9, lsl #2
	.loc	40 130 71               @ /root/Bela/projects/NIEMO/dsp/DynamicStiffString.cpp:130:71
	vadd.f32	d17, d17, d19
.Ltmp498:
	@DEBUG_VALUE: operator[]:__n <- 1
	@DEBUG_VALUE: operator[]:__n <- 1
	.loc	40 128 25               @ /root/Bela/projects/NIEMO/dsp/DynamicStiffString.cpp:128:25
	vadd.f64	d23, d23, d23
	.loc	40 130 87               @ /root/Bela/projects/NIEMO/dsp/DynamicStiffString.cpp:130:87
	vsub.f32	d17, d18, d17
	.loc	40 131 39               @ /root/Bela/projects/NIEMO/dsp/DynamicStiffString.cpp:131:39
	vcvt.f64.f32	d18, s10
	.loc	40 130 36               @ /root/Bela/projects/NIEMO/dsp/DynamicStiffString.cpp:130:36
	vmul.f32	d3, d17, d3
	.loc	40 129 53               @ /root/Bela/projects/NIEMO/dsp/DynamicStiffString.cpp:129:53
	vldr	s10, [r0, #168]
	.loc	40 131 37               @ /root/Bela/projects/NIEMO/dsp/DynamicStiffString.cpp:131:37
	vmov.f64	d17, #-1.000000e+00
	vadd.f64	d20, d18, d17
.Ltmp499:
	@DEBUG_VALUE: operator[]:__n <- 2
	.loc	40 130 31               @ /root/Bela/projects/NIEMO/dsp/DynamicStiffString.cpp:130:31
	vcvt.f64.f32	d19, s6
	.loc	40 131 45               @ /root/Bela/projects/NIEMO/dsp/DynamicStiffString.cpp:131:45
	vldr	s6, [r5]
	.loc	40 133 85               @ /root/Bela/projects/NIEMO/dsp/DynamicStiffString.cpp:133:85
	vadd.f64	d18, d18, d16
	.loc	40 131 45               @ /root/Bela/projects/NIEMO/dsp/DynamicStiffString.cpp:131:45
	vcvt.f64.f32	d21, s6
	.loc	40 131 43 is_stmt 0     @ /root/Bela/projects/NIEMO/dsp/DynamicStiffString.cpp:131:43
	vmul.f64	d20, d21, d20
	.loc	40 129 56 is_stmt 1     @ /root/Bela/projects/NIEMO/dsp/DynamicStiffString.cpp:129:56
	vmul.f32	d21, d5, d2
	.loc	40 133 37               @ /root/Bela/projects/NIEMO/dsp/DynamicStiffString.cpp:133:37
	vldr	s4, [r1]
	.loc	40 129 51               @ /root/Bela/projects/NIEMO/dsp/DynamicStiffString.cpp:129:51
	vadd.f32	d21, d21, d4
	.loc	40 129 67 is_stmt 0     @ /root/Bela/projects/NIEMO/dsp/DynamicStiffString.cpp:129:67
	vadd.f32	d21, d21, d0
	.loc	40 129 40               @ /root/Bela/projects/NIEMO/dsp/DynamicStiffString.cpp:129:40
	vmul.f32	d0, d21, d1
	.loc	40 129 31               @ /root/Bela/projects/NIEMO/dsp/DynamicStiffString.cpp:129:31
	vcvt.f64.f32	d22, s0
	.loc	40 129 29               @ /root/Bela/projects/NIEMO/dsp/DynamicStiffString.cpp:129:29
	vadd.f64	d22, d22, d23
	.loc	40 130 29 is_stmt 1     @ /root/Bela/projects/NIEMO/dsp/DynamicStiffString.cpp:130:29
	vadd.f64	d19, d22, d19
	.loc	40 132 31               @ /root/Bela/projects/NIEMO/dsp/DynamicStiffString.cpp:132:31
	vldr	s0, [r0, #252]
.Ltmp500:
	@DEBUG_VALUE: operator[]:__n <- 2
	.loc	40 131 29               @ /root/Bela/projects/NIEMO/dsp/DynamicStiffString.cpp:131:29
	vadd.f64	d19, d19, d20
.Ltmp501:
	@DEBUG_VALUE: operator[]:__n <- 2
	.loc	40 133 50               @ /root/Bela/projects/NIEMO/dsp/DynamicStiffString.cpp:133:50
	vmul.f32	d20, d3, d5
.Ltmp502:
	@DEBUG_VALUE: operator[]:__n <- 1
	@DEBUG_VALUE: operator[]:__n <- 1
	@DEBUG_VALUE: operator[]:__n <- 1
	.loc	40 132 34               @ /root/Bela/projects/NIEMO/dsp/DynamicStiffString.cpp:132:34
	vmul.f32	d1, d0, d21
	.loc	40 133 45               @ /root/Bela/projects/NIEMO/dsp/DynamicStiffString.cpp:133:45
	vadd.f32	d20, d2, d20
	.loc	40 132 31               @ /root/Bela/projects/NIEMO/dsp/DynamicStiffString.cpp:132:31
	vcvt.f64.f32	d21, s2
.Ltmp503:
	@DEBUG_VALUE: operator[]:__n <- 2
	.loc	40 133 63               @ /root/Bela/projects/NIEMO/dsp/DynamicStiffString.cpp:133:63
	vldr	s2, [r10]
	.loc	40 132 29               @ /root/Bela/projects/NIEMO/dsp/DynamicStiffString.cpp:132:29
	vadd.f64	d19, d19, d21
	.loc	40 133 61               @ /root/Bela/projects/NIEMO/dsp/DynamicStiffString.cpp:133:61
	vadd.f32	d20, d20, d1
	.loc	40 133 34 is_stmt 0     @ /root/Bela/projects/NIEMO/dsp/DynamicStiffString.cpp:133:34
	vmul.f32	d0, d20, d0
	.loc	40 133 31               @ /root/Bela/projects/NIEMO/dsp/DynamicStiffString.cpp:133:31
	vcvt.f64.f32	d20, s0
	.loc	40 133 29               @ /root/Bela/projects/NIEMO/dsp/DynamicStiffString.cpp:133:29
	vsub.f64	d19, d19, d20
	.loc	40 133 78               @ /root/Bela/projects/NIEMO/dsp/DynamicStiffString.cpp:133:78
	vdiv.f64	d18, d19, d18
.Ltmp504:
	@DEBUG_VALUE: operator[]:__n <- 0
	.loc	40 128 20 is_stmt 1     @ /root/Bela/projects/NIEMO/dsp/DynamicStiffString.cpp:128:20
	vcvt.f32.f64	s0, d18
	.loc	40 128 18 is_stmt 0     @ /root/Bela/projects/NIEMO/dsp/DynamicStiffString.cpp:128:18
	vstr	s0, [r2]
.Ltmp505:
	@DEBUG_VALUE: operator[]:__n <- 1
	.loc	12 781 32 is_stmt 1     @ /usr/bin/../lib/gcc/arm-linux-gnueabihf/6.3.0/../../../../include/c++/6.3.0/bits/stl_vector.h:781:32
	ldr	r3, [r0, #196]
.Ltmp506:
	.loc	40 137 41               @ /root/Bela/projects/NIEMO/dsp/DynamicStiffString.cpp:137:41
	ldr	r2, [r0, #128]
.Ltmp507:
	@DEBUG_VALUE: operator[]:__n <- 2
	.loc	40 138 45               @ /root/Bela/projects/NIEMO/dsp/DynamicStiffString.cpp:138:45
	vldr	s6, [r0, #160]
	.loc	40 137 36               @ /root/Bela/projects/NIEMO/dsp/DynamicStiffString.cpp:137:36
	ldr	r6, [r3, #4]
	add	r7, r7, r2, lsl #2
.Ltmp508:
	@DEBUG_VALUE: operator[]:__n <- 1
	.loc	40 137 31 is_stmt 0     @ /root/Bela/projects/NIEMO/dsp/DynamicStiffString.cpp:137:31
	vldr	s0, [r0, #164]
.Ltmp509:
	@DEBUG_VALUE: operator[]:__n <- 1
	.loc	40 137 36               @ /root/Bela/projects/NIEMO/dsp/DynamicStiffString.cpp:137:36
	add	r5, r6, r2, lsl #2
	add	r6, r6, r7
	.loc	40 138 63 is_stmt 1     @ /root/Bela/projects/NIEMO/dsp/DynamicStiffString.cpp:138:63
	vldr	s12, [r0, #156]
.Ltmp510:
	@DEBUG_VALUE: operator[]:__n <- 1
	.loc	40 137 36               @ /root/Bela/projects/NIEMO/dsp/DynamicStiffString.cpp:137:36
	vldr	s4, [r6]
	.loc	40 138 32               @ /root/Bela/projects/NIEMO/dsp/DynamicStiffString.cpp:138:32
	vldr	s8, [r5, #-8]
	.loc	40 138 48 is_stmt 0     @ /root/Bela/projects/NIEMO/dsp/DynamicStiffString.cpp:138:48
	vmul.f32	d18, d3, d2
	.loc	40 137 49 is_stmt 1     @ /root/Bela/projects/NIEMO/dsp/DynamicStiffString.cpp:137:49
	vldr	s2, [r5]
.Ltmp511:
	@DEBUG_VALUE: operator[]:__n <- 1
	.loc	40 138 30               @ /root/Bela/projects/NIEMO/dsp/DynamicStiffString.cpp:138:30
	vmul.f32	d19, d4, d0
	.loc	40 139 30               @ /root/Bela/projects/NIEMO/dsp/DynamicStiffString.cpp:139:30
	vldr	s6, [r0, #152]
	.loc	40 137 34               @ /root/Bela/projects/NIEMO/dsp/DynamicStiffString.cpp:137:34
	vmul.f32	d21, d2, d0
	.loc	40 137 19 is_stmt 0     @ /root/Bela/projects/NIEMO/dsp/DynamicStiffString.cpp:137:19
	vldr	s8, [r0, #44]
	.loc	40 140 27 is_stmt 1     @ /root/Bela/projects/NIEMO/dsp/DynamicStiffString.cpp:140:27
	vldr	s4, [r0, #248]
	.loc	40 138 19               @ /root/Bela/projects/NIEMO/dsp/DynamicStiffString.cpp:138:19
	vldr	s10, [r0, #48]
	.loc	40 138 43 is_stmt 0     @ /root/Bela/projects/NIEMO/dsp/DynamicStiffString.cpp:138:43
	vadd.f32	d18, d18, d19
	.loc	40 142 30 is_stmt 1     @ /root/Bela/projects/NIEMO/dsp/DynamicStiffString.cpp:142:30
	ldr	r3, [r3, #8]
	.loc	40 138 66               @ /root/Bela/projects/NIEMO/dsp/DynamicStiffString.cpp:138:66
	vmul.f32	d19, d6, d1
	.loc	40 137 47               @ /root/Bela/projects/NIEMO/dsp/DynamicStiffString.cpp:137:47
	vadd.f32	d21, d21, d1
	.loc	40 138 19               @ /root/Bela/projects/NIEMO/dsp/DynamicStiffString.cpp:138:19
	vcvt.f64.f32	d22, s10
	.loc	40 138 61 is_stmt 0     @ /root/Bela/projects/NIEMO/dsp/DynamicStiffString.cpp:138:61
	vadd.f32	d6, d18, d19
	.loc	40 139 30 is_stmt 1     @ /root/Bela/projects/NIEMO/dsp/DynamicStiffString.cpp:139:30
	vcvt.f64.f32	d19, s6
	.loc	40 139 33 is_stmt 0     @ /root/Bela/projects/NIEMO/dsp/DynamicStiffString.cpp:139:33
	vadd.f64	d19, d19, d17
.Ltmp512:
	@DEBUG_VALUE: operator[]:__n <- 1
	.loc	40 138 27 is_stmt 1     @ /root/Bela/projects/NIEMO/dsp/DynamicStiffString.cpp:138:27
	vcvt.f64.f32	d18, s12
	.loc	40 136 26               @ /root/Bela/projects/NIEMO/dsp/DynamicStiffString.cpp:136:26
	vldr	s12, [r8]
	.loc	40 137 60               @ /root/Bela/projects/NIEMO/dsp/DynamicStiffString.cpp:137:60
	vldr	s6, [r0, #168]
	.loc	40 136 26               @ /root/Bela/projects/NIEMO/dsp/DynamicStiffString.cpp:136:26
	vcvt.f64.f32	d20, s12
.Ltmp513:
	@DEBUG_VALUE: operator[]:__n <- 1
	.loc	40 139 40               @ /root/Bela/projects/NIEMO/dsp/DynamicStiffString.cpp:139:40
	vmul.f64	d19, d19, d20
	.loc	40 139 27 is_stmt 0     @ /root/Bela/projects/NIEMO/dsp/DynamicStiffString.cpp:139:27
	vadd.f64	d18, d19, d18
.Ltmp514:
	@DEBUG_VALUE: operator[]:__n <- 1
	.loc	40 137 63 is_stmt 1     @ /root/Bela/projects/NIEMO/dsp/DynamicStiffString.cpp:137:63
	vmul.f32	d19, d3, d6
	.loc	40 136 24               @ /root/Bela/projects/NIEMO/dsp/DynamicStiffString.cpp:136:24
	vadd.f64	d20, d20, d20
	.loc	40 137 58               @ /root/Bela/projects/NIEMO/dsp/DynamicStiffString.cpp:137:58
	vadd.f32	d19, d21, d19
	.loc	40 138 24               @ /root/Bela/projects/NIEMO/dsp/DynamicStiffString.cpp:138:24
	vmul.f64	d18, d18, d22
.Ltmp515:
	@DEBUG_VALUE: operator[]:__n <- 1
	@DEBUG_VALUE: operator[]:__n <- 1
	@DEBUG_VALUE: operator[]:__n <- 1
	.loc	40 137 28               @ /root/Bela/projects/NIEMO/dsp/DynamicStiffString.cpp:137:28
	vmul.f32	d1, d19, d4
	.loc	40 137 19 is_stmt 0     @ /root/Bela/projects/NIEMO/dsp/DynamicStiffString.cpp:137:19
	vcvt.f64.f32	d21, s2
	.loc	40 141 19 is_stmt 1     @ /root/Bela/projects/NIEMO/dsp/DynamicStiffString.cpp:141:19
	vldr	s2, [r0, #252]
	.loc	40 142 30               @ /root/Bela/projects/NIEMO/dsp/DynamicStiffString.cpp:142:30
	add	r0, r3, r7
	.loc	40 137 17               @ /root/Bela/projects/NIEMO/dsp/DynamicStiffString.cpp:137:17
	vadd.f64	d20, d21, d20
	.loc	40 141 22               @ /root/Bela/projects/NIEMO/dsp/DynamicStiffString.cpp:141:22
	vmul.f32	d4, d1, d19
	.loc	40 140 27               @ /root/Bela/projects/NIEMO/dsp/DynamicStiffString.cpp:140:27
	vcvt.f64.f32	d19, s4
	.loc	40 140 25 is_stmt 0     @ /root/Bela/projects/NIEMO/dsp/DynamicStiffString.cpp:140:25
	vadd.f64	d17, d19, d17
.Ltmp516:
	@DEBUG_VALUE: operator[]:__n <- 2
	.loc	40 140 33               @ /root/Bela/projects/NIEMO/dsp/DynamicStiffString.cpp:140:33
	vldr	s4, [r1]
	.loc	40 142 76 is_stmt 1     @ /root/Bela/projects/NIEMO/dsp/DynamicStiffString.cpp:142:76
	vadd.f64	d16, d19, d16
	.loc	40 140 33               @ /root/Bela/projects/NIEMO/dsp/DynamicStiffString.cpp:140:33
	vcvt.f64.f32	d21, s4
	.loc	40 140 31 is_stmt 0     @ /root/Bela/projects/NIEMO/dsp/DynamicStiffString.cpp:140:31
	vmul.f64	d17, d21, d17
	.loc	40 138 17 is_stmt 1     @ /root/Bela/projects/NIEMO/dsp/DynamicStiffString.cpp:138:17
	vadd.f64	d17, d20, d17
	.loc	40 142 57               @ /root/Bela/projects/NIEMO/dsp/DynamicStiffString.cpp:142:57
	vmul.f32	d20, d2, d3
	.loc	40 142 30 is_stmt 0     @ /root/Bela/projects/NIEMO/dsp/DynamicStiffString.cpp:142:30
	vldr	s4, [r0]
.Ltmp517:
	@DEBUG_VALUE: operator[]:__n <- 2
	.loc	40 142 43               @ /root/Bela/projects/NIEMO/dsp/DynamicStiffString.cpp:142:43
	add	r0, r3, r2, lsl #2
	.loc	40 140 17 is_stmt 1     @ /root/Bela/projects/NIEMO/dsp/DynamicStiffString.cpp:140:17
	vsub.f64	d17, d17, d18
	.loc	40 142 43               @ /root/Bela/projects/NIEMO/dsp/DynamicStiffString.cpp:142:43
	vldr	s6, [r0]
	.loc	40 142 28 is_stmt 0     @ /root/Bela/projects/NIEMO/dsp/DynamicStiffString.cpp:142:28
	vmul.f32	d21, d2, d0
	.loc	40 141 19 is_stmt 1     @ /root/Bela/projects/NIEMO/dsp/DynamicStiffString.cpp:141:19
	vcvt.f64.f32	d18, s8
.Ltmp518:
	@DEBUG_VALUE: operator[]:__n <- 2
	.loc	40 136 9                @ /root/Bela/projects/NIEMO/dsp/DynamicStiffString.cpp:136:9
	ldr	r0, [r12]
	.loc	40 142 41               @ /root/Bela/projects/NIEMO/dsp/DynamicStiffString.cpp:142:41
	vadd.f32	d20, d3, d20
	.loc	40 141 17               @ /root/Bela/projects/NIEMO/dsp/DynamicStiffString.cpp:141:17
	vadd.f64	d17, d17, d18
	.loc	40 142 52               @ /root/Bela/projects/NIEMO/dsp/DynamicStiffString.cpp:142:52
	vadd.f32	d20, d20, d21
	.loc	40 142 22 is_stmt 0     @ /root/Bela/projects/NIEMO/dsp/DynamicStiffString.cpp:142:22
	vmul.f32	d0, d20, d1
	.loc	40 142 19               @ /root/Bela/projects/NIEMO/dsp/DynamicStiffString.cpp:142:19
	vcvt.f64.f32	d18, s0
	.loc	40 142 17               @ /root/Bela/projects/NIEMO/dsp/DynamicStiffString.cpp:142:17
	vsub.f64	d17, d17, d18
	.loc	40 142 69               @ /root/Bela/projects/NIEMO/dsp/DynamicStiffString.cpp:142:69
	vdiv.f64	d16, d17, d16
	.loc	40 136 19 is_stmt 1     @ /root/Bela/projects/NIEMO/dsp/DynamicStiffString.cpp:136:19
	vcvt.f32.f64	s0, d16
.Ltmp519:
	@DEBUG_VALUE: operator[]:__n <- 0
	.loc	40 136 17 is_stmt 0     @ /root/Bela/projects/NIEMO/dsp/DynamicStiffString.cpp:136:17
	vstr	s0, [r0]
	b	.LBB3_28
.Ltmp520:
.LBB3_13:
	.loc	40 147 36 is_stmt 1     @ /root/Bela/projects/NIEMO/dsp/DynamicStiffString.cpp:147:36
	vldr	s10, [r0, #44]
	mvn	r2, #7
.Ltmp521:
	@DEBUG_VALUE: operator[]:__n <- 1
	@DEBUG_VALUE: operator[]:__n <- 1
	vmov.f64	d19, #-2.000000e+00
	.loc	40 148 66               @ /root/Bela/projects/NIEMO/dsp/DynamicStiffString.cpp:148:66
	add	r3, r2, r4, lsl #2
	add	r8, r9, r3
	.loc	40 147 72               @ /root/Bela/projects/NIEMO/dsp/DynamicStiffString.cpp:147:72
	add	r7, r9, r1, lsl #2
	add	r2, r9, r4, lsl #2
.Ltmp522:
	.loc	12 781 32               @ /usr/bin/../lib/gcc/arm-linux-gnueabihf/6.3.0/../../../../include/c++/6.3.0/bits/stl_vector.h:781:32
	ldr	r9, [r0, #208]
	mov	r5, r4
.Ltmp523:
	.loc	40 151 59               @ /root/Bela/projects/NIEMO/dsp/DynamicStiffString.cpp:151:59
	add	r4, r11, r1, lsl #2
	.loc	40 147 36               @ /root/Bela/projects/NIEMO/dsp/DynamicStiffString.cpp:147:36
	vcvt.f64.f32	d18, s10
	.loc	40 152 52               @ /root/Bela/projects/NIEMO/dsp/DynamicStiffString.cpp:152:52
	add	r3, r11, r3
	.loc	40 150 56               @ /root/Bela/projects/NIEMO/dsp/DynamicStiffString.cpp:150:56
	ldr	r6, [r9, #4]
.Ltmp524:
	@DEBUG_VALUE: operator[]:__n <- 1
	.loc	40 147 53               @ /root/Bela/projects/NIEMO/dsp/DynamicStiffString.cpp:147:53
	vldr	s8, [r0, #48]
	vmov.f64	d21, #-6.000000e+00
	vcvt.f64.f32	d22, s8
	vmul.f64	d23, d18, d19
	vmul.f64	d24, d22, d21
	.loc	40 148 51               @ /root/Bela/projects/NIEMO/dsp/DynamicStiffString.cpp:148:51
	vmul.f64	d22, d22, d17
	.loc	40 147 28               @ /root/Bela/projects/NIEMO/dsp/DynamicStiffString.cpp:147:28
	vmov.f64	d20, #2.000000e+00
	vadd.f64	d23, d23, d20
	.loc	40 147 66 is_stmt 0     @ /root/Bela/projects/NIEMO/dsp/DynamicStiffString.cpp:147:66
	vldr	s0, [r0, #252]
	.loc	40 148 45 is_stmt 1     @ /root/Bela/projects/NIEMO/dsp/DynamicStiffString.cpp:148:45
	vadd.f64	d18, d22, d18
	.loc	40 147 66               @ /root/Bela/projects/NIEMO/dsp/DynamicStiffString.cpp:147:66
	vcvt.f64.f32	d22, s0
	.loc	40 147 45 is_stmt 0     @ /root/Bela/projects/NIEMO/dsp/DynamicStiffString.cpp:147:45
	vadd.f64	d23, d23, d24
	.loc	40 147 64               @ /root/Bela/projects/NIEMO/dsp/DynamicStiffString.cpp:147:64
	vadd.f64	d24, d22, d22
	.loc	40 148 58 is_stmt 1     @ /root/Bela/projects/NIEMO/dsp/DynamicStiffString.cpp:148:58
	vadd.f64	d18, d18, d22
	.loc	40 148 66 is_stmt 0     @ /root/Bela/projects/NIEMO/dsp/DynamicStiffString.cpp:148:66
	vldr	s12, [r8]
	.loc	40 147 58 is_stmt 1     @ /root/Bela/projects/NIEMO/dsp/DynamicStiffString.cpp:147:58
	vsub.f64	d22, d23, d24
	.loc	40 148 66               @ /root/Bela/projects/NIEMO/dsp/DynamicStiffString.cpp:148:66
	vcvt.f64.f32	d23, s12
	.loc	40 147 72               @ /root/Bela/projects/NIEMO/dsp/DynamicStiffString.cpp:147:72
	vldr	s12, [r7]
	.loc	40 148 64               @ /root/Bela/projects/NIEMO/dsp/DynamicStiffString.cpp:148:64
	vmul.f64	d18, d23, d18
	.loc	40 147 72               @ /root/Bela/projects/NIEMO/dsp/DynamicStiffString.cpp:147:72
	vcvt.f64.f32	d23, s12
	.loc	40 147 70 is_stmt 0     @ /root/Bela/projects/NIEMO/dsp/DynamicStiffString.cpp:147:70
	vmul.f64	d22, d23, d22
	.loc	40 149 45 is_stmt 1     @ /root/Bela/projects/NIEMO/dsp/DynamicStiffString.cpp:149:45
	vadd.f32	d23, d0, d5
	.loc	40 150 43               @ /root/Bela/projects/NIEMO/dsp/DynamicStiffString.cpp:150:43
	vldr	s10, [r2, #-12]
	.loc	40 148 33               @ /root/Bela/projects/NIEMO/dsp/DynamicStiffString.cpp:148:33
	vadd.f64	d22, d18, d22
	.loc	40 149 50               @ /root/Bela/projects/NIEMO/dsp/DynamicStiffString.cpp:149:50
	vmul.f32	d18, d2, d4
	.loc	40 149 65 is_stmt 0     @ /root/Bela/projects/NIEMO/dsp/DynamicStiffString.cpp:149:65
	vldr	s4, [r2]
.Ltmp525:
	@DEBUG_VALUE: operator[]:__n <- 1
	.loc	40 150 71 is_stmt 1     @ /root/Bela/projects/NIEMO/dsp/DynamicStiffString.cpp:150:71
	vldr	s12, [r6, #4]
	.loc	40 151 36               @ /root/Bela/projects/NIEMO/dsp/DynamicStiffString.cpp:151:36
	vldr	s6, [r0, #248]
	.loc	40 149 57               @ /root/Bela/projects/NIEMO/dsp/DynamicStiffString.cpp:149:57
	vsub.f32	d18, d23, d18
.Ltmp526:
	@DEBUG_VALUE: operator[]:__n <- 1
	.loc	40 149 63 is_stmt 0     @ /root/Bela/projects/NIEMO/dsp/DynamicStiffString.cpp:149:63
	vmul.f32	d2, d18, d2
	.loc	40 150 69 is_stmt 1     @ /root/Bela/projects/NIEMO/dsp/DynamicStiffString.cpp:150:69
	vmul.f32	d18, d6, d1
	.loc	40 149 35               @ /root/Bela/projects/NIEMO/dsp/DynamicStiffString.cpp:149:35
	vcvt.f64.f32	d23, s4
.Ltmp527:
	@DEBUG_VALUE: operator[]:__n <- 1
	.loc	40 150 56               @ /root/Bela/projects/NIEMO/dsp/DynamicStiffString.cpp:150:56
	vldr	s4, [r6]
	.loc	40 149 33               @ /root/Bela/projects/NIEMO/dsp/DynamicStiffString.cpp:149:33
	vadd.f64	d22, d22, d23
.Ltmp528:
	@DEBUG_VALUE: operator[]:__n <- 2
	.loc	40 150 54               @ /root/Bela/projects/NIEMO/dsp/DynamicStiffString.cpp:150:54
	vadd.f32	d25, d2, d5
	.loc	40 152 52               @ /root/Bela/projects/NIEMO/dsp/DynamicStiffString.cpp:152:52
	vldr	s4, [r3]
	.loc	40 147 9                @ /root/Bela/projects/NIEMO/dsp/DynamicStiffString.cpp:147:9
	ldr	r3, [sp, #28]           @ 4-byte Reload
	add	r3, r3, r1, lsl #2
	.loc	40 150 64               @ /root/Bela/projects/NIEMO/dsp/DynamicStiffString.cpp:150:64
	vadd.f32	d18, d25, d18
	.loc	40 151 36               @ /root/Bela/projects/NIEMO/dsp/DynamicStiffString.cpp:151:36
	vcvt.f64.f32	d25, s6
	.loc	40 150 40               @ /root/Bela/projects/NIEMO/dsp/DynamicStiffString.cpp:150:40
	vmul.f32	d1, d18, d4
	.loc	40 151 39               @ /root/Bela/projects/NIEMO/dsp/DynamicStiffString.cpp:151:39
	vmov.f64	d18, #-1.000000e+00
	vadd.f64	d24, d24, d18
	.loc	40 151 50 is_stmt 0     @ /root/Bela/projects/NIEMO/dsp/DynamicStiffString.cpp:151:50
	vadd.f64	d24, d24, d25
	.loc	40 150 35 is_stmt 1     @ /root/Bela/projects/NIEMO/dsp/DynamicStiffString.cpp:150:35
	vcvt.f64.f32	d23, s2
	.loc	40 151 59               @ /root/Bela/projects/NIEMO/dsp/DynamicStiffString.cpp:151:59
	vldr	s2, [r4]
	.loc	40 152 41               @ /root/Bela/projects/NIEMO/dsp/DynamicStiffString.cpp:152:41
	add	r4, r11, r5, lsl #2
	.loc	40 150 33               @ /root/Bela/projects/NIEMO/dsp/DynamicStiffString.cpp:150:33
	vsub.f64	d22, d22, d23
.Ltmp529:
	@DEBUG_VALUE: operator[]:__n <- 2
	.loc	40 151 59               @ /root/Bela/projects/NIEMO/dsp/DynamicStiffString.cpp:151:59
	vcvt.f64.f32	d26, s2
	.loc	40 151 57 is_stmt 0     @ /root/Bela/projects/NIEMO/dsp/DynamicStiffString.cpp:151:57
	vmul.f64	d24, d24, d26
.Ltmp530:
	@DEBUG_VALUE: operator[]:__n <- 2
	.loc	40 152 41 is_stmt 1     @ /root/Bela/projects/NIEMO/dsp/DynamicStiffString.cpp:152:41
	vldr	s2, [r4]
	.loc	40 151 33               @ /root/Bela/projects/NIEMO/dsp/DynamicStiffString.cpp:151:33
	vadd.f64	d22, d22, d24
	.loc	40 152 50               @ /root/Bela/projects/NIEMO/dsp/DynamicStiffString.cpp:152:50
	vadd.f32	d23, d2, d1
	.loc	40 152 72 is_stmt 0     @ /root/Bela/projects/NIEMO/dsp/DynamicStiffString.cpp:152:72
	vadd.f64	d24, d25, d16
	.loc	40 152 38               @ /root/Bela/projects/NIEMO/dsp/DynamicStiffString.cpp:152:38
	vmul.f32	d0, d23, d0
	.loc	40 152 35               @ /root/Bela/projects/NIEMO/dsp/DynamicStiffString.cpp:152:35
	vcvt.f64.f32	d23, s0
	.loc	40 152 33               @ /root/Bela/projects/NIEMO/dsp/DynamicStiffString.cpp:152:33
	vsub.f64	d22, d22, d23
	.loc	40 152 65               @ /root/Bela/projects/NIEMO/dsp/DynamicStiffString.cpp:152:65
	vdiv.f64	d22, d22, d24
.Ltmp531:
	@DEBUG_VALUE: operator[]:__n <- 0
	.loc	40 147 22 is_stmt 1     @ /root/Bela/projects/NIEMO/dsp/DynamicStiffString.cpp:147:22
	vcvt.f32.f64	s0, d22
	.loc	40 147 20 is_stmt 0     @ /root/Bela/projects/NIEMO/dsp/DynamicStiffString.cpp:147:20
	vstr	s0, [r3]
	.loc	40 155 34 is_stmt 1     @ /root/Bela/projects/NIEMO/dsp/DynamicStiffString.cpp:155:34
	vldr	s8, [r0, #44]
	.loc	40 155 45 is_stmt 0     @ /root/Bela/projects/NIEMO/dsp/DynamicStiffString.cpp:155:45
	vldr	s0, [r0, #252]
	.loc	40 155 28               @ /root/Bela/projects/NIEMO/dsp/DynamicStiffString.cpp:155:28
	vldr	s4, [r0, #168]
	.loc	40 155 43               @ /root/Bela/projects/NIEMO/dsp/DynamicStiffString.cpp:155:43
	vadd.f32	d22, d0, d4
	.loc	40 155 56               @ /root/Bela/projects/NIEMO/dsp/DynamicStiffString.cpp:155:56
	vldr	s2, [r0, #48]
	.loc	40 155 51               @ /root/Bela/projects/NIEMO/dsp/DynamicStiffString.cpp:155:51
	vldr	s10, [r0, #152]
	.loc	40 156 32 is_stmt 1     @ /root/Bela/projects/NIEMO/dsp/DynamicStiffString.cpp:156:32
	vcvt.f64.f32	d25, s8
	.loc	40 160 54               @ /root/Bela/projects/NIEMO/dsp/DynamicStiffString.cpp:160:54
	ldr	r3, [lr, #8]
.Ltmp532:
	@DEBUG_VALUE: operator[]:__n <- 2
	.loc	40 161 37               @ /root/Bela/projects/NIEMO/dsp/DynamicStiffString.cpp:161:37
	add	r1, r3, r1, lsl #2
	.loc	40 155 31               @ /root/Bela/projects/NIEMO/dsp/DynamicStiffString.cpp:155:31
	vmul.f32	d6, d22, d2
	.loc	40 156 62               @ /root/Bela/projects/NIEMO/dsp/DynamicStiffString.cpp:156:62
	vldr	s8, [r7]
	.loc	40 155 54               @ /root/Bela/projects/NIEMO/dsp/DynamicStiffString.cpp:155:54
	vmul.f32	d5, d1, d5
	.loc	40 157 43               @ /root/Bela/projects/NIEMO/dsp/DynamicStiffString.cpp:157:43
	vldr	s6, [r0, #156]
	.loc	40 156 56               @ /root/Bela/projects/NIEMO/dsp/DynamicStiffString.cpp:156:56
	vcvt.f64.f32	d26, s0
	.loc	40 155 28               @ /root/Bela/projects/NIEMO/dsp/DynamicStiffString.cpp:155:28
	vcvt.f64.f32	d23, s12
	.loc	40 155 26 is_stmt 0     @ /root/Bela/projects/NIEMO/dsp/DynamicStiffString.cpp:155:26
	vadd.f64	d23, d23, d20
	.loc	40 155 51               @ /root/Bela/projects/NIEMO/dsp/DynamicStiffString.cpp:155:51
	vcvt.f64.f32	d24, s10
	.loc	40 155 49               @ /root/Bela/projects/NIEMO/dsp/DynamicStiffString.cpp:155:49
	vsub.f64	d23, d23, d24
.Ltmp533:
	@DEBUG_VALUE: operator[]:__n <- 1
	.loc	40 155 64               @ /root/Bela/projects/NIEMO/dsp/DynamicStiffString.cpp:155:64
	vldr	s10, [r2]
	.loc	40 156 41 is_stmt 1     @ /root/Bela/projects/NIEMO/dsp/DynamicStiffString.cpp:156:41
	vadd.f64	d25, d26, d25
	.loc	40 161 50               @ /root/Bela/projects/NIEMO/dsp/DynamicStiffString.cpp:161:50
	ldr	r2, [r9, #8]
.Ltmp534:
	@DEBUG_VALUE: operator[]:__n <- 2
	.loc	40 155 64               @ /root/Bela/projects/NIEMO/dsp/DynamicStiffString.cpp:155:64
	vcvt.f64.f32	d24, s10
	.loc	40 155 62 is_stmt 0     @ /root/Bela/projects/NIEMO/dsp/DynamicStiffString.cpp:155:62
	vmul.f64	d23, d24, d23
	.loc	40 156 49 is_stmt 1     @ /root/Bela/projects/NIEMO/dsp/DynamicStiffString.cpp:156:49
	vcvt.f64.f32	d24, s2
	.loc	40 156 47 is_stmt 0     @ /root/Bela/projects/NIEMO/dsp/DynamicStiffString.cpp:156:47
	vmul.f64	d24, d24, d17
	.loc	40 156 54               @ /root/Bela/projects/NIEMO/dsp/DynamicStiffString.cpp:156:54
	vadd.f64	d24, d25, d24
.Ltmp535:
	@DEBUG_VALUE: operator[]:__n <- 1
	.loc	40 156 62               @ /root/Bela/projects/NIEMO/dsp/DynamicStiffString.cpp:156:62
	vcvt.f64.f32	d25, s8
	.loc	40 156 60               @ /root/Bela/projects/NIEMO/dsp/DynamicStiffString.cpp:156:60
	vmul.f64	d24, d25, d24
	.loc	40 156 29               @ /root/Bela/projects/NIEMO/dsp/DynamicStiffString.cpp:156:29
	vadd.f64	d23, d24, d23
	.loc	40 157 46 is_stmt 1     @ /root/Bela/projects/NIEMO/dsp/DynamicStiffString.cpp:157:46
	vmul.f32	d24, d3, d1
	.loc	40 157 61 is_stmt 0     @ /root/Bela/projects/NIEMO/dsp/DynamicStiffString.cpp:157:61
	vldr	s8, [r6]
	.loc	40 158 71 is_stmt 1     @ /root/Bela/projects/NIEMO/dsp/DynamicStiffString.cpp:158:71
	vldr	s10, [r6, #4]
	.loc	40 161 65               @ /root/Bela/projects/NIEMO/dsp/DynamicStiffString.cpp:161:65
	vldr	s12, [r2, #4]
.Ltmp536:
	@DEBUG_VALUE: operator[]:__n <- 2
	.loc	40 159 57               @ /root/Bela/projects/NIEMO/dsp/DynamicStiffString.cpp:159:57
	vldr	s6, [r6, #8]
	.loc	40 157 53               @ /root/Bela/projects/NIEMO/dsp/DynamicStiffString.cpp:157:53
	vsub.f32	d24, d22, d24
.Ltmp537:
	@DEBUG_VALUE: operator[]:__n <- 1
	@DEBUG_VALUE: operator[]:__n <- 1
	@DEBUG_VALUE: operator[]:__n <- 1
	.loc	40 157 59 is_stmt 0     @ /root/Bela/projects/NIEMO/dsp/DynamicStiffString.cpp:157:59
	vmul.f32	d4, d24, d4
	.loc	40 157 31               @ /root/Bela/projects/NIEMO/dsp/DynamicStiffString.cpp:157:31
	vcvt.f64.f32	d24, s8
	.loc	40 158 48 is_stmt 1     @ /root/Bela/projects/NIEMO/dsp/DynamicStiffString.cpp:158:48
	vldr	s8, [r0, #160]
	.loc	40 157 29               @ /root/Bela/projects/NIEMO/dsp/DynamicStiffString.cpp:157:29
	vadd.f64	d23, d23, d24
	.loc	40 158 51               @ /root/Bela/projects/NIEMO/dsp/DynamicStiffString.cpp:158:51
	vmul.f32	d24, d4, d1
	.loc	40 158 32 is_stmt 0     @ /root/Bela/projects/NIEMO/dsp/DynamicStiffString.cpp:158:32
	vldr	s8, [r0, #164]
	vmul.f32	d22, d4, d22
	.loc	40 159 55 is_stmt 1     @ /root/Bela/projects/NIEMO/dsp/DynamicStiffString.cpp:159:55
	vmul.f32	d25, d3, d4
.Ltmp538:
	@DEBUG_VALUE: operator[]:__n <- 1
	.loc	40 158 58               @ /root/Bela/projects/NIEMO/dsp/DynamicStiffString.cpp:158:58
	vsub.f32	d22, d22, d24
	.loc	40 158 69 is_stmt 0     @ /root/Bela/projects/NIEMO/dsp/DynamicStiffString.cpp:158:69
	vmul.f32	d5, d22, d5
	.loc	40 158 31               @ /root/Bela/projects/NIEMO/dsp/DynamicStiffString.cpp:158:31
	vcvt.f64.f32	d22, s10
	.loc	40 158 29               @ /root/Bela/projects/NIEMO/dsp/DynamicStiffString.cpp:158:29
	vadd.f64	d22, d23, d22
.Ltmp539:
	@DEBUG_VALUE: operator[]:__n <- 2
	.loc	40 161 63 is_stmt 1     @ /root/Bela/projects/NIEMO/dsp/DynamicStiffString.cpp:161:63
	vmul.f32	d23, d6, d4
.Ltmp540:
	@DEBUG_VALUE: operator[]:__n <- 0
	.loc	40 161 50 is_stmt 0     @ /root/Bela/projects/NIEMO/dsp/DynamicStiffString.cpp:161:50
	vldr	s10, [r2]
	.loc	40 161 37               @ /root/Bela/projects/NIEMO/dsp/DynamicStiffString.cpp:161:37
	vldr	s12, [r1]
	.loc	40 160 54 is_stmt 1     @ /root/Bela/projects/NIEMO/dsp/DynamicStiffString.cpp:160:54
	add	r1, r3, r5, lsl #2
	.loc	40 155 9                @ /root/Bela/projects/NIEMO/dsp/DynamicStiffString.cpp:155:9
	ldr	r2, [lr]
	.loc	40 161 48               @ /root/Bela/projects/NIEMO/dsp/DynamicStiffString.cpp:161:48
	vadd.f32	d24, d5, d6
	.loc	40 161 58 is_stmt 0     @ /root/Bela/projects/NIEMO/dsp/DynamicStiffString.cpp:161:58
	vadd.f32	d23, d24, d23
	.loc	40 160 40 is_stmt 1     @ /root/Bela/projects/NIEMO/dsp/DynamicStiffString.cpp:160:40
	vmul.f32	d24, d0, d2
	.loc	40 159 39               @ /root/Bela/projects/NIEMO/dsp/DynamicStiffString.cpp:159:39
	vldr	s4, [r8]
	.loc	40 159 50 is_stmt 0     @ /root/Bela/projects/NIEMO/dsp/DynamicStiffString.cpp:159:50
	vadd.f32	d25, d25, d2
	.loc	40 161 34 is_stmt 1     @ /root/Bela/projects/NIEMO/dsp/DynamicStiffString.cpp:161:34
	vmul.f32	d0, d23, d0
	.loc	40 159 36               @ /root/Bela/projects/NIEMO/dsp/DynamicStiffString.cpp:159:36
	vmul.f32	d1, d25, d1
	.loc	40 159 31 is_stmt 0     @ /root/Bela/projects/NIEMO/dsp/DynamicStiffString.cpp:159:31
	vcvt.f64.f32	d25, s2
	.loc	40 160 32 is_stmt 1     @ /root/Bela/projects/NIEMO/dsp/DynamicStiffString.cpp:160:32
	vldr	s2, [r0, #248]
	.loc	40 159 29               @ /root/Bela/projects/NIEMO/dsp/DynamicStiffString.cpp:159:29
	vsub.f64	d22, d22, d25
	.loc	40 160 35               @ /root/Bela/projects/NIEMO/dsp/DynamicStiffString.cpp:160:35
	vsub.f32	d2, d1, d24
	.loc	40 161 84               @ /root/Bela/projects/NIEMO/dsp/DynamicStiffString.cpp:161:84
	vcvt.f64.f32	d23, s2
	.loc	40 160 32               @ /root/Bela/projects/NIEMO/dsp/DynamicStiffString.cpp:160:32
	vcvt.f64.f32	d24, s4
	.loc	40 160 45 is_stmt 0     @ /root/Bela/projects/NIEMO/dsp/DynamicStiffString.cpp:160:45
	vadd.f64	d24, d24, d18
	.loc	40 160 54               @ /root/Bela/projects/NIEMO/dsp/DynamicStiffString.cpp:160:54
	vldr	s4, [r1]
	.loc	40 155 9 is_stmt 1      @ /root/Bela/projects/NIEMO/dsp/DynamicStiffString.cpp:155:9
	add	r1, r2, r5, lsl #2
	.loc	40 161 82               @ /root/Bela/projects/NIEMO/dsp/DynamicStiffString.cpp:161:82
	vadd.f64	d23, d23, d16
	.loc	40 160 54               @ /root/Bela/projects/NIEMO/dsp/DynamicStiffString.cpp:160:54
	vcvt.f64.f32	d25, s4
	.loc	40 160 52 is_stmt 0     @ /root/Bela/projects/NIEMO/dsp/DynamicStiffString.cpp:160:52
	vmul.f64	d24, d24, d25
	.loc	40 160 29               @ /root/Bela/projects/NIEMO/dsp/DynamicStiffString.cpp:160:29
	vadd.f64	d22, d22, d24
	.loc	40 161 31 is_stmt 1     @ /root/Bela/projects/NIEMO/dsp/DynamicStiffString.cpp:161:31
	vcvt.f64.f32	d24, s0
	.loc	40 161 29 is_stmt 0     @ /root/Bela/projects/NIEMO/dsp/DynamicStiffString.cpp:161:29
	vsub.f64	d22, d22, d24
	.loc	40 161 75               @ /root/Bela/projects/NIEMO/dsp/DynamicStiffString.cpp:161:75
	vdiv.f64	d22, d22, d23
	.loc	40 155 20 is_stmt 1     @ /root/Bela/projects/NIEMO/dsp/DynamicStiffString.cpp:155:20
	vcvt.f32.f64	s0, d22
	.loc	40 155 18 is_stmt 0     @ /root/Bela/projects/NIEMO/dsp/DynamicStiffString.cpp:155:18
	vstr	s0, [r1]
	.loc	40 164 33 is_stmt 1     @ /root/Bela/projects/NIEMO/dsp/DynamicStiffString.cpp:164:33
	vldr	s10, [r0, #44]
	.loc	40 164 44 is_stmt 0     @ /root/Bela/projects/NIEMO/dsp/DynamicStiffString.cpp:164:44
	vldr	s0, [r0, #252]
	.loc	40 164 27               @ /root/Bela/projects/NIEMO/dsp/DynamicStiffString.cpp:164:27
	vldr	s4, [r0, #168]
	.loc	40 164 42               @ /root/Bela/projects/NIEMO/dsp/DynamicStiffString.cpp:164:42
	vadd.f32	d22, d0, d5
	.loc	40 164 55               @ /root/Bela/projects/NIEMO/dsp/DynamicStiffString.cpp:164:55
	vldr	s2, [r0, #48]
	.loc	40 164 50               @ /root/Bela/projects/NIEMO/dsp/DynamicStiffString.cpp:164:50
	vldr	s6, [r0, #152]
.Ltmp541:
	.loc	12 781 32 is_stmt 1     @ /usr/bin/../lib/gcc/arm-linux-gnueabihf/6.3.0/../../../../include/c++/6.3.0/bits/stl_vector.h:781:32
	ldr	r1, [r0, #208]
.Ltmp542:
	@DEBUG_VALUE: operator[]:__n <- 2
	@DEBUG_VALUE: operator[]:__n <- 0
	.loc	40 165 32               @ /root/Bela/projects/NIEMO/dsp/DynamicStiffString.cpp:165:32
	vcvt.f64.f32	d25, s10
.Ltmp543:
	.loc	12 781 32               @ /usr/bin/../lib/gcc/arm-linux-gnueabihf/6.3.0/../../../../include/c++/6.3.0/bits/stl_vector.h:781:32
	ldr	r7, [r0, #196]
.Ltmp544:
	.loc	40 177 44               @ /root/Bela/projects/NIEMO/dsp/DynamicStiffString.cpp:177:44
	ldr	r2, [r0, #128]
.Ltmp545:
	@DEBUG_VALUE: operator[]:__n <- 2
	.loc	40 175 30               @ /root/Bela/projects/NIEMO/dsp/DynamicStiffString.cpp:175:30
	ldr	r10, [r1, #4]
	.loc	40 175 13 is_stmt 0     @ /root/Bela/projects/NIEMO/dsp/DynamicStiffString.cpp:175:13
	ldr	r11, [r1]
.Ltmp546:
	.loc	40 164 30 is_stmt 1     @ /root/Bela/projects/NIEMO/dsp/DynamicStiffString.cpp:164:30
	vmul.f32	d6, d22, d2
	.loc	40 166 43               @ /root/Bela/projects/NIEMO/dsp/DynamicStiffString.cpp:166:43
	vldr	s8, [r0, #156]
	.loc	40 164 53               @ /root/Bela/projects/NIEMO/dsp/DynamicStiffString.cpp:164:53
	vmul.f32	d3, d1, d3
	.loc	40 165 62               @ /root/Bela/projects/NIEMO/dsp/DynamicStiffString.cpp:165:62
	vldr	s14, [r10, #4]
	.loc	40 165 56 is_stmt 0     @ /root/Bela/projects/NIEMO/dsp/DynamicStiffString.cpp:165:56
	vcvt.f64.f32	d26, s0
.Ltmp547:
	.loc	40 178 37 is_stmt 1     @ /root/Bela/projects/NIEMO/dsp/DynamicStiffString.cpp:178:37
	ldr	r9, [r1, #8]
.Ltmp548:
	@DEBUG_VALUE: operator[]:__n <- 1
	@DEBUG_VALUE: operator[]:__n <- 1
	.loc	40 164 27               @ /root/Bela/projects/NIEMO/dsp/DynamicStiffString.cpp:164:27
	vcvt.f64.f32	d23, s12
	.loc	40 164 25 is_stmt 0     @ /root/Bela/projects/NIEMO/dsp/DynamicStiffString.cpp:164:25
	vadd.f64	d23, d23, d20
	.loc	40 164 50               @ /root/Bela/projects/NIEMO/dsp/DynamicStiffString.cpp:164:50
	vcvt.f64.f32	d24, s6
	.loc	40 164 48               @ /root/Bela/projects/NIEMO/dsp/DynamicStiffString.cpp:164:48
	vsub.f64	d23, d23, d24
.Ltmp549:
	@DEBUG_VALUE: operator[]:__n <- 1
	.loc	40 164 63               @ /root/Bela/projects/NIEMO/dsp/DynamicStiffString.cpp:164:63
	vldr	s12, [r10]
	.loc	40 165 41 is_stmt 1     @ /root/Bela/projects/NIEMO/dsp/DynamicStiffString.cpp:165:41
	vadd.f64	d25, d26, d25
	.loc	40 164 63               @ /root/Bela/projects/NIEMO/dsp/DynamicStiffString.cpp:164:63
	vcvt.f64.f32	d24, s12
	.loc	40 164 61 is_stmt 0     @ /root/Bela/projects/NIEMO/dsp/DynamicStiffString.cpp:164:61
	vmul.f64	d23, d24, d23
	.loc	40 165 49 is_stmt 1     @ /root/Bela/projects/NIEMO/dsp/DynamicStiffString.cpp:165:49
	vcvt.f64.f32	d24, s2
	.loc	40 165 47 is_stmt 0     @ /root/Bela/projects/NIEMO/dsp/DynamicStiffString.cpp:165:47
	vmul.f64	d24, d24, d17
	.loc	40 165 54               @ /root/Bela/projects/NIEMO/dsp/DynamicStiffString.cpp:165:54
	vadd.f64	d24, d25, d24
	.loc	40 165 62               @ /root/Bela/projects/NIEMO/dsp/DynamicStiffString.cpp:165:62
	vcvt.f64.f32	d25, s14
	.loc	40 165 60               @ /root/Bela/projects/NIEMO/dsp/DynamicStiffString.cpp:165:60
	vmul.f64	d24, d25, d24
	.loc	40 165 29               @ /root/Bela/projects/NIEMO/dsp/DynamicStiffString.cpp:165:29
	vadd.f64	d23, d24, d23
	.loc	40 166 46 is_stmt 1     @ /root/Bela/projects/NIEMO/dsp/DynamicStiffString.cpp:166:46
	vmul.f32	d24, d4, d1
	.loc	40 168 39               @ /root/Bela/projects/NIEMO/dsp/DynamicStiffString.cpp:168:39
	vldr	s6, [r10, #8]
.Ltmp550:
	.loc	40 177 39               @ /root/Bela/projects/NIEMO/dsp/DynamicStiffString.cpp:177:39
	ldmib	r7, {r1, r4}
	mvn	r7, #3
.Ltmp551:
	@DEBUG_VALUE: operator[]:__n <- 1
	.loc	40 167 71               @ /root/Bela/projects/NIEMO/dsp/DynamicStiffString.cpp:167:71
	add	r5, r7, r2, lsl #2
.Ltmp552:
	.loc	40 177 39               @ /root/Bela/projects/NIEMO/dsp/DynamicStiffString.cpp:177:39
	add	r6, r1, r2, lsl #2
.Ltmp553:
	.loc	40 167 71               @ /root/Bela/projects/NIEMO/dsp/DynamicStiffString.cpp:167:71
	add	r7, r1, r5
	.loc	40 166 53               @ /root/Bela/projects/NIEMO/dsp/DynamicStiffString.cpp:166:53
	vsub.f32	d24, d22, d24
.Ltmp554:
	@DEBUG_VALUE: operator[]:__n <- 1
	.loc	40 170 63               @ /root/Bela/projects/NIEMO/dsp/DynamicStiffString.cpp:170:63
	add	r1, r4, r5
	.loc	40 166 61               @ /root/Bela/projects/NIEMO/dsp/DynamicStiffString.cpp:166:61
	vldr	s8, [r6]
.Ltmp555:
	@DEBUG_VALUE: operator[]:__n <- 1
	.loc	40 168 54               @ /root/Bela/projects/NIEMO/dsp/DynamicStiffString.cpp:168:54
	vldr	s10, [r6, #-8]
	.loc	40 167 71               @ /root/Bela/projects/NIEMO/dsp/DynamicStiffString.cpp:167:71
	vldr	s12, [r7]
	.loc	40 166 59               @ /root/Bela/projects/NIEMO/dsp/DynamicStiffString.cpp:166:59
	vmul.f32	d4, d4, d24
	.loc	40 166 31 is_stmt 0     @ /root/Bela/projects/NIEMO/dsp/DynamicStiffString.cpp:166:31
	vcvt.f64.f32	d24, s8
	.loc	40 167 48 is_stmt 1     @ /root/Bela/projects/NIEMO/dsp/DynamicStiffString.cpp:167:48
	vldr	s8, [r0, #160]
	.loc	40 166 29               @ /root/Bela/projects/NIEMO/dsp/DynamicStiffString.cpp:166:29
	vadd.f64	d23, d23, d24
	.loc	40 167 51               @ /root/Bela/projects/NIEMO/dsp/DynamicStiffString.cpp:167:51
	vmul.f32	d24, d4, d1
	.loc	40 167 32 is_stmt 0     @ /root/Bela/projects/NIEMO/dsp/DynamicStiffString.cpp:167:32
	vldr	s8, [r0, #164]
	.loc	40 168 52 is_stmt 1     @ /root/Bela/projects/NIEMO/dsp/DynamicStiffString.cpp:168:52
	vmul.f32	d25, d5, d4
	vmul.f32	d22, d4, d22
	.loc	40 168 47 is_stmt 0     @ /root/Bela/projects/NIEMO/dsp/DynamicStiffString.cpp:168:47
	vadd.f32	d25, d25, d3
	.loc	40 167 58 is_stmt 1     @ /root/Bela/projects/NIEMO/dsp/DynamicStiffString.cpp:167:58
	vsub.f32	d22, d22, d24
	.loc	40 169 40               @ /root/Bela/projects/NIEMO/dsp/DynamicStiffString.cpp:169:40
	vmul.f32	d24, d0, d2
	.loc	40 168 36               @ /root/Bela/projects/NIEMO/dsp/DynamicStiffString.cpp:168:36
	vmul.f32	d2, d25, d1
	.loc	40 169 32               @ /root/Bela/projects/NIEMO/dsp/DynamicStiffString.cpp:169:32
	vldr	s2, [r0, #248]
	.loc	40 167 69               @ /root/Bela/projects/NIEMO/dsp/DynamicStiffString.cpp:167:69
	vmul.f32	d6, d22, d6
	.loc	40 169 35               @ /root/Bela/projects/NIEMO/dsp/DynamicStiffString.cpp:169:35
	vsub.f32	d3, d1, d24
	.loc	40 167 31               @ /root/Bela/projects/NIEMO/dsp/DynamicStiffString.cpp:167:31
	vcvt.f64.f32	d22, s12
	.loc	40 169 32               @ /root/Bela/projects/NIEMO/dsp/DynamicStiffString.cpp:169:32
	vcvt.f64.f32	d24, s6
	.loc	40 169 45 is_stmt 0     @ /root/Bela/projects/NIEMO/dsp/DynamicStiffString.cpp:169:45
	vadd.f64	d24, d24, d18
	.loc	40 167 29 is_stmt 1     @ /root/Bela/projects/NIEMO/dsp/DynamicStiffString.cpp:167:29
	vadd.f64	d22, d23, d22
	.loc	40 168 31               @ /root/Bela/projects/NIEMO/dsp/DynamicStiffString.cpp:168:31
	vcvt.f64.f32	d23, s4
.Ltmp556:
	@DEBUG_VALUE: operator[]:__n <- 2
	.loc	40 169 54               @ /root/Bela/projects/NIEMO/dsp/DynamicStiffString.cpp:169:54
	vldr	s4, [r9]
	.loc	40 170 37               @ /root/Bela/projects/NIEMO/dsp/DynamicStiffString.cpp:170:37
	vldr	s6, [r9, #4]
	.loc	40 169 54               @ /root/Bela/projects/NIEMO/dsp/DynamicStiffString.cpp:169:54
	vcvt.f64.f32	d25, s4
	.loc	40 170 63               @ /root/Bela/projects/NIEMO/dsp/DynamicStiffString.cpp:170:63
	vldr	s4, [r1]
	.loc	40 170 47 is_stmt 0     @ /root/Bela/projects/NIEMO/dsp/DynamicStiffString.cpp:170:47
	add	r1, r4, r2, lsl #2
	.loc	40 169 52 is_stmt 1     @ /root/Bela/projects/NIEMO/dsp/DynamicStiffString.cpp:169:52
	vmul.f64	d24, d24, d25
	.loc	40 170 47               @ /root/Bela/projects/NIEMO/dsp/DynamicStiffString.cpp:170:47
	vldr	s10, [r1]
	.loc	40 168 29               @ /root/Bela/projects/NIEMO/dsp/DynamicStiffString.cpp:168:29
	vsub.f64	d22, d22, d23
.Ltmp557:
	@DEBUG_VALUE: operator[]:__n <- 2
	.loc	40 170 61               @ /root/Bela/projects/NIEMO/dsp/DynamicStiffString.cpp:170:61
	vmul.f32	d23, d2, d4
	.loc	40 170 45 is_stmt 0     @ /root/Bela/projects/NIEMO/dsp/DynamicStiffString.cpp:170:45
	vadd.f32	d25, d5, d3
	.loc	40 169 29 is_stmt 1     @ /root/Bela/projects/NIEMO/dsp/DynamicStiffString.cpp:169:29
	vadd.f64	d22, d22, d24
	.loc	40 170 56               @ /root/Bela/projects/NIEMO/dsp/DynamicStiffString.cpp:170:56
	vadd.f32	d23, d25, d23
	.loc	40 170 34 is_stmt 0     @ /root/Bela/projects/NIEMO/dsp/DynamicStiffString.cpp:170:34
	vmul.f32	d0, d23, d0
	.loc	40 170 85               @ /root/Bela/projects/NIEMO/dsp/DynamicStiffString.cpp:170:85
	vcvt.f64.f32	d23, s2
	.loc	40 170 31               @ /root/Bela/projects/NIEMO/dsp/DynamicStiffString.cpp:170:31
	vcvt.f64.f32	d24, s0
	.loc	40 170 83               @ /root/Bela/projects/NIEMO/dsp/DynamicStiffString.cpp:170:83
	vadd.f64	d23, d23, d16
	.loc	40 170 29               @ /root/Bela/projects/NIEMO/dsp/DynamicStiffString.cpp:170:29
	vsub.f64	d22, d22, d24
	.loc	40 170 76               @ /root/Bela/projects/NIEMO/dsp/DynamicStiffString.cpp:170:76
	vdiv.f64	d22, d22, d23
	.loc	40 164 19 is_stmt 1     @ /root/Bela/projects/NIEMO/dsp/DynamicStiffString.cpp:164:19
	vcvt.f32.f64	s0, d22
	.loc	40 164 17 is_stmt 0     @ /root/Bela/projects/NIEMO/dsp/DynamicStiffString.cpp:164:17
	vstr	s0, [r11]
.Ltmp558:
	.loc	40 193 33 is_stmt 1 discriminator 1 @ /root/Bela/projects/NIEMO/dsp/DynamicStiffString.cpp:193:33
	ldr	r8, [r0, #132]
.Ltmp559:
	.loc	40 172 13               @ /root/Bela/projects/NIEMO/dsp/DynamicStiffString.cpp:172:13
	cmp	r8, #2
	bne	.LBB3_15
@ BB#14:
.Ltmp560:
	@DEBUG_VALUE: operator[]:__n <- 1
	.loc	40 175 30               @ /root/Bela/projects/NIEMO/dsp/DynamicStiffString.cpp:175:30
	vldr	s10, [r10, #4]
	.loc	40 176 61               @ /root/Bela/projects/NIEMO/dsp/DynamicStiffString.cpp:176:61
	vldr	s12, [r10, #8]
	.loc	40 175 30               @ /root/Bela/projects/NIEMO/dsp/DynamicStiffString.cpp:175:30
	vcvt.f64.f32	d20, s10
	.loc	40 176 61               @ /root/Bela/projects/NIEMO/dsp/DynamicStiffString.cpp:176:61
	vcvt.f64.f32	d19, s12
.Ltmp561:
	@DEBUG_VALUE: operator[]:__n <- 1
	.loc	40 177 82               @ /root/Bela/projects/NIEMO/dsp/DynamicStiffString.cpp:177:82
	vmov.f64	d23, #-5.000000e+00
	vmul.f64	d23, d20, d23
.Ltmp562:
	@DEBUG_VALUE: operator[]:__n <- 1
	vmul.f64	d17, d19, d17
	.loc	40 177 34 is_stmt 0     @ /root/Bela/projects/NIEMO/dsp/DynamicStiffString.cpp:177:34
	vldr	s8, [r0, #164]
.Ltmp563:
	@DEBUG_VALUE: operator[]:__n <- 1
	@DEBUG_VALUE: operator[]:__n <- 1
	@DEBUG_VALUE: operator[]:__n <- 1
	.loc	40 177 39               @ /root/Bela/projects/NIEMO/dsp/DynamicStiffString.cpp:177:39
	vldr	s14, [r7]
.Ltmp564:
	@DEBUG_VALUE: operator[]:__n <- 1
	.loc	40 176 35 is_stmt 1     @ /root/Bela/projects/NIEMO/dsp/DynamicStiffString.cpp:176:35
	vldr	s0, [r10]
	.loc	40 177 37               @ /root/Bela/projects/NIEMO/dsp/DynamicStiffString.cpp:177:37
	vmul.f32	d21, d7, d4
	.loc	40 177 63 is_stmt 0     @ /root/Bela/projects/NIEMO/dsp/DynamicStiffString.cpp:177:63
	vldr	s6, [r0, #156]
	.loc	40 177 52               @ /root/Bela/projects/NIEMO/dsp/DynamicStiffString.cpp:177:52
	vldr	s8, [r6]
	.loc	40 177 66               @ /root/Bela/projects/NIEMO/dsp/DynamicStiffString.cpp:177:66
	vmul.f32	d22, d3, d0
	.loc	40 180 55 is_stmt 1     @ /root/Bela/projects/NIEMO/dsp/DynamicStiffString.cpp:180:55
	vldr	s10, [r9, #8]
	.loc	40 177 76               @ /root/Bela/projects/NIEMO/dsp/DynamicStiffString.cpp:177:76
	vadd.f64	d17, d17, d23
.Ltmp565:
	@DEBUG_VALUE: operator[]:__n <- 2
	.loc	40 177 50 is_stmt 0     @ /root/Bela/projects/NIEMO/dsp/DynamicStiffString.cpp:177:50
	vadd.f32	d21, d21, d4
.Ltmp566:
	@DEBUG_VALUE: operator[]:__n <- 1
	.loc	40 178 37 is_stmt 1     @ /root/Bela/projects/NIEMO/dsp/DynamicStiffString.cpp:178:37
	vldr	s8, [r9, #4]
	.loc	40 175 28               @ /root/Bela/projects/NIEMO/dsp/DynamicStiffString.cpp:175:28
	vadd.f64	d20, d20, d20
